

Microchip MPLAB XC8 Assembler V2.46 build 20240104201356 
                                                                                               Fri Oct 18 01:38:08 2024

Microchip MPLAB XC8 C Compiler v2.46 (Free license) build 20240104201356 Og1 
     1                           	processor	18F4620
     2                           	fnconf	rparam,??,?,0
     3                           	pagewidth 120
     4                           	opt	flic
     5                           	psect	idataCOMRAM,global,class=CODE,delta=1,noexec
     6                           	psect	idataBANK0,global,class=CODE,delta=1,noexec
     7                           	psect	smallconst,global,reloc=2,class=SMALLCONST,delta=1,noexec
     8                           	psect	nvCOMRAM,global,class=COMRAM,space=1,delta=1,lowdata,noexec
     9                           	psect	cinit,global,reloc=2,class=CODE,delta=1
    10                           	psect	bssCOMRAM,global,class=COMRAM,space=1,delta=1,lowdata,noexec
    11                           	psect	dataCOMRAM,global,class=COMRAM,space=1,delta=1,lowdata,noexec
    12                           	psect	dataBANK0,global,class=BANK0,space=1,delta=1,lowdata,noexec
    13                           	psect	cstackBANK0,global,class=BANK0,space=1,delta=1,lowdata,noexec
    14                           	psect	cstackCOMRAM,global,class=COMRAM,space=1,delta=1,lowdata,noexec
    15                           	psect	text0,global,reloc=2,class=CODE,delta=1
    16                           	psect	text1,global,reloc=2,class=CODE,delta=1
    17                           	psect	text2,global,reloc=2,class=CODE,delta=1,group=1
    18                           	psect	text3,global,reloc=2,class=CODE,delta=1,group=1
    19                           	psect	text4,global,reloc=2,class=CODE,delta=1
    20                           	psect	text5,global,reloc=2,class=CODE,delta=1
    21                           	psect	text6,global,reloc=2,class=CODE,delta=1
    22                           	psect	text7,global,reloc=2,class=CODE,delta=1
    23                           	psect	text8,global,reloc=2,class=CODE,delta=1
    24                           	psect	text9,global,reloc=2,class=CODE,delta=1
    25                           	psect	text10,global,reloc=2,class=CODE,delta=1
    26                           	psect	text11,global,reloc=2,class=CODE,delta=1
    27                           	psect	text12,global,reloc=2,class=CODE,delta=1
    28                           	psect	text13,global,reloc=2,class=CODE,delta=1
    29                           	psect	text14,global,reloc=2,class=CODE,delta=1
    30                           	psect	text15,global,reloc=2,class=CODE,delta=1
    31                           	psect	text16,global,reloc=2,class=CODE,delta=1
    32                           	psect	text17,global,reloc=2,class=CODE,delta=1
    33                           	psect	text18,global,reloc=2,class=CODE,delta=1
    34                           	psect	text19,global,reloc=2,class=CODE,delta=1
    35                           	psect	text20,global,reloc=2,class=CODE,delta=1
    36                           	psect	text21,global,reloc=2,class=CODE,delta=1
    37                           	psect	text22,global,reloc=2,class=CODE,delta=1
    38                           	psect	text23,global,reloc=2,class=CODE,delta=1
    39                           	psect	text24,global,reloc=2,class=CODE,delta=1
    40                           	psect	text25,global,reloc=2,class=CODE,delta=1,inline
    41                           	psect	text26,global,reloc=2,class=CODE,delta=1,inline
    42                           	psect	text27,global,reloc=2,class=CODE,delta=1,inline
    43                           	psect	text28,global,reloc=2,class=CODE,delta=1
    44                           	psect	text29,global,reloc=2,class=CODE,delta=1
    45                           	psect	text30,global,reloc=2,class=CODE,delta=1
    46                           	psect	text31,global,reloc=2,class=CODE,delta=1
    47                           	psect	text32,global,reloc=2,class=CODE,delta=1
    48                           	psect	text33,global,reloc=2,class=CODE,delta=1
    49                           	psect	text34,global,reloc=2,class=CODE,delta=1
    50                           	psect	text35,global,reloc=2,class=CODE,delta=1
    51                           	psect	text36,global,reloc=2,class=CODE,delta=1
    52                           	psect	text37,global,reloc=2,class=CODE,delta=1
    53                           	psect	text38,global,reloc=2,class=CODE,delta=1
    54                           	psect	text39,global,reloc=2,class=CODE,delta=1
    55                           	psect	text40,global,reloc=2,class=CODE,delta=1
    56                           	psect	text41,global,reloc=2,class=CODE,delta=1
    57                           	psect	text42,global,reloc=2,class=CODE,delta=1
    58                           	psect	text43,global,reloc=2,class=CODE,delta=1
    59                           	psect	text44,global,reloc=2,class=CODE,delta=1
    60                           	psect	text45,global,reloc=2,class=CODE,delta=1
    61                           	psect	text46,global,reloc=2,class=CODE,delta=1
    62                           	psect	text47,global,reloc=2,class=CODE,delta=1
    63                           	psect	text48,global,reloc=2,class=CODE,delta=1
    64                           	psect	text49,global,reloc=2,class=CODE,delta=1
    65                           	psect	intcode,global,reloc=2,class=CODE,delta=1
    66                           	psect	intcode_body,global,reloc=2,class=CODE,delta=1
    67                           	psect	text51,global,reloc=2,class=CODE,delta=1
    68                           	psect	text52,global,reloc=2,class=CODE,delta=1
    69                           	psect	text53,global,reloc=2,class=CODE,delta=1
    70                           	psect	text54,global,reloc=2,class=CODE,delta=1
    71                           	psect	text55,global,reloc=2,class=CODE,delta=1
    72                           	psect	text56,global,reloc=2,class=CODE,delta=1
    73                           	psect	text57,global,reloc=2,class=CODE,delta=1
    74                           	psect	text58,global,reloc=2,class=CODE,delta=1
    75                           	psect	text59,global,reloc=2,class=CODE,delta=1
    76                           	psect	text60,global,reloc=2,class=CODE,delta=1
    77                           	psect	text61,global,reloc=2,class=CODE,delta=1
    78                           	psect	text62,global,reloc=2,class=CODE,delta=1
    79                           	psect	text63,global,reloc=2,class=CODE,delta=1
    80                           	psect	text64,global,reloc=2,class=CODE,delta=1
    81                           	psect	text65,global,reloc=2,class=CODE,delta=1
    82                           	psect	text66,global,reloc=2,class=CODE,delta=1
    83                           	psect	text67,global,reloc=2,class=CODE,delta=1
    84                           	psect	text68,global,reloc=2,class=CODE,delta=1
    85                           	psect	text69,global,reloc=2,class=CODE,delta=1
    86                           	psect	text70,global,reloc=2,class=CODE,delta=1
    87                           	psect	text71,global,reloc=2,class=CODE,delta=1
    88                           	psect	intsave_regs,global,class=BIGRAM,space=1,delta=1,noexec
    89                           	psect	rparam,global,class=COMRAM,space=1,delta=1,noexec
    90                           	psect	temp,global,ovrld,common,class=COMRAM,space=1,delta=1,lowdata
    91                           	psect	config,global,abs,ovrld,class=CONFIG,space=4,delta=1,noexec
    92   000000                     
    93                           ; Generated 17/10/2023 GMT
    94                           ; 
    95                           ; Copyright © 2023, Microchip Technology Inc. and its subsidiaries ("Microchip")
    96                           ; All rights reserved.
    97                           ; 
    98                           ; This software is developed by Microchip Technology Inc. and its subsidiaries ("Microch
      +                          ip").
    99                           ; 
   100                           ; Redistribution and use in source and binary forms, with or without modification, are
   101                           ; permitted provided that the following conditions are met:
   102                           ; 
   103                           ;     1. Redistributions of source code must retain the above copyright notice, this lis
      +                          t of
   104                           ;        conditions and the following disclaimer.
   105                           ; 
   106                           ;     2. Redistributions in binary form must reproduce the above copyright notice, this 
      +                          list
   107                           ;        of conditions and the following disclaimer in the documentation and/or other
   108                           ;        materials provided with the distribution. Publication is not required when
   109                           ;        this file is used in an embedded application.
   110                           ; 
   111                           ;     3. Microchip's name may not be used to endorse or promote products derived from th
      +                          is
   112                           ;        software without specific prior written permission.
   113                           ; 
   114                           ; THIS SOFTWARE IS PROVIDED BY MICROCHIP "AS IS" AND ANY EXPRESS OR IMPLIED WARRANTIES,
   115                           ; INCLUDING, BUT NOT LIMITED TO, THE IMPLIED WARRANTIES OF MERCHANTABILITY AND FITNESS F
      +                          OR
   116                           ; PURPOSE ARE DISCLAIMED.  IN NO EVENT SHALL MICROCHIP BE LIABLE FOR ANY DIRECT, INDIREC
      +                          T,
   117                           ; INCIDENTAL, SPECIAL, EXEMPLARY, OR CONSEQUENTIAL DAMAGES (INCLUDING BUT NOT LIMITED TO
   118                           ; PROCUREMENT OF SUBSTITUTE GOODS OR SERVICES; LOSS OF USE, DATA OR PROFITS; OR BUSINESS
   119                           ; INTERRUPTION) HOWSOEVER CAUSED AND ON ANY THEORY OF LIABILITY, WHETHER IN CONTRACT, ST
      +                          RICT
   120                           ; LIABILITY, OR TORT (INCLUDING NEGLIGENCE OR OTHERWISE) ARISING IN ANY WAY OUT OF THE U
      +                          SE OF
   121                           ; THIS SOFTWARE, EVEN IF ADVISED OF THE POSSIBILITY OF SUCH DAMAGE.
   122                           ; 
   123                           ; 
   124                           ; Code-generator required, PIC18F4620 Definitions
   125                           ; 
   126                           ; SFR Addresses
   127   000000                     
   128                           	psect	idataCOMRAM
   129   0031B4                     __pidataCOMRAM:
   130                           	callstack 0
   131                           
   132                           ;initializer for _mode_status
   133   0031B4  03                 	db	3
   134                           
   135                           ;initializer for _resume_flag
   136   0031B5  01                 	db	1
   137                           
   138                           ;initializer for _RB7_flag
   139   0031B6  01                 	db	1
   140                           
   141                           ;initializer for _RB6_flag
   142   0031B7  01                 	db	1
   143                           
   144                           ;initializer for _RB5_flag
   145   0031B8  01                 	db	1
   146                           
   147                           ;initializer for _RB4_flag
   148   0031B9  01                 	db	1
   149                           
   150                           ;initializer for _seven_segment
   151   0031BA  00                 	db	0
   152   0031BB  08                 	db	8
   153   0031BC  10                 	db	16
   154   0031BD  18                 	db	24
   155   0031BE  00                 	db	0
   156                           
   157                           ;initializer for _buzzer
   158   0031BF  32                 	db	50
   159                           
   160                           ;initializer for _buzzer_led
   161   0031C0  3A                 	db	58
   162                           
   163                           ;initializer for _clock_led
   164   0031C1  19                 	db	25
   165                           
   166                           ;initializer for _timer_led
   167   0031C2  28                 	db	40
   168                           
   169                           ;initializer for _stopwatch_led
   170   0031C3  20                 	db	32
   171                           
   172                           ;initializer for _seg_enable_6
   173   0031C4  2A                 	db	42
   174                           
   175                           ;initializer for _seg_enable_5
   176   0031C5  39                 	db	57
   177                           
   178                           ;initializer for _seg_enable_4
   179   0031C6  31                 	db	49
   180                           
   181                           ;initializer for _seg_enable_3
   182   0031C7  12                 	db	18
   183                           
   184                           ;initializer for _seg_enable_2
   185   0031C8  0A                 	db	10
   186                           
   187                           ;initializer for _seg_enable_1
   188   0031C9  02                 	db	2
   189                           
   190                           	psect	idataBANK0
   191   002D96                     __pidataBANK0:
   192                           	callstack 0
   193                           
   194                           ;initializer for _port_registers
   195   002D96  80                 	db	128
   196   002D97  0F                 	db	15
   197   002D98  81                 	db	129
   198   002D99  0F                 	db	15
   199   002D9A  82                 	db	130
   200   002D9B  0F                 	db	15
   201   002D9C  83                 	db	131
   202   002D9D  0F                 	db	15
   203   002D9E  84                 	db	132
   204   002D9F  0F                 	db	15
   205                           
   206                           ;initializer for _lat_registers
   207   002DA0  89                 	db	137
   208   002DA1  0F                 	db	15
   209   002DA2  8A                 	db	138
   210   002DA3  0F                 	db	15
   211   002DA4  8B                 	db	139
   212   002DA5  0F                 	db	15
   213   002DA6  8C                 	db	140
   214   002DA7  0F                 	db	15
   215   002DA8  8D                 	db	141
   216   002DA9  0F                 	db	15
   217                           
   218                           ;initializer for _tris_registers
   219   002DAA  92                 	db	146
   220   002DAB  0F                 	db	15
   221   002DAC  93                 	db	147
   222   002DAD  0F                 	db	15
   223   002DAE  94                 	db	148
   224   002DAF  0F                 	db	15
   225   002DB0  95                 	db	149
   226   002DB1  0F                 	db	15
   227   002DB2  96                 	db	150
   228   002DB3  0F                 	db	15
   229                           
   230                           ;initializer for _keypad
   231   002DB4  03                 	db	3
   232   002DB5  0B                 	db	11
   233   002DB6  13                 	db	19
   234   002DB7  1B                 	db	27
   235   002DB8  A3                 	db	163
   236   002DB9  AB                 	db	171
   237   002DBA  B3                 	db	179
   238   002DBB  BB                 	db	187
   239                           
   240                           ;initializer for _timer
   241   002DBC  7A                 	db	low _TIMER0_IneterruptHandler
   242   002DBD  14                 	db	high _TIMER0_IneterruptHandler
   243   002DBE  00                 	db	0
   244   002DBF  04                 	db	4
   245   002DC0  0BDC               	dw	3036
   246   002DC2  05                 	db	5
   247                           
   248                           ;initializer for _clock_mode_int
   249   002DC3  00                 	db	0
   250   002DC4  00                 	db	0
   251   002DC5  5A                 	db	low _RB1_ClockIneterruptHandler
   252   002DC6  31                 	db	high _RB1_ClockIneterruptHandler
   253   002DC7  A9                 	db	169
   254   002DC8  00                 	db	0
   255                           
   256                           ;initializer for _pause_resume_int
   257   002DC9  00                 	db	0
   258   002DCA  00                 	db	0
   259   002DCB  42                 	db	low _RB0_PauseIneterruptHandler
   260   002DCC  1E                 	db	high _RB0_PauseIneterruptHandler
   261   002DCD  A1                 	db	161
   262   002DCE  00                 	db	0
   263                           
   264                           ;initializer for _count_down_int
   265   002DCF  96                 	db	low _INT2_CountDownIneterruptHandler
   266   002DD0  31                 	db	high _INT2_CountDownIneterruptHandler
   267   002DD1  91                 	db	145
   268   002DD2  01                 	db	1
   269   002DD3  02                 	db	2
   270   002DD4  00                 	db	0
   271                           
   272                           ;initializer for _count_up_int
   273   002DD5  78                 	db	low _INT1_CountUpIneterruptHandler
   274   002DD6  31                 	db	high _INT1_CountUpIneterruptHandler
   275   002DD7  89                 	db	137
   276   002DD8  01                 	db	1
   277   002DD9  01                 	db	1
   278   002DDA  00                 	db	0
   279                           
   280                           ;initializer for _reset_int
   281   002DDB  5A                 	db	low _INT0_ResetIneterruptHandler
   282   002DDC  32                 	db	high _INT0_ResetIneterruptHandler
   283   002DDD  81                 	db	129
   284   002DDE  01                 	db	1
   285   002DDF  00                 	db	0
   286   002DE0  00                 	db	0
   287                           
   288                           	psect	smallconst
   289   001000                     __psmallconst:
   290                           	callstack 0
   291   001000  00                 	db	0
   292   001001                     _btn_values:
   293                           	callstack 0
   294   001001  37                 	db	55
   295   001002  38                 	db	56
   296   001003  39                 	db	57
   297   001004  2F                 	db	47
   298   001005  34                 	db	52
   299   001006  35                 	db	53
   300   001007  36                 	db	54
   301   001008  2A                 	db	42
   302   001009  31                 	db	49
   303   00100A  32                 	db	50
   304   00100B  33                 	db	51
   305   00100C  2D                 	db	45
   306   00100D  23                 	db	35
   307   00100E  30                 	db	48
   308   00100F  3D                 	db	61
   309   001010  2B                 	db	43
   310   001011                     __end_of_btn_values:
   311                           	callstack 0
   312   000000                     _TMR0L	set	4054
   313   000000                     _TMR0H	set	4055
   314   000000                     _INTCON2bits	set	4081
   315   000000                     _EECON2	set	4007
   316   001011  00                 	db	0	; dummy byte at the end
   317   000000                     
   318                           	psect	nvCOMRAM
   319   00006B                     __pnvCOMRAM:
   320                           	callstack 0
   321   00006B                     _ptr:
   322                           	callstack 0
   323   00006B                     	ds	2
   324   000000                     _PORTBbits	set	3969
   325   000000                     _RCEN	set	32299
   326   000000                     _ACKSTAT	set	32302
   327   000000                     _ACKEN	set	32300
   328   000000                     _ACKDT	set	32301
   329   000000                     _PEN	set	32298
   330   000000                     _RSEN	set	32297
   331   000000                     _TRISC3	set	31907
   332   000000                     _TRISC4	set	31908
   333   000000                     _EECON1bits	set	4006
   334   000000                     _EEDATA	set	4008
   335   000000                     _EEADR	set	4009
   336   000000                     _EEADRH	set	4010
   337   000000                     _INTCONbits	set	4082
   338   000000                     _PORTE	set	3972
   339   000000                     _PORTD	set	3971
   340   000000                     _PORTC	set	3970
   341   000000                     _PORTB	set	3969
   342   000000                     _PORTA	set	3968
   343   000000                     _LATA	set	3977
   344   000000                     _TRISA	set	3986
   345   000000                     _SSPCON1	set	4038
   346   000000                     _SSPSTAT	set	4039
   347   000000                     _SSPADD	set	4040
   348   000000                     _T0CONbits	set	4053
   349   000000                     _INTCON3bits	set	4080
   350   000000                     _SEN	set	32296
   351   000000                     _SSPIF	set	31987
   352   000000                     _TRISE	set	3990
   353   000000                     _TRISD	set	3989
   354   000000                     _TRISC	set	3988
   355   000000                     _TRISB	set	3987
   356   000000                     _LATE	set	3981
   357   000000                     _LATD	set	3980
   358   000000                     _LATC	set	3979
   359   000000                     _LATB	set	3978
   360   000000                     _SSPBUF	set	4041
   361                           
   362                           ; #config settings
   363                           
   364                           	psect	cinit
   365   002B44                     __pcinit:
   366                           	callstack 0
   367   002B44                     start_initialization:
   368                           	callstack 0
   369   002B44                     __initialization:
   370                           	callstack 0
   371                           
   372                           ; Initialize objects allocated to BANK0 (75 bytes)
   373                           ; load TBLPTR registers with __pidataBANK0
   374   002B44  0E96               	movlw	low __pidataBANK0
   375   002B46  6EF6               	movwf	tblptrl,c
   376   002B48  0E2D               	movlw	high __pidataBANK0
   377   002B4A  6EF7               	movwf	tblptrh,c
   378   002B4C  0E00               	movlw	low (__pidataBANK0 shr (0+16))
   379   002B4E  6EF8               	movwf	tblptru,c
   380   002B50  EE00  F080         	lfsr	0,__pdataBANK0
   381   002B54  EE10 F04B          	lfsr	1,75
   382   002B58                     copy_data0:
   383   002B58  0009               	tblrd		*+
   384   002B5A  CFF5 FFEE          	movff	tablat,postinc0
   385   002B5E  50E5               	movf	postdec1,w,c
   386   002B60  50E1               	movf	fsr1l,w,c
   387   002B62  E1FA               	bnz	copy_data0
   388                           
   389                           ; Initialize objects allocated to COMRAM (22 bytes)
   390                           ; load TBLPTR registers with __pidataCOMRAM
   391   002B64  0EB4               	movlw	low __pidataCOMRAM
   392   002B66  6EF6               	movwf	tblptrl,c
   393   002B68  0E31               	movlw	high __pidataCOMRAM
   394   002B6A  6EF7               	movwf	tblptrh,c
   395   002B6C  0E00               	movlw	low (__pidataCOMRAM shr (0+16))
   396   002B6E  6EF8               	movwf	tblptru,c
   397   002B70  EE00  F040         	lfsr	0,__pdataCOMRAM
   398   002B74  EE10 F016          	lfsr	1,22
   399   002B78                     copy_data1:
   400   002B78  0009               	tblrd		*+
   401   002B7A  CFF5 FFEE          	movff	tablat,postinc0
   402   002B7E  50E5               	movf	postdec1,w,c
   403   002B80  50E1               	movf	fsr1l,w,c
   404   002B82  E1FA               	bnz	copy_data1
   405                           
   406                           ; Clear objects allocated to COMRAM (63 bytes)
   407   002B84  EE00  F001         	lfsr	0,__pbssCOMRAM
   408   002B88  0E3F               	movlw	63
   409   002B8A                     clear_0:
   410   002B8A  6AEE               	clrf	postinc0,c
   411   002B8C  06E8               	decf	wreg,f,c
   412   002B8E  E1FD               	bnz	clear_0
   413   002B90                     end_of_initialization:
   414                           	callstack 0
   415   002B90                     __end_of__initialization:
   416                           	callstack 0
   417   002B90  906D               	bcf	int$flags,0,c	;clear compiler interrupt flag (level 1)
   418   002B92  926D               	bcf	int$flags,1,c	;clear compiler interrupt flag (level 2)
   419   002B94  0100               	movlb	0
   420   002B96  EF84  F00F         	goto	_main	;jump to C main() function
   421                           
   422                           	psect	bssCOMRAM
   423   000001                     __pbssCOMRAM:
   424                           	callstack 0
   425   000001                     _seconds_input:
   426                           	callstack 0
   427   000001                     	ds	2
   428   000003                     _minutes_input:
   429                           	callstack 0
   430   000003                     	ds	2
   431   000005                     _hours_input:
   432                           	callstack 0
   433   000005                     	ds	2
   434   000007                     _timer0_preload:
   435                           	callstack 0
   436   000007                     	ds	2
   437   000009                     _TMR0_InterruptHandler:
   438                           	callstack 0
   439   000009                     	ds	2
   440   00000B                     _RB7_InterruptHandler_LOW:
   441                           	callstack 0
   442   00000B                     	ds	2
   443   00000D                     _RB7_InterruptHandler_HIGH:
   444                           	callstack 0
   445   00000D                     	ds	2
   446   00000F                     _RB6_InterruptHandler_LOW:
   447                           	callstack 0
   448   00000F                     	ds	2
   449   000011                     _RB6_InterruptHandler_HIGH:
   450                           	callstack 0
   451   000011                     	ds	2
   452   000013                     _RB5_InterruptHandler_LOW:
   453                           	callstack 0
   454   000013                     	ds	2
   455   000015                     _RB5_InterruptHandler_HIGH:
   456                           	callstack 0
   457   000015                     	ds	2
   458   000017                     _RB4_InterruptHandler_LOW:
   459                           	callstack 0
   460   000017                     	ds	2
   461   000019                     _RB4_InterruptHandler_HIGH:
   462                           	callstack 0
   463   000019                     	ds	2
   464   00001B                     _INT2_InterruptHandler:
   465                           	callstack 0
   466   00001B                     	ds	2
   467   00001D                     _INT1_InterruptHandler:
   468                           	callstack 0
   469   00001D                     	ds	2
   470   00001F                     _INT0_InterruptHandler:
   471                           	callstack 0
   472   00001F                     	ds	2
   473   000021                     _Temp:
   474                           	callstack 0
   475   000021                     	ds	1
   476   000022                     _counter3:
   477                           	callstack 0
   478   000022                     	ds	1
   479   000023                     _counter2:
   480                           	callstack 0
   481   000023                     	ds	1
   482   000024                     _counter1:
   483                           	callstack 0
   484   000024                     	ds	1
   485   000025                     _clock_seconds:
   486                           	callstack 0
   487   000025                     	ds	1
   488   000026                     _clock_minutes:
   489                           	callstack 0
   490   000026                     	ds	1
   491   000027                     _clock_hours:
   492                           	callstack 0
   493   000027                     	ds	1
   494   000028                     _alarm_seconds:
   495                           	callstack 0
   496   000028                     	ds	1
   497   000029                     _alarm_minutes:
   498                           	callstack 0
   499   000029                     	ds	1
   500   00002A                     _alarm_hours:
   501                           	callstack 0
   502   00002A                     	ds	1
   503   00002B                     _pause_resume_btn_state:
   504                           	callstack 0
   505   00002B                     	ds	1
   506   00002C                     _pause_flag:
   507                           	callstack 0
   508   00002C                     	ds	1
   509   00002D                     led_toggle@F3082:
   510                           	callstack 0
   511   00002D                     	ds	1
   512   00002E                     led_turn_off@F3077:
   513                           	callstack 0
   514   00002E                     	ds	1
   515   00002F                     led_turn_on@F3072:
   516                           	callstack 0
   517   00002F                     	ds	1
   518   000030                     led_initialize@F3067:
   519                           	callstack 0
   520   000030                     	ds	1
   521   000031                     _pRTCArray:
   522                           	callstack 0
   523   000031                     	ds	4
   524   000035                     _time:
   525                           	callstack 0
   526   000035                     	ds	4
   527   000039                     _keypad_value:
   528                           	callstack 0
   529   000039                     	ds	1
   530   00003A                     _paused_seconds:
   531                           	callstack 0
   532   00003A                     	ds	1
   533   00003B                     _paused_minutes:
   534                           	callstack 0
   535   00003B                     	ds	1
   536   00003C                     _paused_hours:
   537                           	callstack 0
   538   00003C                     	ds	1
   539   00003D                     _hours:
   540                           	callstack 0
   541   00003D                     	ds	1
   542   00003E                     _minutes:
   543                           	callstack 0
   544   00003E                     	ds	1
   545   00003F                     _seconds:
   546                           	callstack 0
   547   00003F                     	ds	1
   548                           
   549                           	psect	dataCOMRAM
   550   000040                     __pdataCOMRAM:
   551                           	callstack 0
   552   000040                     _mode_status:
   553                           	callstack 0
   554   000040                     	ds	1
   555   000041                     _resume_flag:
   556                           	callstack 0
   557   000041                     	ds	1
   558   000042                     _RB7_flag:
   559                           	callstack 0
   560   000042                     	ds	1
   561   000043                     _RB6_flag:
   562                           	callstack 0
   563   000043                     	ds	1
   564   000044                     _RB5_flag:
   565                           	callstack 0
   566   000044                     	ds	1
   567   000045                     _RB4_flag:
   568                           	callstack 0
   569   000045                     	ds	1
   570   000046                     _seven_segment:
   571                           	callstack 0
   572   000046                     	ds	5
   573   00004B                     _buzzer:
   574                           	callstack 0
   575   00004B                     	ds	1
   576   00004C                     _buzzer_led:
   577                           	callstack 0
   578   00004C                     	ds	1
   579   00004D                     _clock_led:
   580                           	callstack 0
   581   00004D                     	ds	1
   582   00004E                     _timer_led:
   583                           	callstack 0
   584   00004E                     	ds	1
   585   00004F                     _stopwatch_led:
   586                           	callstack 0
   587   00004F                     	ds	1
   588   000050                     _seg_enable_6:
   589                           	callstack 0
   590   000050                     	ds	1
   591   000051                     _seg_enable_5:
   592                           	callstack 0
   593   000051                     	ds	1
   594   000052                     _seg_enable_4:
   595                           	callstack 0
   596   000052                     	ds	1
   597   000053                     _seg_enable_3:
   598                           	callstack 0
   599   000053                     	ds	1
   600   000054                     _seg_enable_2:
   601                           	callstack 0
   602   000054                     	ds	1
   603   000055                     _seg_enable_1:
   604                           	callstack 0
   605   000055                     	ds	1
   606                           
   607                           	psect	dataBANK0
   608   000080                     __pdataBANK0:
   609                           	callstack 0
   610   000080                     _port_registers:
   611                           	callstack 0
   612   000080                     	ds	10
   613   00008A                     _lat_registers:
   614                           	callstack 0
   615   00008A                     	ds	10
   616   000094                     _tris_registers:
   617                           	callstack 0
   618   000094                     	ds	10
   619   00009E                     _keypad:
   620                           	callstack 0
   621   00009E                     	ds	8
   622   0000A6                     _timer:
   623                           	callstack 0
   624   0000A6                     	ds	7
   625   0000AD                     _clock_mode_int:
   626                           	callstack 0
   627   0000AD                     	ds	6
   628   0000B3                     _pause_resume_int:
   629                           	callstack 0
   630   0000B3                     	ds	6
   631   0000B9                     _count_down_int:
   632                           	callstack 0
   633   0000B9                     	ds	6
   634   0000BF                     _count_up_int:
   635                           	callstack 0
   636   0000BF                     	ds	6
   637   0000C5                     _reset_int:
   638                           	callstack 0
   639   0000C5                     	ds	6
   640                           
   641                           	psect	cstackBANK0
   642   0000CB                     __pcstackBANK0:
   643                           	callstack 0
   644   0000CB                     ??_gpio_pin_write_logic:
   645   0000CB                     ??_gpio_pin_direction_initialize:
   646   0000CB                     ??_gpio_pin_read_logic:
   647   0000CB                     ??_Timer0_Init:
   648   0000CB                     ?___awdiv:
   649                           	callstack 0
   650   0000CB                     ?___awmod:
   651                           	callstack 0
   652   0000CB                     Interrupt_INTx_Enable@retVal:
   653                           	callstack 0
   654   0000CB                     Interrupt_INTx_Disable@retVal:
   655                           	callstack 0
   656   0000CB                     Interrupt_INTx_Edge_Init@retVal:
   657                           	callstack 0
   658   0000CB                     Interrupt_INTx_Clear_Flag@retVal:
   659                           	callstack 0
   660   0000CB                     Interrupt_INTx_SetInterruptHandler@int_obj:
   661                           	callstack 0
   662   0000CB                     Read_Bytes_From_DS1307_RTC@pData:
   663                           	callstack 0
   664   0000CB                     ___awdiv@dividend:
   665                           	callstack 0
   666   0000CB                     ___awmod@dividend:
   667                           	callstack 0
   668                           
   669                           ; 2 bytes @ 0x0
   670   0000CB                     	ds	1
   671   0000CC                     ??_Interrupt_INTx_SetInterruptHandler:
   672   0000CC                     Read_Bytes_From_DS1307_RTC@NoOfBytes:
   673                           	callstack 0
   674                           
   675                           ; 2 bytes @ 0x1
   676   0000CC                     	ds	1
   677   0000CD                     Timer0_Init@retVal:
   678                           	callstack 0
   679   0000CD                     ___awdiv@divisor:
   680                           	callstack 0
   681   0000CD                     ___awmod@divisor:
   682                           	callstack 0
   683                           
   684                           ; 2 bytes @ 0x2
   685   0000CD                     	ds	1
   686   0000CE                     Interrupt_INTx_SetInterruptHandler@retVal:
   687                           	callstack 0
   688   0000CE                     Read_Bytes_From_DS1307_RTC@Address:
   689                           	callstack 0
   690                           
   691                           ; 1 bytes @ 0x3
   692   0000CE                     	ds	1
   693   0000CF                     ___awdiv@counter:
   694                           	callstack 0
   695   0000CF                     Read_Bytes_From_DS1307_RTC@i:
   696                           	callstack 0
   697                           
   698                           ; 2 bytes @ 0x4
   699   0000CF                     	ds	1
   700   0000D0                     keypad_get_value@pad:
   701                           	callstack 0
   702   0000D0                     gpio_pin_initialize@config:
   703                           	callstack 0
   704   0000D0                     ___awdiv@sign:
   705                           	callstack 0
   706                           
   707                           ; 1 bytes @ 0x5
   708   0000D0                     	ds	1
   709   0000D1                     ??_gpio_pin_initialize:
   710   0000D1                     ??_Get_DS1307_RTC_Time:
   711   0000D1                     keypad_get_value@value:
   712                           	callstack 0
   713   0000D1                     ___awdiv@quotient:
   714                           	callstack 0
   715                           
   716                           ; 2 bytes @ 0x6
   717   0000D1                     	ds	1
   718   0000D2                     ??_get_rtc_time:
   719   0000D2                     ??_keypad_get_value:
   720   0000D2                     gpio_pin_initialize@retVal:
   721                           	callstack 0
   722                           
   723                           ; 1 bytes @ 0x7
   724   0000D2                     	ds	1
   725   0000D3                     seven_segment_initialize@segment:
   726                           	callstack 0
   727   0000D3                     seven_segment_write_number@segment:
   728                           	callstack 0
   729   0000D3                     keypad_initialize@pad:
   730                           	callstack 0
   731   0000D3                     keypad_get_value@retVal:
   732                           	callstack 0
   733   0000D3                     led_initialize@led:
   734                           	callstack 0
   735   0000D3                     Interrupt_INTx_Pin_Init@int_obj:
   736                           	callstack 0
   737   0000D3                     Interrupt_RBx_Pin_Init@int_obj:
   738                           	callstack 0
   739                           
   740                           ; 1 bytes @ 0x8
   741   0000D3                     	ds	1
   742   0000D4                     ??_led_initialize:
   743   0000D4                     seven_segment_initialize@retVal:
   744                           	callstack 0
   745   0000D4                     seven_segment_write_number@number:
   746                           	callstack 0
   747   0000D4                     keypad_initialize@retVal:
   748                           	callstack 0
   749   0000D4                     keypad_get_value@column_logic:
   750                           	callstack 0
   751   0000D4                     Interrupt_INTx_Pin_Init@retVal:
   752                           	callstack 0
   753   0000D4                     Interrupt_RBx_Pin_Init@retVal:
   754                           	callstack 0
   755                           
   756                           ; 1 bytes @ 0x9
   757   0000D4                     	ds	1
   758   0000D5                     seven_segment_write_number@retVal:
   759                           	callstack 0
   760   0000D5                     keypad_initialize@rows_counter:
   761                           	callstack 0
   762   0000D5                     keypad_get_value@counter:
   763                           	callstack 0
   764   0000D5                     led_initialize@retVal:
   765                           	callstack 0
   766   0000D5                     Interrupt_INTx_Init@int_obj:
   767                           	callstack 0
   768   0000D5                     Interrupt_RBx_Init@int_obj:
   769                           	callstack 0
   770                           
   771                           ; 1 bytes @ 0xA
   772   0000D5                     	ds	1
   773   0000D6                     keypad_initialize@columns_counter:
   774                           	callstack 0
   775   0000D6                     keypad_get_value@rows_counter:
   776                           	callstack 0
   777   0000D6                     led_initialize@pin_obj:
   778                           	callstack 0
   779   0000D6                     Interrupt_INTx_Init@retVal:
   780                           	callstack 0
   781   0000D6                     Interrupt_RBx_Init@retVal:
   782                           	callstack 0
   783   0000D6                     seven_seg_display@__minutes:
   784                           	callstack 0
   785                           
   786                           ; 1 bytes @ 0xB
   787   0000D6                     	ds	1
   788   0000D7                     keypad_get_value@columns_counter:
   789                           	callstack 0
   790   0000D7                     seven_seg_display@__seconds:
   791                           	callstack 0
   792                           
   793                           ; 1 bytes @ 0xC
   794   0000D7                     	ds	1
   795   0000D8                     seven_seg_display@__hours:
   796                           	callstack 0
   797                           
   798                           ; 1 bytes @ 0xD
   799   0000D8                     	ds	1
   800                           
   801                           	psect	cstackCOMRAM
   802   000056                     __pcstackCOMRAM:
   803                           	callstack 0
   804   000056                     gpio_pin_toggle_logic@config:
   805                           	callstack 0
   806   000056                     i2gpio_pin_write_logic@config:
   807                           	callstack 0
   808   000056                     Data_EEPROM_Write_Byte@bADD:
   809                           	callstack 0
   810   000056                     Data_EEPROM_Read_Byte@bADD:
   811                           	callstack 0
   812                           
   813                           ; 2 bytes @ 0x0
   814   000056                     	ds	1
   815   000057                     ??_gpio_pin_toggle_logic:
   816   000057                     i2gpio_pin_write_logic@logic_status:
   817                           	callstack 0
   818                           
   819                           ; 1 bytes @ 0x1
   820   000057                     	ds	1
   821   000058                     ??i2_gpio_pin_write_logic:
   822   000058                     Data_EEPROM_Write_Byte@bData:
   823                           	callstack 0
   824   000058                     Data_EEPROM_Read_Byte@bData:
   825                           	callstack 0
   826                           
   827                           ; 1 bytes @ 0x2
   828   000058                     	ds	1
   829   000059                     Data_EEPROM_Write_Byte@General_Interrupt_Status:
   830                           	callstack 0
   831   000059                     Data_EEPROM_Read_Byte@retVal:
   832                           	callstack 0
   833                           
   834                           ; 1 bytes @ 0x3
   835   000059                     	ds	1
   836   00005A                     
   837                           ; 1 bytes @ 0x4
   838   00005A                     	ds	1
   839   00005B                     led_toggle@led:
   840                           	callstack 0
   841                           
   842                           ; 1 bytes @ 0x5
   843   00005B                     	ds	1
   844   00005C                     ??_led_toggle:
   845                           
   846                           ; 1 bytes @ 0x6
   847   00005C                     	ds	1
   848   00005D                     led_turn_on@led:
   849                           	callstack 0
   850   00005D                     led_turn_off@led:
   851                           	callstack 0
   852   00005D                     led_toggle@pin_obj:
   853                           	callstack 0
   854                           
   855                           ; 1 bytes @ 0x7
   856   00005D                     	ds	1
   857   00005E                     ??_led_turn_on:
   858   00005E                     ??_led_turn_off:
   859                           
   860                           ; 1 bytes @ 0x8
   861   00005E                     	ds	1
   862   00005F                     led_turn_on@retVal:
   863                           	callstack 0
   864   00005F                     led_turn_off@retVal:
   865                           	callstack 0
   866                           
   867                           ; 1 bytes @ 0x9
   868   00005F                     	ds	1
   869   000060                     led_turn_on@pin_obj:
   870                           	callstack 0
   871   000060                     led_turn_off@pin_obj:
   872                           	callstack 0
   873                           
   874                           ; 1 bytes @ 0xA
   875   000060                     	ds	1
   876   000061                     RB4_ISR@RB4_Source:
   877                           	callstack 0
   878   000061                     RB5_ISR@RB5_Source:
   879                           	callstack 0
   880   000061                     RB6_ISR@RB6_Source:
   881                           	callstack 0
   882   000061                     RB7_ISR@RB7_Source:
   883                           	callstack 0
   884                           
   885                           ; 1 bytes @ 0xB
   886   000061                     	ds	1
   887   000062                     ??_InterruptManagerHigh:
   888                           
   889                           ; 1 bytes @ 0xC
   890   000062                     	ds	6
   891   000068                     gpio_pin_direction_initialize@config:
   892                           	callstack 0
   893   000068                     gpio_pin_write_logic@config:
   894                           	callstack 0
   895   000068                     gpio_pin_read_logic@config:
   896                           	callstack 0
   897   000068                     Interrupt_INTx_Enable@int_obj:
   898                           	callstack 0
   899   000068                     Interrupt_INTx_Disable@int_obj:
   900                           	callstack 0
   901   000068                     Interrupt_INTx_Edge_Init@int_obj:
   902                           	callstack 0
   903   000068                     Interrupt_INTx_Clear_Flag@int_obj:
   904                           	callstack 0
   905   000068                     Interrupt_RBx_Enable@int_obj:
   906                           	callstack 0
   907   000068                     Interrupt_RBx_Disable@int_obj:
   908                           	callstack 0
   909   000068                     Interrupt_RBx_Priority_Init@int_obj:
   910                           	callstack 0
   911   000068                     Timer0_Prescaler_Config@timer0:
   912                           	callstack 0
   913   000068                     Timer0_Mode_Select@timer0:
   914                           	callstack 0
   915   000068                     Timer0_Register_Size_Config@timer0:
   916                           	callstack 0
   917   000068                     I2C_Write_Byte@Byte:
   918                           	callstack 0
   919   000068                     ___awmod@counter:
   920                           	callstack 0
   921   000068                     INT0_SetInterruptHandler@InterruptHandler:
   922                           	callstack 0
   923   000068                     INT1_SetInterruptHandler@InterruptHandler:
   924                           	callstack 0
   925   000068                     INT2_SetInterruptHandler@InterruptHandler:
   926                           	callstack 0
   927                           
   928                           ; 2 bytes @ 0x12
   929   000068                     	ds	1
   930   000069                     ??_Interrupt_INTx_Disable:
   931   000069                     ??_Interrupt_INTx_Clear_Flag:
   932   000069                     ??_Interrupt_INTx_Edge_Init:
   933   000069                     ??_Interrupt_INTx_Enable:
   934   000069                     ??_Timer0_Prescaler_Config:
   935   000069                     gpio_pin_direction_initialize@retVal:
   936                           	callstack 0
   937   000069                     gpio_pin_write_logic@logic_status:
   938                           	callstack 0
   939   000069                     gpio_pin_read_logic@logic_status:
   940                           	callstack 0
   941   000069                     Interrupt_RBx_Enable@retVal:
   942                           	callstack 0
   943   000069                     Interrupt_RBx_Disable@retVal:
   944                           	callstack 0
   945   000069                     Interrupt_RBx_Priority_Init@retVal:
   946                           	callstack 0
   947   000069                     ___awmod@sign:
   948                           	callstack 0
   949                           
   950                           ; 1 bytes @ 0x13
   951   000069                     	ds	1
   952   00006A                     gpio_pin_write_logic@retVal:
   953                           	callstack 0
   954   00006A                     gpio_pin_read_logic@retVal:
   955                           	callstack 0
   956   00006A                     INT0_SetInterruptHandler@retVal:
   957                           	callstack 0
   958   00006A                     INT1_SetInterruptHandler@retVal:
   959                           	callstack 0
   960   00006A                     INT2_SetInterruptHandler@retVal:
   961                           	callstack 0
   962   00006A                     Timer0_Init@timer0:
   963                           	callstack 0
   964                           
   965                           ; 1 bytes @ 0x14
   966   00006A                     	ds	1
   967   00006B                     
   968                           ; 1 bytes @ 0x15
   969 ;;
   970 ;;Main: autosize = 0, tempsize = 0, incstack = 0, save=0
   971 ;;
   972 ;; *************** function _main *****************
   973 ;; Defined at:
   974 ;;		line 36 in file "application.c"
   975 ;; Parameters:    Size  Location     Type
   976 ;;		None
   977 ;; Auto vars:     Size  Location     Type
   978 ;;  retVal          1    0        unsigned char 
   979 ;; Return value:  Size  Location     Type
   980 ;;                  2  785[None  ] int 
   981 ;; Registers used:
   982 ;;		wreg, fsr1l, fsr1h, fsr2l, fsr2h, status,2, status,0, tblptrl, tblptrh, tblptru, prodl, prodh, cstack
   983 ;; Tracked objects:
   984 ;;		On entry : 0/0
   985 ;;		On exit  : 0/0
   986 ;;		Unchanged: 0/0
   987 ;; Data sizes:     COMRAM   BANK0   BANK1   BANK2   BANK3   BANK4   BANK5   BANK6   BANK7   BANK8   BANK9  BANK10  BANK1
      +1  BANK12  BANK13  BANK14  BANK15
   988 ;;      Params:         0       0       0       0       0       0       0       0       0       0       0       0       
      +0       0       0       0       0
   989 ;;      Locals:         0       0       0       0       0       0       0       0       0       0       0       0       
      +0       0       0       0       0
   990 ;;      Temps:          0       0       0       0       0       0       0       0       0       0       0       0       
      +0       0       0       0       0
   991 ;;      Totals:         0       0       0       0       0       0       0       0       0       0       0       0       
      +0       0       0       0       0
   992 ;;Total ram usage:        0 bytes
   993 ;; Hardware stack levels required when called: 11
   994 ;; This function calls:
   995 ;;		_application_initialize
   996 ;;		_get_rtc_time
   997 ;;		_set_alarm
   998 ;;		_seven_seg_display
   999 ;; This function is called by:
  1000 ;;		Startup code after reset
  1001 ;; This function uses a non-reentrant model
  1002 ;;
  1003                           
  1004                           	psect	text0
  1005   001F08                     __ptext0:
  1006                           	callstack 0
  1007   001F08                     _main:
  1008                           	callstack 20
  1009   001F08                     
  1010                           ;application.c: 38:     application_initialize();
  1011   001F08  EC34  F019         	call	_application_initialize	;wreg free
  1012   001F0C                     
  1013                           ;application.c: 40:     get_rtc_time();
  1014   001F0C  EC16  F017         	call	_get_rtc_time	;wreg free
  1015   001F10                     l786:
  1016                           
  1017                           ;application.c: 44:         if(0 == mode_status ){
  1018   001F10  5040               	movf	_mode_status^0,w,c	;volatile
  1019   001F12  A4D8               	btfss	status,2,c
  1020   001F14  EF8E  F00F         	goto	u6021
  1021   001F18  EF90  F00F         	goto	u6020
  1022   001F1C                     u6021:
  1023   001F1C  EF94  F00F         	goto	l6252
  1024   001F20                     u6020:
  1025   001F20                     
  1026                           ;application.c: 45:             set_alarm();
  1027   001F20  ECEB  F00A         	call	_set_alarm	;wreg free
  1028                           
  1029                           ;application.c: 46:         }
  1030   001F24  EF88  F00F         	goto	l786
  1031   001F28                     l6252:
  1032   001F28  0E04               	movlw	4
  1033   001F2A  1840               	xorwf	_mode_status^0,w,c	;volatile
  1034   001F2C  A4D8               	btfss	status,2,c
  1035   001F2E  EF9B  F00F         	goto	u6031
  1036   001F32  EF9D  F00F         	goto	u6030
  1037   001F36                     u6031:
  1038   001F36  EFA6  F00F         	goto	l6256
  1039   001F3A                     u6030:
  1040   001F3A                     
  1041                           ;application.c: 48:             seven_seg_display(alarm_hours, alarm_minutes, alarm_seco
      +                          nds);
  1042   001F3A  C029  F0D6         	movff	_alarm_minutes,seven_seg_display@__minutes	;volatile
  1043   001F3E  C028  F0D7         	movff	_alarm_seconds,seven_seg_display@__seconds	;volatile
  1044   001F42  502A               	movf	_alarm_hours^0,w,c	;volatile
  1045   001F44  EC74  F009         	call	_seven_seg_display
  1046                           
  1047                           ;application.c: 49:         }
  1048   001F48  EF88  F00F         	goto	l786
  1049   001F4C                     l6256:
  1050   001F4C  0440               	decf	_mode_status^0,w,c	;volatile
  1051   001F4E  A4D8               	btfss	status,2,c
  1052   001F50  EFAC  F00F         	goto	u6041
  1053   001F54  EFAE  F00F         	goto	u6040
  1054   001F58                     u6041:
  1055   001F58  EFD0  F00F         	goto	l6266
  1056   001F5C                     u6040:
  1057   001F5C                     
  1058                           ;application.c: 52:             if(1 == resume_flag){
  1059   001F5C  0441               	decf	_resume_flag^0,w,c	;volatile
  1060   001F5E  A4D8               	btfss	status,2,c
  1061   001F60  EFB4  F00F         	goto	u6051
  1062   001F64  EFB6  F00F         	goto	u6050
  1063   001F68                     u6051:
  1064   001F68  EFBF  F00F         	goto	l6262
  1065   001F6C                     u6050:
  1066   001F6C                     
  1067                           ;application.c: 53:                 seven_seg_display(hours, minutes, seconds);
  1068   001F6C  C03E  F0D6         	movff	_minutes,seven_seg_display@__minutes	;volatile
  1069   001F70  C03F  F0D7         	movff	_seconds,seven_seg_display@__seconds	;volatile
  1070   001F74  503D               	movf	_hours^0,w,c	;volatile
  1071   001F76  EC74  F009         	call	_seven_seg_display
  1072                           
  1073                           ;application.c: 54:             }
  1074   001F7A  EF88  F00F         	goto	l786
  1075   001F7E                     l6262:
  1076   001F7E  042C               	decf	_pause_flag^0,w,c	;volatile
  1077   001F80  A4D8               	btfss	status,2,c
  1078   001F82  EFC5  F00F         	goto	u6061
  1079   001F86  EFC7  F00F         	goto	u6060
  1080   001F8A                     u6061:
  1081   001F8A  EFE2  F00F         	goto	l796
  1082   001F8E                     u6060:
  1083   001F8E                     
  1084                           ;application.c: 56:                 seven_seg_display(paused_hours, paused_minutes, paus
      +                          ed_seconds);
  1085   001F8E  C03B  F0D6         	movff	_paused_minutes,seven_seg_display@__minutes	;volatile
  1086   001F92  C03A  F0D7         	movff	_paused_seconds,seven_seg_display@__seconds	;volatile
  1087   001F96  503C               	movf	_paused_hours^0,w,c	;volatile
  1088   001F98  EC74  F009         	call	_seven_seg_display
  1089                           
  1090                           ;application.c: 57:             }
  1091   001F9C  EF88  F00F         	goto	l786
  1092   001FA0                     l6266:
  1093   001FA0  0E02               	movlw	2
  1094   001FA2  1840               	xorwf	_mode_status^0,w,c	;volatile
  1095   001FA4  A4D8               	btfss	status,2,c
  1096   001FA6  EFD7  F00F         	goto	u6071
  1097   001FAA  EFD9  F00F         	goto	u6070
  1098   001FAE                     u6071:
  1099   001FAE  EFE2  F00F         	goto	l796
  1100   001FB2                     u6070:
  1101   001FB2                     
  1102                           ;application.c: 62:             seven_seg_display(clock_hours, clock_minutes, clock_seco
      +                          nds);
  1103   001FB2  C026  F0D6         	movff	_clock_minutes,seven_seg_display@__minutes	;volatile
  1104   001FB6  C025  F0D7         	movff	_clock_seconds,seven_seg_display@__seconds	;volatile
  1105   001FBA  5027               	movf	_clock_hours^0,w,c	;volatile
  1106   001FBC  EC74  F009         	call	_seven_seg_display
  1107   001FC0  EF88  F00F         	goto	l786
  1108   001FC4                     l796:
  1109   001FC4  EF88  F00F         	goto	l786
  1110   001FC8  EF07  F000         	goto	start
  1111   001FCC                     __end_of_main:
  1112                           	callstack 0
  1113                           
  1114 ;; *************** function _seven_seg_display *****************
  1115 ;; Defined at:
  1116 ;;		line 76 in file "application.c"
  1117 ;; Parameters:    Size  Location     Type
  1118 ;;  __hours         1    wreg     unsigned char 
  1119 ;;  __minutes       1   11[BANK0 ] unsigned char 
  1120 ;;  __seconds       1   12[BANK0 ] unsigned char 
  1121 ;; Auto vars:     Size  Location     Type
  1122 ;;  __hours         1   13[BANK0 ] unsigned char 
  1123 ;;  retVal          1    0        unsigned char 
  1124 ;; Return value:  Size  Location     Type
  1125 ;;                  1    wreg      void 
  1126 ;; Registers used:
  1127 ;;		wreg, fsr2l, fsr2h, status,2, status,0, prodl, prodh, cstack
  1128 ;; Tracked objects:
  1129 ;;		On entry : 0/0
  1130 ;;		On exit  : 0/0
  1131 ;;		Unchanged: 0/0
  1132 ;; Data sizes:     COMRAM   BANK0   BANK1   BANK2   BANK3   BANK4   BANK5   BANK6   BANK7   BANK8   BANK9  BANK10  BANK1
      +1  BANK12  BANK13  BANK14  BANK15
  1133 ;;      Params:         0       2       0       0       0       0       0       0       0       0       0       0       
      +0       0       0       0       0
  1134 ;;      Locals:         0       1       0       0       0       0       0       0       0       0       0       0       
      +0       0       0       0       0
  1135 ;;      Temps:          0       0       0       0       0       0       0       0       0       0       0       0       
      +0       0       0       0       0
  1136 ;;      Totals:         0       3       0       0       0       0       0       0       0       0       0       0       
      +0       0       0       0       0
  1137 ;;Total ram usage:        3 bytes
  1138 ;; Hardware stack levels used: 1
  1139 ;; Hardware stack levels required when called: 7
  1140 ;; This function calls:
  1141 ;;		___awdiv
  1142 ;;		___awmod
  1143 ;;		_gpio_pin_write_logic
  1144 ;;		_seven_segment_write_number
  1145 ;; This function is called by:
  1146 ;;		_main
  1147 ;; This function uses a non-reentrant model
  1148 ;;
  1149                           
  1150                           	psect	text1
  1151   0012E8                     __ptext1:
  1152                           	callstack 0
  1153   0012E8                     _seven_seg_display:
  1154                           	callstack 23
  1155                           
  1156                           ;incstack = 0
  1157                           ;seven_seg_display@__hours stored from wreg
  1158   0012E8  0100               	movlb	0	; () banked
  1159   0012EA  6FD8               	movwf	seven_seg_display@__hours& (0+255),b
  1160   0012EC  0E46               	movlw	low _seven_segment
  1161   0012EE  0100               	movlb	0	; () banked
  1162   0012F0  6FD3               	movwf	seven_segment_write_number@segment& (0+255),b
  1163   0012F2  C0D8  F0CB         	movff	seven_seg_display@__hours,___awdiv@dividend
  1164   0012F6  6BCC               	clrf	(___awdiv@dividend+1)& (0+255),b
  1165   0012F8  0E00               	movlw	0
  1166   0012FA  6FCE               	movwf	(___awdiv@divisor+1)& (0+255),b
  1167   0012FC  0E0A               	movlw	10
  1168   0012FE  6FCD               	movwf	___awdiv@divisor& (0+255),b
  1169   001300  ECBE  F00E         	call	___awdiv	;wreg free
  1170   001304  0100               	movlb	0	; () banked
  1171   001306  51CB               	movf	?___awdiv& (0+255),w,b
  1172   001308  6FD4               	movwf	seven_segment_write_number@number& (0+255),b
  1173   00130A  EC87  F011         	call	_seven_segment_write_number	;wreg free
  1174   00130E  0E55               	movlw	low _seg_enable_1
  1175   001310  6E68               	movwf	gpio_pin_write_logic@config^0,c
  1176   001312  0E01               	movlw	1
  1177   001314  6E69               	movwf	gpio_pin_write_logic@logic_status^0,c
  1178   001316  ECA5  F00C         	call	_gpio_pin_write_logic	;wreg free
  1179   00131A                     
  1180                           ;application.c: 80:     _delay((unsigned long)((50)*(8000000UL/4000000.0)));
  1181   00131A  0E21               	movlw	33
  1182   00131C                     u6107:
  1183   00131C  2EE8               	decfsz	wreg,f,c
  1184   00131E  D7FE               	bra	u6107
  1185   001320  0000               	nop	
  1186   001322  0E55               	movlw	low _seg_enable_1
  1187   001324  6E68               	movwf	gpio_pin_write_logic@config^0,c
  1188   001326  0E00               	movlw	0
  1189   001328  6E69               	movwf	gpio_pin_write_logic@logic_status^0,c
  1190   00132A  ECA5  F00C         	call	_gpio_pin_write_logic	;wreg free
  1191   00132E  0E46               	movlw	low _seven_segment
  1192   001330  0100               	movlb	0	; () banked
  1193   001332  6FD3               	movwf	seven_segment_write_number@segment& (0+255),b
  1194   001334  C0D8  F0CB         	movff	seven_seg_display@__hours,___awmod@dividend
  1195   001338  6BCC               	clrf	(___awmod@dividend+1)& (0+255),b
  1196   00133A  0E00               	movlw	0
  1197   00133C  6FCE               	movwf	(___awmod@divisor+1)& (0+255),b
  1198   00133E  0E0A               	movlw	10
  1199   001340  6FCD               	movwf	___awmod@divisor& (0+255),b
  1200   001342  ECE6  F00F         	call	___awmod	;wreg free
  1201   001346  0100               	movlb	0	; () banked
  1202   001348  51CB               	movf	?___awmod& (0+255),w,b
  1203   00134A  6FD4               	movwf	seven_segment_write_number@number& (0+255),b
  1204   00134C  EC87  F011         	call	_seven_segment_write_number	;wreg free
  1205   001350  0E54               	movlw	low _seg_enable_2
  1206   001352  6E68               	movwf	gpio_pin_write_logic@config^0,c
  1207   001354  0E01               	movlw	1
  1208   001356  6E69               	movwf	gpio_pin_write_logic@logic_status^0,c
  1209   001358  ECA5  F00C         	call	_gpio_pin_write_logic	;wreg free
  1210   00135C                     
  1211                           ;application.c: 84:     _delay((unsigned long)((50)*(8000000UL/4000000.0)));
  1212   00135C  0E21               	movlw	33
  1213   00135E                     u6117:
  1214   00135E  2EE8               	decfsz	wreg,f,c
  1215   001360  D7FE               	bra	u6117
  1216   001362  0000               	nop	
  1217   001364  0E54               	movlw	low _seg_enable_2
  1218   001366  6E68               	movwf	gpio_pin_write_logic@config^0,c
  1219   001368  0E00               	movlw	0
  1220   00136A  6E69               	movwf	gpio_pin_write_logic@logic_status^0,c
  1221   00136C  ECA5  F00C         	call	_gpio_pin_write_logic	;wreg free
  1222   001370  0E46               	movlw	low _seven_segment
  1223   001372  0100               	movlb	0	; () banked
  1224   001374  6FD3               	movwf	seven_segment_write_number@segment& (0+255),b
  1225   001376  C0D6  F0CB         	movff	seven_seg_display@__minutes,___awdiv@dividend
  1226   00137A  6BCC               	clrf	(___awdiv@dividend+1)& (0+255),b
  1227   00137C  0E00               	movlw	0
  1228   00137E  6FCE               	movwf	(___awdiv@divisor+1)& (0+255),b
  1229   001380  0E0A               	movlw	10
  1230   001382  6FCD               	movwf	___awdiv@divisor& (0+255),b
  1231   001384  ECBE  F00E         	call	___awdiv	;wreg free
  1232   001388  0100               	movlb	0	; () banked
  1233   00138A  51CB               	movf	?___awdiv& (0+255),w,b
  1234   00138C  6FD4               	movwf	seven_segment_write_number@number& (0+255),b
  1235   00138E  EC87  F011         	call	_seven_segment_write_number	;wreg free
  1236   001392  0E53               	movlw	low _seg_enable_3
  1237   001394  6E68               	movwf	gpio_pin_write_logic@config^0,c
  1238   001396  0E01               	movlw	1
  1239   001398  6E69               	movwf	gpio_pin_write_logic@logic_status^0,c
  1240   00139A  ECA5  F00C         	call	_gpio_pin_write_logic	;wreg free
  1241   00139E                     
  1242                           ;application.c: 88:     _delay((unsigned long)((50)*(8000000UL/4000000.0)));
  1243   00139E  0E21               	movlw	33
  1244   0013A0                     u6127:
  1245   0013A0  2EE8               	decfsz	wreg,f,c
  1246   0013A2  D7FE               	bra	u6127
  1247   0013A4  0000               	nop	
  1248   0013A6  0E53               	movlw	low _seg_enable_3
  1249   0013A8  6E68               	movwf	gpio_pin_write_logic@config^0,c
  1250   0013AA  0E00               	movlw	0
  1251   0013AC  6E69               	movwf	gpio_pin_write_logic@logic_status^0,c
  1252   0013AE  ECA5  F00C         	call	_gpio_pin_write_logic	;wreg free
  1253   0013B2  0E46               	movlw	low _seven_segment
  1254   0013B4  0100               	movlb	0	; () banked
  1255   0013B6  6FD3               	movwf	seven_segment_write_number@segment& (0+255),b
  1256   0013B8  C0D6  F0CB         	movff	seven_seg_display@__minutes,___awmod@dividend
  1257   0013BC  6BCC               	clrf	(___awmod@dividend+1)& (0+255),b
  1258   0013BE  0E00               	movlw	0
  1259   0013C0  6FCE               	movwf	(___awmod@divisor+1)& (0+255),b
  1260   0013C2  0E0A               	movlw	10
  1261   0013C4  6FCD               	movwf	___awmod@divisor& (0+255),b
  1262   0013C6  ECE6  F00F         	call	___awmod	;wreg free
  1263   0013CA  0100               	movlb	0	; () banked
  1264   0013CC  51CB               	movf	?___awmod& (0+255),w,b
  1265   0013CE  6FD4               	movwf	seven_segment_write_number@number& (0+255),b
  1266   0013D0  EC87  F011         	call	_seven_segment_write_number	;wreg free
  1267   0013D4  0E52               	movlw	low _seg_enable_4
  1268   0013D6  6E68               	movwf	gpio_pin_write_logic@config^0,c
  1269   0013D8  0E01               	movlw	1
  1270   0013DA  6E69               	movwf	gpio_pin_write_logic@logic_status^0,c
  1271   0013DC  ECA5  F00C         	call	_gpio_pin_write_logic	;wreg free
  1272   0013E0                     
  1273                           ;application.c: 92:     _delay((unsigned long)((50)*(8000000UL/4000000.0)));
  1274   0013E0  0E21               	movlw	33
  1275   0013E2                     u6137:
  1276   0013E2  2EE8               	decfsz	wreg,f,c
  1277   0013E4  D7FE               	bra	u6137
  1278   0013E6  0000               	nop	
  1279   0013E8  0E52               	movlw	low _seg_enable_4
  1280   0013EA  6E68               	movwf	gpio_pin_write_logic@config^0,c
  1281   0013EC  0E00               	movlw	0
  1282   0013EE  6E69               	movwf	gpio_pin_write_logic@logic_status^0,c
  1283   0013F0  ECA5  F00C         	call	_gpio_pin_write_logic	;wreg free
  1284   0013F4  0E46               	movlw	low _seven_segment
  1285   0013F6  0100               	movlb	0	; () banked
  1286   0013F8  6FD3               	movwf	seven_segment_write_number@segment& (0+255),b
  1287   0013FA  C0D7  F0CB         	movff	seven_seg_display@__seconds,___awdiv@dividend
  1288   0013FE  6BCC               	clrf	(___awdiv@dividend+1)& (0+255),b
  1289   001400  0E00               	movlw	0
  1290   001402  6FCE               	movwf	(___awdiv@divisor+1)& (0+255),b
  1291   001404  0E0A               	movlw	10
  1292   001406  6FCD               	movwf	___awdiv@divisor& (0+255),b
  1293   001408  ECBE  F00E         	call	___awdiv	;wreg free
  1294   00140C  0100               	movlb	0	; () banked
  1295   00140E  51CB               	movf	?___awdiv& (0+255),w,b
  1296   001410  6FD4               	movwf	seven_segment_write_number@number& (0+255),b
  1297   001412  EC87  F011         	call	_seven_segment_write_number	;wreg free
  1298   001416  0E51               	movlw	low _seg_enable_5
  1299   001418  6E68               	movwf	gpio_pin_write_logic@config^0,c
  1300   00141A  0E01               	movlw	1
  1301   00141C  6E69               	movwf	gpio_pin_write_logic@logic_status^0,c
  1302   00141E  ECA5  F00C         	call	_gpio_pin_write_logic	;wreg free
  1303   001422                     
  1304                           ;application.c: 96:     _delay((unsigned long)((50)*(8000000UL/4000000.0)));
  1305   001422  0E21               	movlw	33
  1306   001424                     u6147:
  1307   001424  2EE8               	decfsz	wreg,f,c
  1308   001426  D7FE               	bra	u6147
  1309   001428  0000               	nop	
  1310   00142A  0E51               	movlw	low _seg_enable_5
  1311   00142C  6E68               	movwf	gpio_pin_write_logic@config^0,c
  1312   00142E  0E00               	movlw	0
  1313   001430  6E69               	movwf	gpio_pin_write_logic@logic_status^0,c
  1314   001432  ECA5  F00C         	call	_gpio_pin_write_logic	;wreg free
  1315   001436  0E46               	movlw	low _seven_segment
  1316   001438  0100               	movlb	0	; () banked
  1317   00143A  6FD3               	movwf	seven_segment_write_number@segment& (0+255),b
  1318   00143C  C0D7  F0CB         	movff	seven_seg_display@__seconds,___awmod@dividend
  1319   001440  6BCC               	clrf	(___awmod@dividend+1)& (0+255),b
  1320   001442  0E00               	movlw	0
  1321   001444  6FCE               	movwf	(___awmod@divisor+1)& (0+255),b
  1322   001446  0E0A               	movlw	10
  1323   001448  6FCD               	movwf	___awmod@divisor& (0+255),b
  1324   00144A  ECE6  F00F         	call	___awmod	;wreg free
  1325   00144E  0100               	movlb	0	; () banked
  1326   001450  51CB               	movf	?___awmod& (0+255),w,b
  1327   001452  6FD4               	movwf	seven_segment_write_number@number& (0+255),b
  1328   001454  EC87  F011         	call	_seven_segment_write_number	;wreg free
  1329   001458  0E50               	movlw	low _seg_enable_6
  1330   00145A  6E68               	movwf	gpio_pin_write_logic@config^0,c
  1331   00145C  0E01               	movlw	1
  1332   00145E  6E69               	movwf	gpio_pin_write_logic@logic_status^0,c
  1333   001460  ECA5  F00C         	call	_gpio_pin_write_logic	;wreg free
  1334   001464                     
  1335                           ;application.c: 100:     _delay((unsigned long)((50)*(8000000UL/4000000.0)));
  1336   001464  0E21               	movlw	33
  1337   001466                     u6157:
  1338   001466  2EE8               	decfsz	wreg,f,c
  1339   001468  D7FE               	bra	u6157
  1340   00146A  0000               	nop	
  1341   00146C  0E50               	movlw	low _seg_enable_6
  1342   00146E  6E68               	movwf	gpio_pin_write_logic@config^0,c
  1343   001470  0E00               	movlw	0
  1344   001472  6E69               	movwf	gpio_pin_write_logic@logic_status^0,c
  1345   001474  ECA5  F00C         	call	_gpio_pin_write_logic	;wreg free
  1346   001478  0012               	return		;funcret
  1347   00147A                     __end_of_seven_seg_display:
  1348                           	callstack 0
  1349                           
  1350 ;; *************** function ___awmod *****************
  1351 ;; Defined at:
  1352 ;;		line 7 in file "C:\Program Files\Microchip\xc8\v2.46\pic\sources\c99\common\awmod.c"
  1353 ;; Parameters:    Size  Location     Type
  1354 ;;  dividend        2    0[BANK0 ] int 
  1355 ;;  divisor         2    2[BANK0 ] int 
  1356 ;; Auto vars:     Size  Location     Type
  1357 ;;  sign            1   19[COMRAM] unsigned char 
  1358 ;;  counter         1   18[COMRAM] unsigned char 
  1359 ;; Return value:  Size  Location     Type
  1360 ;;                  2    0[BANK0 ] int 
  1361 ;; Registers used:
  1362 ;;		wreg, status,2, status,0
  1363 ;; Tracked objects:
  1364 ;;		On entry : 0/0
  1365 ;;		On exit  : 0/0
  1366 ;;		Unchanged: 0/0
  1367 ;; Data sizes:     COMRAM   BANK0   BANK1   BANK2   BANK3   BANK4   BANK5   BANK6   BANK7   BANK8   BANK9  BANK10  BANK1
      +1  BANK12  BANK13  BANK14  BANK15
  1368 ;;      Params:         0       4       0       0       0       0       0       0       0       0       0       0       
      +0       0       0       0       0
  1369 ;;      Locals:         2       0       0       0       0       0       0       0       0       0       0       0       
      +0       0       0       0       0
  1370 ;;      Temps:          0       0       0       0       0       0       0       0       0       0       0       0       
      +0       0       0       0       0
  1371 ;;      Totals:         2       4       0       0       0       0       0       0       0       0       0       0       
      +0       0       0       0       0
  1372 ;;Total ram usage:        6 bytes
  1373 ;; Hardware stack levels used: 1
  1374 ;; Hardware stack levels required when called: 5
  1375 ;; This function calls:
  1376 ;;		Nothing
  1377 ;; This function is called by:
  1378 ;;		_seven_seg_display
  1379 ;;		_Set_DS1307_RTC_Time
  1380 ;;		_Set_DS1307_RTC_Date
  1381 ;; This function uses a non-reentrant model
  1382 ;;
  1383                           
  1384                           	psect	text2
  1385   001FCC                     __ptext2:
  1386                           	callstack 0
  1387   001FCC                     ___awmod:
  1388                           	callstack 24
  1389   001FCC  0E00               	movlw	0
  1390   001FCE  6E69               	movwf	___awmod@sign^0,c
  1391   001FD0  0100               	movlb	0	; () banked
  1392   001FD2  BFCC               	btfsc	(___awmod@dividend+1)& (0+255),7,b
  1393   001FD4  EFF0  F00F         	goto	u5170
  1394   001FD8  EFEE  F00F         	goto	u5171
  1395   001FDC                     u5171:
  1396   001FDC  EFF6  F00F         	goto	l5824
  1397   001FE0                     u5170:
  1398   001FE0                     
  1399                           ; BSR set to: 0
  1400   001FE0  6DCB               	negf	___awmod@dividend& (0+255),b
  1401   001FE2  1FCC               	comf	(___awmod@dividend+1)& (0+255),f,b
  1402   001FE4  B0D8               	btfsc	status,0,c
  1403   001FE6  2BCC               	incf	(___awmod@dividend+1)& (0+255),f,b
  1404   001FE8                     
  1405                           ; BSR set to: 0
  1406   001FE8  0E01               	movlw	1
  1407   001FEA  6E69               	movwf	___awmod@sign^0,c
  1408   001FEC                     l5824:
  1409                           
  1410                           ; BSR set to: 0
  1411   001FEC  BFCE               	btfsc	(___awmod@divisor+1)& (0+255),7,b
  1412   001FEE  EFFD  F00F         	goto	u5180
  1413   001FF2  EFFB  F00F         	goto	u5181
  1414   001FF6                     u5181:
  1415   001FF6  EF01  F010         	goto	l5828
  1416   001FFA                     u5180:
  1417   001FFA                     
  1418                           ; BSR set to: 0
  1419   001FFA  6DCD               	negf	___awmod@divisor& (0+255),b
  1420   001FFC  1FCE               	comf	(___awmod@divisor+1)& (0+255),f,b
  1421   001FFE  B0D8               	btfsc	status,0,c
  1422   002000  2BCE               	incf	(___awmod@divisor+1)& (0+255),f,b
  1423   002002                     l5828:
  1424                           
  1425                           ; BSR set to: 0
  1426   002002  51CD               	movf	___awmod@divisor& (0+255),w,b
  1427   002004  11CE               	iorwf	(___awmod@divisor+1)& (0+255),w,b
  1428   002006  B4D8               	btfsc	status,2,c
  1429   002008  EF08  F010         	goto	u5191
  1430   00200C  EF0A  F010         	goto	u5190
  1431   002010                     u5191:
  1432   002010  EF2E  F010         	goto	l5844
  1433   002014                     u5190:
  1434   002014                     
  1435                           ; BSR set to: 0
  1436   002014  0E01               	movlw	1
  1437   002016  6E68               	movwf	___awmod@counter^0,c
  1438   002018  EF12  F010         	goto	l5834
  1439   00201C                     l5832:
  1440                           
  1441                           ; BSR set to: 0
  1442   00201C  90D8               	bcf	status,0,c
  1443   00201E  37CD               	rlcf	___awmod@divisor& (0+255),f,b
  1444   002020  37CE               	rlcf	(___awmod@divisor+1)& (0+255),f,b
  1445   002022  2A68               	incf	___awmod@counter^0,f,c
  1446   002024                     l5834:
  1447                           
  1448                           ; BSR set to: 0
  1449   002024  AFCE               	btfss	(___awmod@divisor+1)& (0+255),7,b
  1450   002026  EF17  F010         	goto	u5201
  1451   00202A  EF19  F010         	goto	u5200
  1452   00202E                     u5201:
  1453   00202E  EF0E  F010         	goto	l5832
  1454   002032                     u5200:
  1455   002032                     l5836:
  1456                           
  1457                           ; BSR set to: 0
  1458   002032  51CD               	movf	___awmod@divisor& (0+255),w,b
  1459   002034  5DCB               	subwf	___awmod@dividend& (0+255),w,b
  1460   002036  51CE               	movf	(___awmod@divisor+1)& (0+255),w,b
  1461   002038  59CC               	subwfb	(___awmod@dividend+1)& (0+255),w,b
  1462   00203A  A0D8               	btfss	status,0,c
  1463   00203C  EF22  F010         	goto	u5211
  1464   002040  EF24  F010         	goto	u5210
  1465   002044                     u5211:
  1466   002044  EF28  F010         	goto	l5840
  1467   002048                     u5210:
  1468   002048                     
  1469                           ; BSR set to: 0
  1470   002048  51CD               	movf	___awmod@divisor& (0+255),w,b
  1471   00204A  5FCB               	subwf	___awmod@dividend& (0+255),f,b
  1472   00204C  51CE               	movf	(___awmod@divisor+1)& (0+255),w,b
  1473   00204E  5BCC               	subwfb	(___awmod@dividend+1)& (0+255),f,b
  1474   002050                     l5840:
  1475                           
  1476                           ; BSR set to: 0
  1477   002050  90D8               	bcf	status,0,c
  1478   002052  33CE               	rrcf	(___awmod@divisor+1)& (0+255),f,b
  1479   002054  33CD               	rrcf	___awmod@divisor& (0+255),f,b
  1480   002056                     
  1481                           ; BSR set to: 0
  1482   002056  2E68               	decfsz	___awmod@counter^0,f,c
  1483   002058  EF19  F010         	goto	l5836
  1484   00205C                     l5844:
  1485                           
  1486                           ; BSR set to: 0
  1487   00205C  5069               	movf	___awmod@sign^0,w,c
  1488   00205E  B4D8               	btfsc	status,2,c
  1489   002060  EF34  F010         	goto	u5221
  1490   002064  EF36  F010         	goto	u5220
  1491   002068                     u5221:
  1492   002068  EF3A  F010         	goto	l5848
  1493   00206C                     u5220:
  1494   00206C                     
  1495                           ; BSR set to: 0
  1496   00206C  6DCB               	negf	___awmod@dividend& (0+255),b
  1497   00206E  1FCC               	comf	(___awmod@dividend+1)& (0+255),f,b
  1498   002070  B0D8               	btfsc	status,0,c
  1499   002072  2BCC               	incf	(___awmod@dividend+1)& (0+255),f,b
  1500   002074                     l5848:
  1501                           
  1502                           ; BSR set to: 0
  1503   002074  C0CB  F0CB         	movff	___awmod@dividend,?___awmod
  1504   002078  C0CC  F0CC         	movff	___awmod@dividend+1,?___awmod+1
  1505   00207C                     
  1506                           ; BSR set to: 0
  1507   00207C  0012               	return		;funcret
  1508   00207E                     __end_of___awmod:
  1509                           	callstack 0
  1510                           
  1511 ;; *************** function ___awdiv *****************
  1512 ;; Defined at:
  1513 ;;		line 7 in file "C:\Program Files\Microchip\xc8\v2.46\pic\sources\c99\common\awdiv.c"
  1514 ;; Parameters:    Size  Location     Type
  1515 ;;  dividend        2    0[BANK0 ] int 
  1516 ;;  divisor         2    2[BANK0 ] int 
  1517 ;; Auto vars:     Size  Location     Type
  1518 ;;  quotient        2    6[BANK0 ] int 
  1519 ;;  sign            1    5[BANK0 ] unsigned char 
  1520 ;;  counter         1    4[BANK0 ] unsigned char 
  1521 ;; Return value:  Size  Location     Type
  1522 ;;                  2    0[BANK0 ] int 
  1523 ;; Registers used:
  1524 ;;		wreg, status,2, status,0
  1525 ;; Tracked objects:
  1526 ;;		On entry : 0/0
  1527 ;;		On exit  : 0/0
  1528 ;;		Unchanged: 0/0
  1529 ;; Data sizes:     COMRAM   BANK0   BANK1   BANK2   BANK3   BANK4   BANK5   BANK6   BANK7   BANK8   BANK9  BANK10  BANK1
      +1  BANK12  BANK13  BANK14  BANK15
  1530 ;;      Params:         0       4       0       0       0       0       0       0       0       0       0       0       
      +0       0       0       0       0
  1531 ;;      Locals:         0       4       0       0       0       0       0       0       0       0       0       0       
      +0       0       0       0       0
  1532 ;;      Temps:          0       0       0       0       0       0       0       0       0       0       0       0       
      +0       0       0       0       0
  1533 ;;      Totals:         0       8       0       0       0       0       0       0       0       0       0       0       
      +0       0       0       0       0
  1534 ;;Total ram usage:        8 bytes
  1535 ;; Hardware stack levels used: 1
  1536 ;; Hardware stack levels required when called: 5
  1537 ;; This function calls:
  1538 ;;		Nothing
  1539 ;; This function is called by:
  1540 ;;		_seven_seg_display
  1541 ;;		_Set_DS1307_RTC_Time
  1542 ;;		_Set_DS1307_RTC_Date
  1543 ;; This function uses a non-reentrant model
  1544 ;;
  1545                           
  1546                           	psect	text3
  1547   001D7C                     __ptext3:
  1548                           	callstack 0
  1549   001D7C                     ___awdiv:
  1550                           	callstack 24
  1551   001D7C  0E00               	movlw	0
  1552   001D7E  0100               	movlb	0	; () banked
  1553   001D80  6FD0               	movwf	___awdiv@sign& (0+255),b
  1554   001D82                     
  1555                           ; BSR set to: 0
  1556   001D82  BFCE               	btfsc	(___awdiv@divisor+1)& (0+255),7,b
  1557   001D84  EFC8  F00E         	goto	u5110
  1558   001D88  EFC6  F00E         	goto	u5111
  1559   001D8C                     u5111:
  1560   001D8C  EFCE  F00E         	goto	l5780
  1561   001D90                     u5110:
  1562   001D90                     
  1563                           ; BSR set to: 0
  1564   001D90  6DCD               	negf	___awdiv@divisor& (0+255),b
  1565   001D92  1FCE               	comf	(___awdiv@divisor+1)& (0+255),f,b
  1566   001D94  B0D8               	btfsc	status,0,c
  1567   001D96  2BCE               	incf	(___awdiv@divisor+1)& (0+255),f,b
  1568   001D98                     
  1569                           ; BSR set to: 0
  1570   001D98  0E01               	movlw	1
  1571   001D9A  6FD0               	movwf	___awdiv@sign& (0+255),b
  1572   001D9C                     l5780:
  1573                           
  1574                           ; BSR set to: 0
  1575   001D9C  BFCC               	btfsc	(___awdiv@dividend+1)& (0+255),7,b
  1576   001D9E  EFD5  F00E         	goto	u5120
  1577   001DA2  EFD3  F00E         	goto	u5121
  1578   001DA6                     u5121:
  1579   001DA6  EFDB  F00E         	goto	l5786
  1580   001DAA                     u5120:
  1581   001DAA                     
  1582                           ; BSR set to: 0
  1583   001DAA  6DCB               	negf	___awdiv@dividend& (0+255),b
  1584   001DAC  1FCC               	comf	(___awdiv@dividend+1)& (0+255),f,b
  1585   001DAE  B0D8               	btfsc	status,0,c
  1586   001DB0  2BCC               	incf	(___awdiv@dividend+1)& (0+255),f,b
  1587   001DB2                     
  1588                           ; BSR set to: 0
  1589   001DB2  0E01               	movlw	1
  1590   001DB4  1BD0               	xorwf	___awdiv@sign& (0+255),f,b
  1591   001DB6                     l5786:
  1592                           
  1593                           ; BSR set to: 0
  1594   001DB6  0E00               	movlw	0
  1595   001DB8  6FD2               	movwf	(___awdiv@quotient+1)& (0+255),b
  1596   001DBA  0E00               	movlw	0
  1597   001DBC  6FD1               	movwf	___awdiv@quotient& (0+255),b
  1598   001DBE                     
  1599                           ; BSR set to: 0
  1600   001DBE  51CD               	movf	___awdiv@divisor& (0+255),w,b
  1601   001DC0  11CE               	iorwf	(___awdiv@divisor+1)& (0+255),w,b
  1602   001DC2  B4D8               	btfsc	status,2,c
  1603   001DC4  EFE6  F00E         	goto	u5131
  1604   001DC8  EFE8  F00E         	goto	u5130
  1605   001DCC                     u5131:
  1606   001DCC  EF10  F00F         	goto	l5808
  1607   001DD0                     u5130:
  1608   001DD0                     
  1609                           ; BSR set to: 0
  1610   001DD0  0E01               	movlw	1
  1611   001DD2  6FCF               	movwf	___awdiv@counter& (0+255),b
  1612   001DD4  EFF0  F00E         	goto	l5794
  1613   001DD8                     l5792:
  1614                           
  1615                           ; BSR set to: 0
  1616   001DD8  90D8               	bcf	status,0,c
  1617   001DDA  37CD               	rlcf	___awdiv@divisor& (0+255),f,b
  1618   001DDC  37CE               	rlcf	(___awdiv@divisor+1)& (0+255),f,b
  1619   001DDE  2BCF               	incf	___awdiv@counter& (0+255),f,b
  1620   001DE0                     l5794:
  1621                           
  1622                           ; BSR set to: 0
  1623   001DE0  AFCE               	btfss	(___awdiv@divisor+1)& (0+255),7,b
  1624   001DE2  EFF5  F00E         	goto	u5141
  1625   001DE6  EFF7  F00E         	goto	u5140
  1626   001DEA                     u5141:
  1627   001DEA  EFEC  F00E         	goto	l5792
  1628   001DEE                     u5140:
  1629   001DEE                     l5796:
  1630                           
  1631                           ; BSR set to: 0
  1632   001DEE  90D8               	bcf	status,0,c
  1633   001DF0  37D1               	rlcf	___awdiv@quotient& (0+255),f,b
  1634   001DF2  37D2               	rlcf	(___awdiv@quotient+1)& (0+255),f,b
  1635   001DF4                     
  1636                           ; BSR set to: 0
  1637   001DF4  51CD               	movf	___awdiv@divisor& (0+255),w,b
  1638   001DF6  5DCB               	subwf	___awdiv@dividend& (0+255),w,b
  1639   001DF8  51CE               	movf	(___awdiv@divisor+1)& (0+255),w,b
  1640   001DFA  59CC               	subwfb	(___awdiv@dividend+1)& (0+255),w,b
  1641   001DFC  A0D8               	btfss	status,0,c
  1642   001DFE  EF03  F00F         	goto	u5151
  1643   001E02  EF05  F00F         	goto	u5150
  1644   001E06                     u5151:
  1645   001E06  EF0A  F00F         	goto	l5804
  1646   001E0A                     u5150:
  1647   001E0A                     
  1648                           ; BSR set to: 0
  1649   001E0A  51CD               	movf	___awdiv@divisor& (0+255),w,b
  1650   001E0C  5FCB               	subwf	___awdiv@dividend& (0+255),f,b
  1651   001E0E  51CE               	movf	(___awdiv@divisor+1)& (0+255),w,b
  1652   001E10  5BCC               	subwfb	(___awdiv@dividend+1)& (0+255),f,b
  1653   001E12                     
  1654                           ; BSR set to: 0
  1655   001E12  81D1               	bsf	___awdiv@quotient& (0+255),0,b
  1656   001E14                     l5804:
  1657                           
  1658                           ; BSR set to: 0
  1659   001E14  90D8               	bcf	status,0,c
  1660   001E16  33CE               	rrcf	(___awdiv@divisor+1)& (0+255),f,b
  1661   001E18  33CD               	rrcf	___awdiv@divisor& (0+255),f,b
  1662   001E1A                     
  1663                           ; BSR set to: 0
  1664   001E1A  2FCF               	decfsz	___awdiv@counter& (0+255),f,b
  1665   001E1C  EFF7  F00E         	goto	l5796
  1666   001E20                     l5808:
  1667                           
  1668                           ; BSR set to: 0
  1669   001E20  51D0               	movf	___awdiv@sign& (0+255),w,b
  1670   001E22  B4D8               	btfsc	status,2,c
  1671   001E24  EF16  F00F         	goto	u5161
  1672   001E28  EF18  F00F         	goto	u5160
  1673   001E2C                     u5161:
  1674   001E2C  EF1C  F00F         	goto	l5812
  1675   001E30                     u5160:
  1676   001E30                     
  1677                           ; BSR set to: 0
  1678   001E30  6DD1               	negf	___awdiv@quotient& (0+255),b
  1679   001E32  1FD2               	comf	(___awdiv@quotient+1)& (0+255),f,b
  1680   001E34  B0D8               	btfsc	status,0,c
  1681   001E36  2BD2               	incf	(___awdiv@quotient+1)& (0+255),f,b
  1682   001E38                     l5812:
  1683                           
  1684                           ; BSR set to: 0
  1685   001E38  C0D1  F0CB         	movff	___awdiv@quotient,?___awdiv
  1686   001E3C  C0D2  F0CC         	movff	___awdiv@quotient+1,?___awdiv+1
  1687   001E40                     
  1688                           ; BSR set to: 0
  1689   001E40  0012               	return		;funcret
  1690   001E42                     __end_of___awdiv:
  1691                           	callstack 0
  1692                           
  1693 ;; *************** function _set_alarm *****************
  1694 ;; Defined at:
  1695 ;;		line 104 in file "application.c"
  1696 ;; Parameters:    Size  Location     Type
  1697 ;;		None
  1698 ;; Auto vars:     Size  Location     Type
  1699 ;;  retVal          1    0        unsigned char 
  1700 ;; Return value:  Size  Location     Type
  1701 ;;                  1    wreg      void 
  1702 ;; Registers used:
  1703 ;;		wreg, fsr1l, fsr1h, fsr2l, fsr2h, status,2, status,0, tblptrl, tblptrh, tblptru, prodl, prodh, cstack
  1704 ;; Tracked objects:
  1705 ;;		On entry : 0/0
  1706 ;;		On exit  : 0/0
  1707 ;;		Unchanged: 0/0
  1708 ;; Data sizes:     COMRAM   BANK0   BANK1   BANK2   BANK3   BANK4   BANK5   BANK6   BANK7   BANK8   BANK9  BANK10  BANK1
      +1  BANK12  BANK13  BANK14  BANK15
  1709 ;;      Params:         0       0       0       0       0       0       0       0       0       0       0       0       
      +0       0       0       0       0
  1710 ;;      Locals:         0       0       0       0       0       0       0       0       0       0       0       0       
      +0       0       0       0       0
  1711 ;;      Temps:          0       0       0       0       0       0       0       0       0       0       0       0       
      +0       0       0       0       0
  1712 ;;      Totals:         0       0       0       0       0       0       0       0       0       0       0       0       
      +0       0       0       0       0
  1713 ;;Total ram usage:        0 bytes
  1714 ;; Hardware stack levels used: 1
  1715 ;; Hardware stack levels required when called: 8
  1716 ;; This function calls:
  1717 ;;		_hours_display
  1718 ;;		_keypad_get_value
  1719 ;;		_minutes_display
  1720 ;;		_seconds_display
  1721 ;; This function is called by:
  1722 ;;		_main
  1723 ;; This function uses a non-reentrant model
  1724 ;;
  1725                           
  1726                           	psect	text4
  1727   0015D6                     __ptext4:
  1728                           	callstack 0
  1729   0015D6                     _set_alarm:
  1730                           	callstack 22
  1731   0015D6                     l5938:
  1732   0015D6  0E9E               	movlw	low _keypad
  1733   0015D8  0100               	movlb	0	; () banked
  1734   0015DA  6FD0               	movwf	keypad_get_value@pad& (0+255),b
  1735   0015DC  0E39               	movlw	low _keypad_value
  1736   0015DE  6FD1               	movwf	keypad_get_value@value& (0+255),b
  1737   0015E0  EC41  F00E         	call	_keypad_get_value	;wreg free
  1738   0015E4                     
  1739                           ;application.c: 110:                 }while(keypad_value == '\0');
  1740   0015E4  5039               	movf	_keypad_value^0,w,c	;volatile
  1741   0015E6  B4D8               	btfsc	status,2,c
  1742   0015E8  EFF8  F00A         	goto	u5451
  1743   0015EC  EFFA  F00A         	goto	u5450
  1744   0015F0                     u5451:
  1745   0015F0  EFEB  F00A         	goto	l5938
  1746   0015F4                     u5450:
  1747   0015F4                     
  1748                           ;application.c: 111:                 hours_input[counter1] = keypad_value;
  1749   0015F4  5024               	movf	_counter1^0,w,c
  1750   0015F6  0F05               	addlw	low _hours_input
  1751   0015F8  6ED9               	movwf	fsr2l,c
  1752   0015FA  6ADA               	clrf	fsr2h,c
  1753   0015FC  C039  FFDF         	movff	_keypad_value,indf2	;volatile
  1754   001600                     
  1755                           ;application.c: 112:                 counter1++;
  1756   001600  2A24               	incf	_counter1^0,f,c
  1757   001602                     
  1758                           ;application.c: 114:                 if(counter1 == 2){
  1759   001602  0E02               	movlw	2
  1760   001604  1824               	xorwf	_counter1^0,w,c
  1761   001606  A4D8               	btfss	status,2,c
  1762   001608  EF08  F00B         	goto	u5461
  1763   00160C  EF0A  F00B         	goto	u5460
  1764   001610                     u5461:
  1765   001610  EF0E  F00B         	goto	l5950
  1766   001614                     u5460:
  1767   001614                     
  1768                           ;application.c: 115:                     keypad_value = '\0';
  1769   001614  0E00               	movlw	0
  1770   001616  6E39               	movwf	_keypad_value^0,c	;volatile
  1771                           
  1772                           ;application.c: 116:                     break;
  1773   001618  EF12  F00B         	goto	l5952
  1774   00161C                     l5950:
  1775                           
  1776                           ;application.c: 118:                 keypad_value = '\0';
  1777   00161C  0E00               	movlw	0
  1778   00161E  6E39               	movwf	_keypad_value^0,c	;volatile
  1779   001620  EFEB  F00A         	goto	l5938
  1780   001624                     l5952:
  1781                           
  1782                           ;application.c: 120:         hours_display();
  1783   001624  ECCD  F015         	call	_hours_display	;wreg free
  1784                           
  1785                           ;application.c: 121:         hours_display();
  1786   001628  ECCD  F015         	call	_hours_display	;wreg free
  1787                           
  1788                           ;application.c: 122:         hours_display();
  1789   00162C  ECCD  F015         	call	_hours_display	;wreg free
  1790   001630                     l5954:
  1791   001630  0E9E               	movlw	low _keypad
  1792   001632  0100               	movlb	0	; () banked
  1793   001634  6FD0               	movwf	keypad_get_value@pad& (0+255),b
  1794   001636  0E39               	movlw	low _keypad_value
  1795   001638  6FD1               	movwf	keypad_get_value@value& (0+255),b
  1796   00163A  EC41  F00E         	call	_keypad_get_value	;wreg free
  1797   00163E                     
  1798                           ;application.c: 128:                 }while(keypad_value == '\0');
  1799   00163E  5039               	movf	_keypad_value^0,w,c	;volatile
  1800   001640  B4D8               	btfsc	status,2,c
  1801   001642  EF25  F00B         	goto	u5471
  1802   001646  EF27  F00B         	goto	u5470
  1803   00164A                     u5471:
  1804   00164A  EF18  F00B         	goto	l5954
  1805   00164E                     u5470:
  1806   00164E                     
  1807                           ;application.c: 129:                 minutes_input[counter2] = keypad_value;
  1808   00164E  5023               	movf	_counter2^0,w,c
  1809   001650  0F03               	addlw	low _minutes_input
  1810   001652  6ED9               	movwf	fsr2l,c
  1811   001654  6ADA               	clrf	fsr2h,c
  1812   001656  C039  FFDF         	movff	_keypad_value,indf2	;volatile
  1813   00165A                     
  1814                           ;application.c: 130:                 counter2++;
  1815   00165A  2A23               	incf	_counter2^0,f,c
  1816   00165C                     
  1817                           ;application.c: 132:                 if(counter2 == 2){
  1818   00165C  0E02               	movlw	2
  1819   00165E  1823               	xorwf	_counter2^0,w,c
  1820   001660  A4D8               	btfss	status,2,c
  1821   001662  EF35  F00B         	goto	u5481
  1822   001666  EF37  F00B         	goto	u5480
  1823   00166A                     u5481:
  1824   00166A  EF3B  F00B         	goto	l5966
  1825   00166E                     u5480:
  1826   00166E                     
  1827                           ;application.c: 133:                     keypad_value = '\0';
  1828   00166E  0E00               	movlw	0
  1829   001670  6E39               	movwf	_keypad_value^0,c	;volatile
  1830                           
  1831                           ;application.c: 134:                     break;
  1832   001672  EF3F  F00B         	goto	l5968
  1833   001676                     l5966:
  1834                           
  1835                           ;application.c: 136:                 keypad_value = '\0';
  1836   001676  0E00               	movlw	0
  1837   001678  6E39               	movwf	_keypad_value^0,c	;volatile
  1838   00167A  EF18  F00B         	goto	l5954
  1839   00167E                     l5968:
  1840                           
  1841                           ;application.c: 138:         minutes_display();
  1842   00167E  EC40  F015         	call	_minutes_display	;wreg free
  1843                           
  1844                           ;application.c: 139:         minutes_display();
  1845   001682  EC40  F015         	call	_minutes_display	;wreg free
  1846                           
  1847                           ;application.c: 140:         minutes_display();
  1848   001686  EC40  F015         	call	_minutes_display	;wreg free
  1849   00168A                     l5970:
  1850   00168A  0E9E               	movlw	low _keypad
  1851   00168C  0100               	movlb	0	; () banked
  1852   00168E  6FD0               	movwf	keypad_get_value@pad& (0+255),b
  1853   001690  0E39               	movlw	low _keypad_value
  1854   001692  6FD1               	movwf	keypad_get_value@value& (0+255),b
  1855   001694  EC41  F00E         	call	_keypad_get_value	;wreg free
  1856   001698                     
  1857                           ;application.c: 146:                 }while(keypad_value == '\0');
  1858   001698  5039               	movf	_keypad_value^0,w,c	;volatile
  1859   00169A  B4D8               	btfsc	status,2,c
  1860   00169C  EF52  F00B         	goto	u5491
  1861   0016A0  EF54  F00B         	goto	u5490
  1862   0016A4                     u5491:
  1863   0016A4  EF45  F00B         	goto	l5970
  1864   0016A8                     u5490:
  1865   0016A8                     
  1866                           ;application.c: 147:                 seconds_input[counter3] = keypad_value;
  1867   0016A8  5022               	movf	_counter3^0,w,c
  1868   0016AA  0F01               	addlw	low _seconds_input
  1869   0016AC  6ED9               	movwf	fsr2l,c
  1870   0016AE  6ADA               	clrf	fsr2h,c
  1871   0016B0  C039  FFDF         	movff	_keypad_value,indf2	;volatile
  1872   0016B4                     
  1873                           ;application.c: 148:                 counter3++;
  1874   0016B4  2A22               	incf	_counter3^0,f,c
  1875   0016B6                     
  1876                           ;application.c: 150:                 if(counter3 == 2){
  1877   0016B6  0E02               	movlw	2
  1878   0016B8  1822               	xorwf	_counter3^0,w,c
  1879   0016BA  A4D8               	btfss	status,2,c
  1880   0016BC  EF62  F00B         	goto	u5501
  1881   0016C0  EF64  F00B         	goto	u5500
  1882   0016C4                     u5501:
  1883   0016C4  EF68  F00B         	goto	l5982
  1884   0016C8                     u5500:
  1885   0016C8                     
  1886                           ;application.c: 151:                     keypad_value = '\0';
  1887   0016C8  0E00               	movlw	0
  1888   0016CA  6E39               	movwf	_keypad_value^0,c	;volatile
  1889                           
  1890                           ;application.c: 152:                     break;
  1891   0016CC  EF6C  F00B         	goto	l5984
  1892   0016D0                     l5982:
  1893                           
  1894                           ;application.c: 154:                 keypad_value = '\0';
  1895   0016D0  0E00               	movlw	0
  1896   0016D2  6E39               	movwf	_keypad_value^0,c	;volatile
  1897   0016D4  EF45  F00B         	goto	l5970
  1898   0016D8                     l5984:
  1899                           
  1900                           ;application.c: 156:         seconds_display();
  1901   0016D8  EC6D  F014         	call	_seconds_display	;wreg free
  1902                           
  1903                           ;application.c: 157:         seconds_display();
  1904   0016DC  EC6D  F014         	call	_seconds_display	;wreg free
  1905                           
  1906                           ;application.c: 158:         seconds_display();
  1907   0016E0  EC6D  F014         	call	_seconds_display	;wreg free
  1908   0016E4                     
  1909                           ;application.c: 159:         alarm_hours = (hours_input[0] - 48) * 10 + (hours_input[1] 
      +                          - 48);
  1910   0016E4  5005               	movf	_hours_input^0,w,c
  1911   0016E6  0D0A               	mullw	10
  1912   0016E8  50F3               	movf	243,w,c
  1913   0016EA  2406               	addwf	(_hours_input+1)^0,w,c
  1914   0016EC  0FF0               	addlw	240
  1915   0016EE  6E2A               	movwf	_alarm_hours^0,c	;volatile
  1916   0016F0                     
  1917                           ;application.c: 160:         alarm_minutes = (minutes_input[0] - 48) * 10 + (minutes_inp
      +                          ut[1] - 48);
  1918   0016F0  5003               	movf	_minutes_input^0,w,c
  1919   0016F2  0D0A               	mullw	10
  1920   0016F4  50F3               	movf	243,w,c
  1921   0016F6  2404               	addwf	(_minutes_input+1)^0,w,c
  1922   0016F8  0FF0               	addlw	240
  1923   0016FA  6E29               	movwf	_alarm_minutes^0,c	;volatile
  1924   0016FC                     
  1925                           ;application.c: 161:         alarm_seconds = (seconds_input[0] - 48) * 10 + (seconds_inp
      +                          ut[1] - 48);
  1926   0016FC  5001               	movf	_seconds_input^0,w,c
  1927   0016FE  0D0A               	mullw	10
  1928   001700  50F3               	movf	243,w,c
  1929   001702  2402               	addwf	(_seconds_input+1)^0,w,c
  1930   001704  0FF0               	addlw	240
  1931   001706  6E28               	movwf	_alarm_seconds^0,c	;volatile
  1932   001708                     
  1933                           ;application.c: 162:         mode_status = 4;
  1934   001708  0E04               	movlw	4
  1935   00170A  6E40               	movwf	_mode_status^0,c	;volatile
  1936   00170C  0012               	return		;funcret
  1937   00170E                     __end_of_set_alarm:
  1938                           	callstack 0
  1939                           
  1940 ;; *************** function _seconds_display *****************
  1941 ;; Defined at:
  1942 ;;		line 292 in file "application.c"
  1943 ;; Parameters:    Size  Location     Type
  1944 ;;		None
  1945 ;; Auto vars:     Size  Location     Type
  1946 ;;  retVal          1    0        unsigned char 
  1947 ;; Return value:  Size  Location     Type
  1948 ;;                  1    wreg      void 
  1949 ;; Registers used:
  1950 ;;		wreg, fsr2l, fsr2h, status,2, status,0, prodl, prodh, cstack
  1951 ;; Tracked objects:
  1952 ;;		On entry : 0/0
  1953 ;;		On exit  : 0/0
  1954 ;;		Unchanged: 0/0
  1955 ;; Data sizes:     COMRAM   BANK0   BANK1   BANK2   BANK3   BANK4   BANK5   BANK6   BANK7   BANK8   BANK9  BANK10  BANK1
      +1  BANK12  BANK13  BANK14  BANK15
  1956 ;;      Params:         0       0       0       0       0       0       0       0       0       0       0       0       
      +0       0       0       0       0
  1957 ;;      Locals:         0       0       0       0       0       0       0       0       0       0       0       0       
      +0       0       0       0       0
  1958 ;;      Temps:          0       0       0       0       0       0       0       0       0       0       0       0       
      +0       0       0       0       0
  1959 ;;      Totals:         0       0       0       0       0       0       0       0       0       0       0       0       
      +0       0       0       0       0
  1960 ;;Total ram usage:        0 bytes
  1961 ;; Hardware stack levels used: 1
  1962 ;; Hardware stack levels required when called: 7
  1963 ;; This function calls:
  1964 ;;		_gpio_pin_write_logic
  1965 ;;		_seven_segment_write_number
  1966 ;; This function is called by:
  1967 ;;		_set_alarm
  1968 ;; This function uses a non-reentrant model
  1969 ;;
  1970                           
  1971                           	psect	text5
  1972   0028DA                     __ptext5:
  1973                           	callstack 0
  1974   0028DA                     _seconds_display:
  1975                           	callstack 22
  1976   0028DA  0E52               	movlw	low _seg_enable_4
  1977   0028DC  6E68               	movwf	gpio_pin_write_logic@config^0,c
  1978   0028DE  0E00               	movlw	0
  1979   0028E0  6E69               	movwf	gpio_pin_write_logic@logic_status^0,c
  1980   0028E2  ECA5  F00C         	call	_gpio_pin_write_logic	;wreg free
  1981   0028E6  0E46               	movlw	low _seven_segment
  1982   0028E8  0100               	movlb	0	; () banked
  1983   0028EA  6FD3               	movwf	seven_segment_write_number@segment& (0+255),b
  1984   0028EC  5001               	movf	_seconds_input^0,w,c
  1985   0028EE  0FD0               	addlw	208
  1986   0028F0  6FD4               	movwf	seven_segment_write_number@number& (0+255),b
  1987   0028F2  EC87  F011         	call	_seven_segment_write_number	;wreg free
  1988   0028F6  0E51               	movlw	low _seg_enable_5
  1989   0028F8  6E68               	movwf	gpio_pin_write_logic@config^0,c
  1990   0028FA  0E01               	movlw	1
  1991   0028FC  6E69               	movwf	gpio_pin_write_logic@logic_status^0,c
  1992   0028FE  ECA5  F00C         	call	_gpio_pin_write_logic	;wreg free
  1993   002902                     
  1994                           ;application.c: 297:     _delay((unsigned long)((50)*(8000000UL/4000000.0)));
  1995   002902  0E21               	movlw	33
  1996   002904                     u6167:
  1997   002904  2EE8               	decfsz	wreg,f,c
  1998   002906  D7FE               	bra	u6167
  1999   002908  0000               	nop	
  2000   00290A  0E51               	movlw	low _seg_enable_5
  2001   00290C  6E68               	movwf	gpio_pin_write_logic@config^0,c
  2002   00290E  0E00               	movlw	0
  2003   002910  6E69               	movwf	gpio_pin_write_logic@logic_status^0,c
  2004   002912  ECA5  F00C         	call	_gpio_pin_write_logic	;wreg free
  2005   002916  0E46               	movlw	low _seven_segment
  2006   002918  0100               	movlb	0	; () banked
  2007   00291A  6FD3               	movwf	seven_segment_write_number@segment& (0+255),b
  2008   00291C  5002               	movf	(_seconds_input+1)^0,w,c
  2009   00291E  0FD0               	addlw	208
  2010   002920  6FD4               	movwf	seven_segment_write_number@number& (0+255),b
  2011   002922  EC87  F011         	call	_seven_segment_write_number	;wreg free
  2012   002926  0E50               	movlw	low _seg_enable_6
  2013   002928  6E68               	movwf	gpio_pin_write_logic@config^0,c
  2014   00292A  0E01               	movlw	1
  2015   00292C  6E69               	movwf	gpio_pin_write_logic@logic_status^0,c
  2016   00292E  ECA5  F00C         	call	_gpio_pin_write_logic	;wreg free
  2017   002932                     
  2018                           ;application.c: 301:     _delay((unsigned long)((50)*(8000000UL/4000000.0)));
  2019   002932  0E21               	movlw	33
  2020   002934                     u6177:
  2021   002934  2EE8               	decfsz	wreg,f,c
  2022   002936  D7FE               	bra	u6177
  2023   002938  0000               	nop	
  2024   00293A  0E50               	movlw	low _seg_enable_6
  2025   00293C  6E68               	movwf	gpio_pin_write_logic@config^0,c
  2026   00293E  0E00               	movlw	0
  2027   002940  6E69               	movwf	gpio_pin_write_logic@logic_status^0,c
  2028   002942  ECA5  F00C         	call	_gpio_pin_write_logic	;wreg free
  2029   002946  0012               	return		;funcret
  2030   002948                     __end_of_seconds_display:
  2031                           	callstack 0
  2032                           
  2033 ;; *************** function _minutes_display *****************
  2034 ;; Defined at:
  2035 ;;		line 281 in file "application.c"
  2036 ;; Parameters:    Size  Location     Type
  2037 ;;		None
  2038 ;; Auto vars:     Size  Location     Type
  2039 ;;  retVal          1    0        unsigned char 
  2040 ;; Return value:  Size  Location     Type
  2041 ;;                  1    wreg      void 
  2042 ;; Registers used:
  2043 ;;		wreg, fsr2l, fsr2h, status,2, status,0, prodl, prodh, cstack
  2044 ;; Tracked objects:
  2045 ;;		On entry : 0/0
  2046 ;;		On exit  : 0/0
  2047 ;;		Unchanged: 0/0
  2048 ;; Data sizes:     COMRAM   BANK0   BANK1   BANK2   BANK3   BANK4   BANK5   BANK6   BANK7   BANK8   BANK9  BANK10  BANK1
      +1  BANK12  BANK13  BANK14  BANK15
  2049 ;;      Params:         0       0       0       0       0       0       0       0       0       0       0       0       
      +0       0       0       0       0
  2050 ;;      Locals:         0       0       0       0       0       0       0       0       0       0       0       0       
      +0       0       0       0       0
  2051 ;;      Temps:          0       0       0       0       0       0       0       0       0       0       0       0       
      +0       0       0       0       0
  2052 ;;      Totals:         0       0       0       0       0       0       0       0       0       0       0       0       
      +0       0       0       0       0
  2053 ;;Total ram usage:        0 bytes
  2054 ;; Hardware stack levels used: 1
  2055 ;; Hardware stack levels required when called: 7
  2056 ;; This function calls:
  2057 ;;		_gpio_pin_write_logic
  2058 ;;		_seven_segment_write_number
  2059 ;; This function is called by:
  2060 ;;		_set_alarm
  2061 ;; This function uses a non-reentrant model
  2062 ;;
  2063                           
  2064                           	psect	text6
  2065   002A80                     __ptext6:
  2066                           	callstack 0
  2067   002A80                     _minutes_display:
  2068                           	callstack 22
  2069   002A80  0E54               	movlw	low _seg_enable_2
  2070   002A82  6E68               	movwf	gpio_pin_write_logic@config^0,c
  2071   002A84  0E00               	movlw	0
  2072   002A86  6E69               	movwf	gpio_pin_write_logic@logic_status^0,c
  2073   002A88  ECA5  F00C         	call	_gpio_pin_write_logic	;wreg free
  2074   002A8C  0E46               	movlw	low _seven_segment
  2075   002A8E  0100               	movlb	0	; () banked
  2076   002A90  6FD3               	movwf	seven_segment_write_number@segment& (0+255),b
  2077   002A92  5003               	movf	_minutes_input^0,w,c
  2078   002A94  0FD0               	addlw	208
  2079   002A96  6FD4               	movwf	seven_segment_write_number@number& (0+255),b
  2080   002A98  EC87  F011         	call	_seven_segment_write_number	;wreg free
  2081   002A9C  0E53               	movlw	low _seg_enable_3
  2082   002A9E  6E68               	movwf	gpio_pin_write_logic@config^0,c
  2083   002AA0  0E01               	movlw	1
  2084   002AA2  6E69               	movwf	gpio_pin_write_logic@logic_status^0,c
  2085   002AA4  ECA5  F00C         	call	_gpio_pin_write_logic	;wreg free
  2086   002AA8                     
  2087                           ;application.c: 286:     _delay((unsigned long)((50)*(8000000UL/4000000.0)));
  2088   002AA8  0E21               	movlw	33
  2089   002AAA                     u6187:
  2090   002AAA  2EE8               	decfsz	wreg,f,c
  2091   002AAC  D7FE               	bra	u6187
  2092   002AAE  0000               	nop	
  2093   002AB0  0E53               	movlw	low _seg_enable_3
  2094   002AB2  6E68               	movwf	gpio_pin_write_logic@config^0,c
  2095   002AB4  0E00               	movlw	0
  2096   002AB6  6E69               	movwf	gpio_pin_write_logic@logic_status^0,c
  2097   002AB8  ECA5  F00C         	call	_gpio_pin_write_logic	;wreg free
  2098   002ABC  0E46               	movlw	low _seven_segment
  2099   002ABE  0100               	movlb	0	; () banked
  2100   002AC0  6FD3               	movwf	seven_segment_write_number@segment& (0+255),b
  2101   002AC2  5004               	movf	(_minutes_input+1)^0,w,c
  2102   002AC4  0FD0               	addlw	208
  2103   002AC6  6FD4               	movwf	seven_segment_write_number@number& (0+255),b
  2104   002AC8  EC87  F011         	call	_seven_segment_write_number	;wreg free
  2105   002ACC  0E52               	movlw	low _seg_enable_4
  2106   002ACE  6E68               	movwf	gpio_pin_write_logic@config^0,c
  2107   002AD0  0E01               	movlw	1
  2108   002AD2  6E69               	movwf	gpio_pin_write_logic@logic_status^0,c
  2109   002AD4  ECA5  F00C         	call	_gpio_pin_write_logic	;wreg free
  2110   002AD8                     
  2111                           ;application.c: 290:     _delay((unsigned long)((50)*(8000000UL/4000000.0)));
  2112   002AD8  0E21               	movlw	33
  2113   002ADA                     u6197:
  2114   002ADA  2EE8               	decfsz	wreg,f,c
  2115   002ADC  D7FE               	bra	u6197
  2116   002ADE  0000               	nop	
  2117   002AE0  0012               	return		;funcret
  2118   002AE2                     __end_of_minutes_display:
  2119                           	callstack 0
  2120                           
  2121 ;; *************** function _keypad_get_value *****************
  2122 ;; Defined at:
  2123 ;;		line 49 in file "ECU_Layer/KeyPad/ecu_keypad.c"
  2124 ;; Parameters:    Size  Location     Type
  2125 ;;  pad             1    5[BANK0 ] PTR const struct .
  2126 ;;		 -> keypad(8), 
  2127 ;;  value           1    6[BANK0 ] PTR unsigned char 
  2128 ;;		 -> keypad_value(1), 
  2129 ;; Auto vars:     Size  Location     Type
  2130 ;;  columns_coun    1   12[BANK0 ] unsigned char 
  2131 ;;  rows_counter    1   11[BANK0 ] unsigned char 
  2132 ;;  counter         1   10[BANK0 ] unsigned char 
  2133 ;;  column_logic    1    9[BANK0 ] unsigned char 
  2134 ;;  retVal          1    8[BANK0 ] unsigned char 
  2135 ;; Return value:  Size  Location     Type
  2136 ;;                  1    wreg      unsigned char 
  2137 ;; Registers used:
  2138 ;;		wreg, fsr1l, fsr1h, fsr2l, fsr2h, status,2, status,0, tblptrl, tblptrh, tblptru, prodl, prodh, cstack
  2139 ;; Tracked objects:
  2140 ;;		On entry : 0/0
  2141 ;;		On exit  : 0/0
  2142 ;;		Unchanged: 0/0
  2143 ;; Data sizes:     COMRAM   BANK0   BANK1   BANK2   BANK3   BANK4   BANK5   BANK6   BANK7   BANK8   BANK9  BANK10  BANK1
      +1  BANK12  BANK13  BANK14  BANK15
  2144 ;;      Params:         0       2       0       0       0       0       0       0       0       0       0       0       
      +0       0       0       0       0
  2145 ;;      Locals:         0       5       0       0       0       0       0       0       0       0       0       0       
      +0       0       0       0       0
  2146 ;;      Temps:          0       1       0       0       0       0       0       0       0       0       0       0       
      +0       0       0       0       0
  2147 ;;      Totals:         0       8       0       0       0       0       0       0       0       0       0       0       
      +0       0       0       0       0
  2148 ;;Total ram usage:        8 bytes
  2149 ;; Hardware stack levels used: 1
  2150 ;; Hardware stack levels required when called: 6
  2151 ;; This function calls:
  2152 ;;		_gpio_pin_read_logic
  2153 ;;		_gpio_pin_write_logic
  2154 ;; This function is called by:
  2155 ;;		_set_alarm
  2156 ;; This function uses a non-reentrant model
  2157 ;;
  2158                           
  2159                           	psect	text7
  2160   001C82                     __ptext7:
  2161                           	callstack 0
  2162   001C82                     _keypad_get_value:
  2163                           	callstack 23
  2164   001C82                     
  2165                           ;ECU_Layer/KeyPad/ecu_keypad.c: 51:     uint8 rows_counter=0, columns_counter=0;
  2166   001C82  0E00               	movlw	0
  2167   001C84  0100               	movlb	0	; () banked
  2168   001C86  6FD6               	movwf	keypad_get_value@rows_counter& (0+255),b
  2169   001C88  0E00               	movlw	0
  2170   001C8A  6FD7               	movwf	keypad_get_value@columns_counter& (0+255),b
  2171                           
  2172                           ;ECU_Layer/KeyPad/ecu_keypad.c: 52:     uint8 counter=0;
  2173   001C8C  0E00               	movlw	0
  2174   001C8E  6FD5               	movwf	keypad_get_value@counter& (0+255),b
  2175                           
  2176                           ;ECU_Layer/KeyPad/ecu_keypad.c: 53:     uint8 column_logic=0;
  2177   001C90  0E00               	movlw	0
  2178   001C92  6FD4               	movwf	keypad_get_value@column_logic& (0+255),b
  2179                           
  2180                           ;ECU_Layer/KeyPad/ecu_keypad.c: 54:     if((((void*)0) == pad) || (((void*)0) == value))
      +                          {
  2181   001C94  51D0               	movf	keypad_get_value@pad& (0+255),w,b
  2182   001C96  B4D8               	btfsc	status,2,c
  2183   001C98  EF50  F00E         	goto	u5031
  2184   001C9C  EF52  F00E         	goto	u5030
  2185   001CA0                     u5031:
  2186   001CA0  EF5A  F00E         	goto	l5574
  2187   001CA4                     u5030:
  2188   001CA4                     
  2189                           ; BSR set to: 0
  2190   001CA4  51D1               	movf	keypad_get_value@value& (0+255),w,b
  2191   001CA6  A4D8               	btfss	status,2,c
  2192   001CA8  EF58  F00E         	goto	u5041
  2193   001CAC  EF5A  F00E         	goto	u5040
  2194   001CB0                     u5041:
  2195   001CB0  EF5E  F00E         	goto	l5576
  2196   001CB4                     u5040:
  2197   001CB4                     l5574:
  2198                           
  2199                           ; BSR set to: 0
  2200                           ;ECU_Layer/KeyPad/ecu_keypad.c: 55:         retVal = (Std_ReturnType)0x00;
  2201   001CB4  0E00               	movlw	0
  2202   001CB6  6FD3               	movwf	keypad_get_value@retVal& (0+255),b
  2203                           
  2204                           ;ECU_Layer/KeyPad/ecu_keypad.c: 56:     }
  2205   001CB8  EFBC  F00E         	goto	l67
  2206   001CBC                     l5576:
  2207                           
  2208                           ; BSR set to: 0
  2209                           ;ECU_Layer/KeyPad/ecu_keypad.c: 58:         for(rows_counter=0 ; rows_counter < 4 ; rows
      +                          _counter++){
  2210   001CBC  0E00               	movlw	0
  2211   001CBE  6FD6               	movwf	keypad_get_value@rows_counter& (0+255),b
  2212   001CC0                     l5582:
  2213                           
  2214                           ; BSR set to: 0
  2215                           ;ECU_Layer/KeyPad/ecu_keypad.c: 59:             for(counter=0 ; counter < 4 ; counter++)
      +                          {
  2216   001CC0  0E00               	movlw	0
  2217   001CC2  6FD5               	movwf	keypad_get_value@counter& (0+255),b
  2218   001CC4                     l5588:
  2219                           
  2220                           ; BSR set to: 0
  2221   001CC4  51D0               	movf	keypad_get_value@pad& (0+255),w,b
  2222   001CC6  25D5               	addwf	keypad_get_value@counter& (0+255),w,b
  2223   001CC8  6E68               	movwf	gpio_pin_write_logic@config^0,c
  2224   001CCA  0E00               	movlw	0
  2225   001CCC  6E69               	movwf	gpio_pin_write_logic@logic_status^0,c
  2226   001CCE  ECA5  F00C         	call	_gpio_pin_write_logic	;wreg free
  2227   001CD2                     
  2228                           ;ECU_Layer/KeyPad/ecu_keypad.c: 61:             }
  2229   001CD2  0100               	movlb	0	; () banked
  2230   001CD4  2BD5               	incf	keypad_get_value@counter& (0+255),f,b
  2231   001CD6                     
  2232                           ; BSR set to: 0
  2233   001CD6  0E03               	movlw	3
  2234   001CD8  65D5               	cpfsgt	keypad_get_value@counter& (0+255),b
  2235   001CDA  EF71  F00E         	goto	u5051
  2236   001CDE  EF73  F00E         	goto	u5050
  2237   001CE2                     u5051:
  2238   001CE2  EF62  F00E         	goto	l5588
  2239   001CE6                     u5050:
  2240   001CE6                     
  2241                           ; BSR set to: 0
  2242                           ;ECU_Layer/KeyPad/ecu_keypad.c: 62:             gpio_pin_write_logic(&(pad->keypad_rows_
      +                          pins[rows_counter]) , GPIO_HIGH);
  2243   001CE6  51D0               	movf	keypad_get_value@pad& (0+255),w,b
  2244   001CE8  25D6               	addwf	keypad_get_value@rows_counter& (0+255),w,b
  2245   001CEA  6E68               	movwf	gpio_pin_write_logic@config^0,c
  2246   001CEC  0E01               	movlw	1
  2247   001CEE  6E69               	movwf	gpio_pin_write_logic@logic_status^0,c
  2248   001CF0  ECA5  F00C         	call	_gpio_pin_write_logic	;wreg free
  2249   001CF4                     
  2250                           ;ECU_Layer/KeyPad/ecu_keypad.c: 63:             _delay((unsigned long)((70)*(8000000UL/4
      +                          000.0)));
  2251   001CF4  0EB6               	movlw	182
  2252   001CF6  0100               	movlb	0	; () banked
  2253   001CF8  6FD2               	movwf	??_keypad_get_value& (0+255),b
  2254   001CFA  0ED0               	movlw	208
  2255   001CFC                     u6207:
  2256   001CFC  2EE8               	decfsz	wreg,f,c
  2257   001CFE  D7FE               	bra	u6207
  2258   001D00  2FD2               	decfsz	??_keypad_get_value& (0+255),f,b
  2259   001D02  D7FC               	bra	u6207
  2260   001D04  0000               	nop	
  2261   001D06                     
  2262                           ;ECU_Layer/KeyPad/ecu_keypad.c: 64:             for(columns_counter=0; columns_counter <
      +                           4 ; columns_counter++){
  2263   001D06  0E00               	movlw	0
  2264   001D08  0100               	movlb	0	; () banked
  2265   001D0A  6FD7               	movwf	keypad_get_value@columns_counter& (0+255),b
  2266   001D0C                     l5604:
  2267                           
  2268                           ; BSR set to: 0
  2269   001D0C  51D0               	movf	keypad_get_value@pad& (0+255),w,b
  2270   001D0E  25D7               	addwf	keypad_get_value@columns_counter& (0+255),w,b
  2271   001D10  0F04               	addlw	4
  2272   001D12  6E68               	movwf	gpio_pin_read_logic@config^0,c
  2273   001D14  0ED4               	movlw	low keypad_get_value@column_logic
  2274   001D16  6E69               	movwf	gpio_pin_read_logic@logic_status^0,c
  2275   001D18  EC96  F010         	call	_gpio_pin_read_logic	;wreg free
  2276   001D1C                     
  2277                           ;ECU_Layer/KeyPad/ecu_keypad.c: 66:                 if(GPIO_HIGH == column_logic){
  2278   001D1C  0100               	movlb	0	; () banked
  2279   001D1E  05D4               	decf	keypad_get_value@column_logic& (0+255),w,b
  2280   001D20  A4D8               	btfss	status,2,c
  2281   001D22  EF95  F00E         	goto	u5061
  2282   001D26  EF97  F00E         	goto	u5060
  2283   001D2A                     u5061:
  2284   001D2A  EFA8  F00E         	goto	l5610
  2285   001D2E                     u5060:
  2286   001D2E                     
  2287                           ; BSR set to: 0
  2288                           ;ECU_Layer/KeyPad/ecu_keypad.c: 67:                     *value = btn_values[rows_counter
      +                          ][columns_counter];
  2289   001D2E  51D6               	movf	keypad_get_value@rows_counter& (0+255),w,b
  2290   001D30  0D04               	mullw	4
  2291   001D32  50F3               	movf	243,w,c
  2292   001D34  0F01               	addlw	low _btn_values
  2293   001D36  25D7               	addwf	keypad_get_value@columns_counter& (0+255),w,b
  2294   001D38  6FD2               	movwf	??_keypad_get_value& (0+255),b
  2295   001D3A  C0D2  FFF6         	movff	??_keypad_get_value,tblptrl
  2296   001D3E                     	if	1	;There is more than 1 active tblptr byte
  2297   001D3E  0E10               	movlw	high __smallconst
  2298   001D40  6EF7               	movwf	tblptrh,c
  2299   001D42                     	endif
  2300   001D42                     	if	1	;Program memory is < 0x10000, tblptru is always zero
  2301   001D42  6AF8               	clrf	tblptru,c
  2302   001D44                     	endif
  2303   001D44                     	if	0	;tblptru may be non-zero
  2304   001D44                     	endif
  2305   001D44  51D1               	movf	keypad_get_value@value& (0+255),w,b
  2306   001D46  6ED9               	movwf	fsr2l,c
  2307   001D48  6ADA               	clrf	fsr2h,c
  2308   001D4A  0008               	tblrd		*
  2309   001D4C  CFF5 FFDF          	movff	tablat,indf2
  2310   001D50                     l5610:
  2311                           
  2312                           ; BSR set to: 0
  2313                           ;ECU_Layer/KeyPad/ecu_keypad.c: 69:             }
  2314   001D50  2BD7               	incf	keypad_get_value@columns_counter& (0+255),f,b
  2315   001D52                     
  2316                           ; BSR set to: 0
  2317   001D52  0E03               	movlw	3
  2318   001D54  65D7               	cpfsgt	keypad_get_value@columns_counter& (0+255),b
  2319   001D56  EFAF  F00E         	goto	u5071
  2320   001D5A  EFB1  F00E         	goto	u5070
  2321   001D5E                     u5071:
  2322   001D5E  EF86  F00E         	goto	l5604
  2323   001D62                     u5070:
  2324   001D62                     
  2325                           ; BSR set to: 0
  2326                           ;ECU_Layer/KeyPad/ecu_keypad.c: 70:         }
  2327   001D62  2BD6               	incf	keypad_get_value@rows_counter& (0+255),f,b
  2328   001D64                     
  2329                           ; BSR set to: 0
  2330   001D64  0E03               	movlw	3
  2331   001D66  65D6               	cpfsgt	keypad_get_value@rows_counter& (0+255),b
  2332   001D68  EFB8  F00E         	goto	u5081
  2333   001D6C  EFBA  F00E         	goto	u5080
  2334   001D70                     u5081:
  2335   001D70  EF60  F00E         	goto	l5582
  2336   001D74                     u5080:
  2337   001D74                     
  2338                           ; BSR set to: 0
  2339                           ;ECU_Layer/KeyPad/ecu_keypad.c: 71:         retVal = (Std_ReturnType)0x01;
  2340   001D74  0E01               	movlw	1
  2341   001D76  6FD3               	movwf	keypad_get_value@retVal& (0+255),b
  2342   001D78                     l67:
  2343                           
  2344                           ; BSR set to: 0
  2345                           ;ECU_Layer/KeyPad/ecu_keypad.c: 73:     return retVal;
  2346   001D78  51D3               	movf	keypad_get_value@retVal& (0+255),w,b
  2347   001D7A                     
  2348                           ; BSR set to: 0
  2349   001D7A  0012               	return		;funcret
  2350   001D7C                     __end_of_keypad_get_value:
  2351                           	callstack 0
  2352                           
  2353 ;; *************** function _gpio_pin_read_logic *****************
  2354 ;; Defined at:
  2355 ;;		line 105 in file "MCAL_Layer/GPIO/hal_gpio.c"
  2356 ;; Parameters:    Size  Location     Type
  2357 ;;  config          1   18[COMRAM] PTR const struct .
  2358 ;;		 -> keypad$keypad_columns_pins(4), keypad(8), 
  2359 ;;  logic_status    1   19[COMRAM] PTR enum E2986
  2360 ;;		 -> keypad_get_value@column_logic(1), button_read_state@logic_status(1), 
  2361 ;; Auto vars:     Size  Location     Type
  2362 ;;  retVal          1   20[COMRAM] unsigned char 
  2363 ;; Return value:  Size  Location     Type
  2364 ;;                  1    wreg      unsigned char 
  2365 ;; Registers used:
  2366 ;;		wreg, fsr1l, fsr1h, fsr2l, fsr2h, status,2, status,0, prodl, prodh
  2367 ;; Tracked objects:
  2368 ;;		On entry : 0/0
  2369 ;;		On exit  : 0/0
  2370 ;;		Unchanged: 0/0
  2371 ;; Data sizes:     COMRAM   BANK0   BANK1   BANK2   BANK3   BANK4   BANK5   BANK6   BANK7   BANK8   BANK9  BANK10  BANK1
      +1  BANK12  BANK13  BANK14  BANK15
  2372 ;;      Params:         2       0       0       0       0       0       0       0       0       0       0       0       
      +0       0       0       0       0
  2373 ;;      Locals:         1       0       0       0       0       0       0       0       0       0       0       0       
      +0       0       0       0       0
  2374 ;;      Temps:          0       4       0       0       0       0       0       0       0       0       0       0       
      +0       0       0       0       0
  2375 ;;      Totals:         3       4       0       0       0       0       0       0       0       0       0       0       
      +0       0       0       0       0
  2376 ;;Total ram usage:        7 bytes
  2377 ;; Hardware stack levels used: 1
  2378 ;; Hardware stack levels required when called: 5
  2379 ;; This function calls:
  2380 ;;		Nothing
  2381 ;; This function is called by:
  2382 ;;		_keypad_get_value
  2383 ;;		_button_read_state
  2384 ;; This function uses a non-reentrant model
  2385 ;;
  2386                           
  2387                           	psect	text8
  2388   00212C                     __ptext8:
  2389                           	callstack 0
  2390   00212C                     _gpio_pin_read_logic:
  2391                           	callstack 23
  2392   00212C                     
  2393                           ;MCAL_Layer/GPIO/hal_gpio.c: 107:     if((((void*)0) == config) || (((void*)0) == logic_
      +                          status) || (config->pin > 8 -1))
  2394   00212C  5068               	movf	gpio_pin_read_logic@config^0,w,c
  2395   00212E  B4D8               	btfsc	status,2,c
  2396   002130  EF9C  F010         	goto	u4851
  2397   002134  EF9E  F010         	goto	u4850
  2398   002138                     u4851:
  2399   002138  EFB7  F010         	goto	l5366
  2400   00213C                     u4850:
  2401   00213C  5069               	movf	gpio_pin_read_logic@logic_status^0,w,c
  2402   00213E  B4D8               	btfsc	status,2,c
  2403   002140  EFA4  F010         	goto	u4861
  2404   002144  EFA6  F010         	goto	u4860
  2405   002148                     u4861:
  2406   002148  EFB7  F010         	goto	l5366
  2407   00214C                     u4860:
  2408   00214C  5068               	movf	gpio_pin_read_logic@config^0,w,c
  2409   00214E  6ED9               	movwf	fsr2l,c
  2410   002150  6ADA               	clrf	fsr2h,c
  2411   002152  30DF               	rrcf	223,w,c
  2412   002154  32E8               	rrcf	wreg,f,c
  2413   002156  32E8               	rrcf	wreg,f,c
  2414   002158  0B07               	andlw	7
  2415   00215A  0100               	movlb	0	; () banked
  2416   00215C  6FCB               	movwf	??_gpio_pin_read_logic& (0+255),b
  2417   00215E  0E07               	movlw	7
  2418   002160  65CB               	cpfsgt	??_gpio_pin_read_logic& (0+255),b
  2419   002162  EFB5  F010         	goto	u4871
  2420   002166  EFB7  F010         	goto	u4870
  2421   00216A                     u4871:
  2422   00216A  EFBB  F010         	goto	l5368
  2423   00216E                     u4870:
  2424   00216E                     l5366:
  2425                           
  2426                           ;MCAL_Layer/GPIO/hal_gpio.c: 108:     {;MCAL_Layer/GPIO/hal_gpio.c: 109:         retVal 
      +                          = (Std_ReturnType)0x00;
  2427   00216E  0E00               	movlw	0
  2428   002170  6E6A               	movwf	gpio_pin_read_logic@retVal^0,c
  2429                           
  2430                           ;MCAL_Layer/GPIO/hal_gpio.c: 110:     }else{
  2431   002172  EFE8  F010         	goto	l5372
  2432   002176                     l5368:
  2433                           
  2434                           ; BSR set to: 0
  2435                           ;MCAL_Layer/GPIO/hal_gpio.c: 111:         *logic_status = ((*port_registers[config->port
      +                          ] >> config->pin) & (uint8)1);
  2436   002176  5069               	movf	gpio_pin_read_logic@logic_status^0,w,c
  2437   002178  6ED9               	movwf	fsr2l,c
  2438   00217A  6ADA               	clrf	fsr2h,c
  2439   00217C  5068               	movf	gpio_pin_read_logic@config^0,w,c
  2440   00217E  6EE1               	movwf	fsr1l,c
  2441   002180  6AE2               	clrf	fsr1h,c
  2442   002182  30E7               	rrcf	231,w,c
  2443   002184  32E8               	rrcf	wreg,f,c
  2444   002186  32E8               	rrcf	wreg,f,c
  2445   002188  0B07               	andlw	7
  2446   00218A  6FCB               	movwf	??_gpio_pin_read_logic& (0+255),b
  2447   00218C  5068               	movf	gpio_pin_read_logic@config^0,w,c
  2448   00218E  6EE1               	movwf	fsr1l,c
  2449   002190  6AE2               	clrf	fsr1h,c
  2450   002192  50E7               	movf	231,w,c
  2451   002194  0B07               	andlw	7
  2452   002196  0D02               	mullw	2
  2453   002198  50F3               	movf	243,w,c
  2454   00219A  0F80               	addlw	low _port_registers
  2455   00219C  6EE1               	movwf	fsr1l,c
  2456   00219E  6AE2               	clrf	fsr1h,c
  2457   0021A0  CFE6 F0CC          	movff	postinc1,??_gpio_pin_read_logic+1
  2458   0021A4  CFE5 F0CD          	movff	postdec1,??_gpio_pin_read_logic+2
  2459   0021A8  C0CC  FFE1         	movff	??_gpio_pin_read_logic+1,fsr1l
  2460   0021AC  C0CD  FFE2         	movff	??_gpio_pin_read_logic+2,fsr1h
  2461   0021B0  50E7               	movf	indf1,w,c
  2462   0021B2  6FCE               	movwf	(??_gpio_pin_read_logic+3)& (0+255),b
  2463   0021B4  2BCB               	incf	??_gpio_pin_read_logic& (0+255),f,b
  2464   0021B6  EFDF  F010         	goto	u4884
  2465   0021BA                     u4885:
  2466   0021BA  90D8               	bcf	status,0,c
  2467   0021BC  33CE               	rrcf	(??_gpio_pin_read_logic+3)& (0+255),f,b
  2468   0021BE                     u4884:
  2469   0021BE  2FCB               	decfsz	??_gpio_pin_read_logic& (0+255),f,b
  2470   0021C0  EFDD  F010         	goto	u4885
  2471   0021C4  0100               	movlb	0	; () banked
  2472   0021C6  51CE               	movf	(??_gpio_pin_read_logic+3)& (0+255),w,b
  2473   0021C8  0B01               	andlw	1
  2474   0021CA  6EDF               	movwf	indf2,c
  2475   0021CC                     
  2476                           ; BSR set to: 0
  2477                           ;MCAL_Layer/GPIO/hal_gpio.c: 112:         retVal = (Std_ReturnType)0x01;
  2478   0021CC  0E01               	movlw	1
  2479   0021CE  6E6A               	movwf	gpio_pin_read_logic@retVal^0,c
  2480   0021D0                     l5372:
  2481                           
  2482                           ;MCAL_Layer/GPIO/hal_gpio.c: 114:     return retVal;
  2483   0021D0  506A               	movf	gpio_pin_read_logic@retVal^0,w,c
  2484   0021D2  0012               	return		;funcret
  2485   0021D4                     __end_of_gpio_pin_read_logic:
  2486                           	callstack 0
  2487                           
  2488 ;; *************** function _hours_display *****************
  2489 ;; Defined at:
  2490 ;;		line 271 in file "application.c"
  2491 ;; Parameters:    Size  Location     Type
  2492 ;;		None
  2493 ;; Auto vars:     Size  Location     Type
  2494 ;;  retVal          1    0        unsigned char 
  2495 ;; Return value:  Size  Location     Type
  2496 ;;                  1    wreg      void 
  2497 ;; Registers used:
  2498 ;;		wreg, fsr2l, fsr2h, status,2, status,0, prodl, prodh, cstack
  2499 ;; Tracked objects:
  2500 ;;		On entry : 0/0
  2501 ;;		On exit  : 0/0
  2502 ;;		Unchanged: 0/0
  2503 ;; Data sizes:     COMRAM   BANK0   BANK1   BANK2   BANK3   BANK4   BANK5   BANK6   BANK7   BANK8   BANK9  BANK10  BANK1
      +1  BANK12  BANK13  BANK14  BANK15
  2504 ;;      Params:         0       0       0       0       0       0       0       0       0       0       0       0       
      +0       0       0       0       0
  2505 ;;      Locals:         0       0       0       0       0       0       0       0       0       0       0       0       
      +0       0       0       0       0
  2506 ;;      Temps:          0       0       0       0       0       0       0       0       0       0       0       0       
      +0       0       0       0       0
  2507 ;;      Totals:         0       0       0       0       0       0       0       0       0       0       0       0       
      +0       0       0       0       0
  2508 ;;Total ram usage:        0 bytes
  2509 ;; Hardware stack levels used: 1
  2510 ;; Hardware stack levels required when called: 7
  2511 ;; This function calls:
  2512 ;;		_gpio_pin_write_logic
  2513 ;;		_seven_segment_write_number
  2514 ;; This function is called by:
  2515 ;;		_set_alarm
  2516 ;; This function uses a non-reentrant model
  2517 ;;
  2518                           
  2519                           	psect	text9
  2520   002B9A                     __ptext9:
  2521                           	callstack 0
  2522   002B9A                     _hours_display:
  2523                           	callstack 22
  2524   002B9A  0E46               	movlw	low _seven_segment
  2525   002B9C  0100               	movlb	0	; () banked
  2526   002B9E  6FD3               	movwf	seven_segment_write_number@segment& (0+255),b
  2527   002BA0  5005               	movf	_hours_input^0,w,c
  2528   002BA2  0FD0               	addlw	208
  2529   002BA4  6FD4               	movwf	seven_segment_write_number@number& (0+255),b
  2530   002BA6  EC87  F011         	call	_seven_segment_write_number	;wreg free
  2531   002BAA  0E55               	movlw	low _seg_enable_1
  2532   002BAC  6E68               	movwf	gpio_pin_write_logic@config^0,c
  2533   002BAE  0E01               	movlw	1
  2534   002BB0  6E69               	movwf	gpio_pin_write_logic@logic_status^0,c
  2535   002BB2  ECA5  F00C         	call	_gpio_pin_write_logic	;wreg free
  2536   002BB6                     
  2537                           ;application.c: 275:     _delay((unsigned long)((50)*(8000000UL/4000000.0)));
  2538   002BB6  0E21               	movlw	33
  2539   002BB8                     u6217:
  2540   002BB8  2EE8               	decfsz	wreg,f,c
  2541   002BBA  D7FE               	bra	u6217
  2542   002BBC  0000               	nop	
  2543   002BBE  0E55               	movlw	low _seg_enable_1
  2544   002BC0  6E68               	movwf	gpio_pin_write_logic@config^0,c
  2545   002BC2  0E00               	movlw	0
  2546   002BC4  6E69               	movwf	gpio_pin_write_logic@logic_status^0,c
  2547   002BC6  ECA5  F00C         	call	_gpio_pin_write_logic	;wreg free
  2548   002BCA  0E46               	movlw	low _seven_segment
  2549   002BCC  0100               	movlb	0	; () banked
  2550   002BCE  6FD3               	movwf	seven_segment_write_number@segment& (0+255),b
  2551   002BD0  5006               	movf	(_hours_input+1)^0,w,c
  2552   002BD2  0FD0               	addlw	208
  2553   002BD4  6FD4               	movwf	seven_segment_write_number@number& (0+255),b
  2554   002BD6  EC87  F011         	call	_seven_segment_write_number	;wreg free
  2555   002BDA  0E54               	movlw	low _seg_enable_2
  2556   002BDC  6E68               	movwf	gpio_pin_write_logic@config^0,c
  2557   002BDE  0E01               	movlw	1
  2558   002BE0  6E69               	movwf	gpio_pin_write_logic@logic_status^0,c
  2559   002BE2  ECA5  F00C         	call	_gpio_pin_write_logic	;wreg free
  2560   002BE6                     
  2561                           ;application.c: 279:     _delay((unsigned long)((50)*(8000000UL/4000000.0)));
  2562   002BE6  0E21               	movlw	33
  2563   002BE8                     u6227:
  2564   002BE8  2EE8               	decfsz	wreg,f,c
  2565   002BEA  D7FE               	bra	u6227
  2566   002BEC  0000               	nop	
  2567   002BEE  0012               	return		;funcret
  2568   002BF0                     __end_of_hours_display:
  2569                           	callstack 0
  2570                           
  2571 ;; *************** function _seven_segment_write_number *****************
  2572 ;; Defined at:
  2573 ;;		line 41 in file "ECU_Layer/7_Segment/ecu_seven_seg.c"
  2574 ;; Parameters:    Size  Location     Type
  2575 ;;  segment         1    8[BANK0 ] PTR const struct .
  2576 ;;		 -> seven_segment(5), 
  2577 ;;  number          1    9[BANK0 ] unsigned char 
  2578 ;; Auto vars:     Size  Location     Type
  2579 ;;  retVal          1   10[BANK0 ] unsigned char 
  2580 ;; Return value:  Size  Location     Type
  2581 ;;                  1    wreg      unsigned char 
  2582 ;; Registers used:
  2583 ;;		wreg, fsr2l, fsr2h, status,2, status,0, prodl, prodh, cstack
  2584 ;; Tracked objects:
  2585 ;;		On entry : 0/0
  2586 ;;		On exit  : 0/0
  2587 ;;		Unchanged: 0/0
  2588 ;; Data sizes:     COMRAM   BANK0   BANK1   BANK2   BANK3   BANK4   BANK5   BANK6   BANK7   BANK8   BANK9  BANK10  BANK1
      +1  BANK12  BANK13  BANK14  BANK15
  2589 ;;      Params:         0       2       0       0       0       0       0       0       0       0       0       0       
      +0       0       0       0       0
  2590 ;;      Locals:         0       1       0       0       0       0       0       0       0       0       0       0       
      +0       0       0       0       0
  2591 ;;      Temps:          0       0       0       0       0       0       0       0       0       0       0       0       
      +0       0       0       0       0
  2592 ;;      Totals:         0       3       0       0       0       0       0       0       0       0       0       0       
      +0       0       0       0       0
  2593 ;;Total ram usage:        3 bytes
  2594 ;; Hardware stack levels used: 1
  2595 ;; Hardware stack levels required when called: 6
  2596 ;; This function calls:
  2597 ;;		_gpio_pin_write_logic
  2598 ;; This function is called by:
  2599 ;;		_seven_seg_display
  2600 ;;		_hours_display
  2601 ;;		_minutes_display
  2602 ;;		_seconds_display
  2603 ;; This function uses a non-reentrant model
  2604 ;;
  2605                           
  2606                           	psect	text10
  2607   00230E                     __ptext10:
  2608                           	callstack 0
  2609   00230E                     _seven_segment_write_number:
  2610                           	callstack 23
  2611   00230E                     
  2612                           ;ECU_Layer/7_Segment/ecu_seven_seg.c: 43:     if((((void*)0) == segment) || (number > 9)
      +                          ){
  2613   00230E  0100               	movlb	0	; () banked
  2614   002310  51D3               	movf	seven_segment_write_number@segment& (0+255),w,b
  2615   002312  B4D8               	btfsc	status,2,c
  2616   002314  EF8E  F011         	goto	u4831
  2617   002318  EF90  F011         	goto	u4830
  2618   00231C                     u4831:
  2619   00231C  EF98  F011         	goto	l5350
  2620   002320                     u4830:
  2621   002320                     
  2622                           ; BSR set to: 0
  2623   002320  0E09               	movlw	9
  2624   002322  65D4               	cpfsgt	seven_segment_write_number@number& (0+255),b
  2625   002324  EF96  F011         	goto	u4841
  2626   002328  EF98  F011         	goto	u4840
  2627   00232C                     u4841:
  2628   00232C  EF9C  F011         	goto	l5352
  2629   002330                     u4840:
  2630   002330                     l5350:
  2631                           
  2632                           ; BSR set to: 0
  2633                           ;ECU_Layer/7_Segment/ecu_seven_seg.c: 44:         retVal = (Std_ReturnType)0x00;
  2634   002330  0E00               	movlw	0
  2635   002332  6FD5               	movwf	seven_segment_write_number@retVal& (0+255),b
  2636                           
  2637                           ;ECU_Layer/7_Segment/ecu_seven_seg.c: 45:     }
  2638   002334  EFC9  F011         	goto	l5356
  2639   002338                     l5352:
  2640                           
  2641                           ; BSR set to: 0
  2642                           ;ECU_Layer/7_Segment/ecu_seven_seg.c: 47:         retVal = gpio_pin_write_logic(&(segmen
      +                          t->segment_pin[0]) , number & 0x01);
  2643   002338  C0D3  F068         	movff	seven_segment_write_number@segment,gpio_pin_write_logic@config
  2644   00233C  51D4               	movf	seven_segment_write_number@number& (0+255),w,b
  2645   00233E  0B01               	andlw	1
  2646   002340  6E69               	movwf	gpio_pin_write_logic@logic_status^0,c
  2647   002342  ECA5  F00C         	call	_gpio_pin_write_logic	;wreg free
  2648   002346  0100               	movlb	0	; () banked
  2649   002348  6FD5               	movwf	seven_segment_write_number@retVal& (0+255),b
  2650                           
  2651                           ;ECU_Layer/7_Segment/ecu_seven_seg.c: 48:         retVal = gpio_pin_write_logic(&(segmen
      +                          t->segment_pin[1]) , (number>>1) & 0x01);
  2652   00234A  29D3               	incf	seven_segment_write_number@segment& (0+255),w,b
  2653   00234C  6E68               	movwf	gpio_pin_write_logic@config^0,c
  2654   00234E  90D8               	bcf	status,0,c
  2655   002350  31D4               	rrcf	seven_segment_write_number@number& (0+255),w,b
  2656   002352  0B01               	andlw	1
  2657   002354  6E69               	movwf	gpio_pin_write_logic@logic_status^0,c
  2658   002356  ECA5  F00C         	call	_gpio_pin_write_logic	;wreg free
  2659   00235A  0100               	movlb	0	; () banked
  2660   00235C  6FD5               	movwf	seven_segment_write_number@retVal& (0+255),b
  2661                           
  2662                           ;ECU_Layer/7_Segment/ecu_seven_seg.c: 49:         retVal = gpio_pin_write_logic(&(segmen
      +                          t->segment_pin[2]) , (number>>2) & 0x01);
  2663   00235E  51D3               	movf	seven_segment_write_number@segment& (0+255),w,b
  2664   002360  0F02               	addlw	2
  2665   002362  6E68               	movwf	gpio_pin_write_logic@config^0,c
  2666   002364  41D4               	rrncf	seven_segment_write_number@number& (0+255),w,b
  2667   002366  42E8               	rrncf	wreg,f,c
  2668   002368  0B3F               	andlw	63
  2669   00236A  0B01               	andlw	1
  2670   00236C  6E69               	movwf	gpio_pin_write_logic@logic_status^0,c
  2671   00236E  ECA5  F00C         	call	_gpio_pin_write_logic	;wreg free
  2672   002372  0100               	movlb	0	; () banked
  2673   002374  6FD5               	movwf	seven_segment_write_number@retVal& (0+255),b
  2674                           
  2675                           ;ECU_Layer/7_Segment/ecu_seven_seg.c: 50:         retVal = gpio_pin_write_logic(&(segmen
      +                          t->segment_pin[3]) , (number>>3) & 0x01);
  2676   002376  51D3               	movf	seven_segment_write_number@segment& (0+255),w,b
  2677   002378  0F03               	addlw	3
  2678   00237A  6E68               	movwf	gpio_pin_write_logic@config^0,c
  2679   00237C  39D4               	swapf	seven_segment_write_number@number& (0+255),w,b
  2680   00237E  46E8               	rlncf	wreg,f,c
  2681   002380  0B1F               	andlw	31
  2682   002382  0B01               	andlw	1
  2683   002384  6E69               	movwf	gpio_pin_write_logic@logic_status^0,c
  2684   002386  ECA5  F00C         	call	_gpio_pin_write_logic	;wreg free
  2685   00238A  0100               	movlb	0	; () banked
  2686   00238C  6FD5               	movwf	seven_segment_write_number@retVal& (0+255),b
  2687   00238E                     
  2688                           ; BSR set to: 0
  2689                           ;ECU_Layer/7_Segment/ecu_seven_seg.c: 51:         retVal = (Std_ReturnType)0x01;
  2690   00238E  0E01               	movlw	1
  2691   002390  6FD5               	movwf	seven_segment_write_number@retVal& (0+255),b
  2692   002392                     l5356:
  2693                           
  2694                           ; BSR set to: 0
  2695                           ;ECU_Layer/7_Segment/ecu_seven_seg.c: 53:     return retVal;
  2696   002392  51D5               	movf	seven_segment_write_number@retVal& (0+255),w,b
  2697   002394                     
  2698                           ; BSR set to: 0
  2699   002394  0012               	return		;funcret
  2700   002396                     __end_of_seven_segment_write_number:
  2701                           	callstack 0
  2702                           
  2703 ;; *************** function _get_rtc_time *****************
  2704 ;; Defined at:
  2705 ;;		line 307 in file "application.c"
  2706 ;; Parameters:    Size  Location     Type
  2707 ;;		None
  2708 ;; Auto vars:     Size  Location     Type
  2709 ;;		None
  2710 ;; Return value:  Size  Location     Type
  2711 ;;                  1    wreg      void 
  2712 ;; Registers used:
  2713 ;;		wreg, fsr2l, fsr2h, status,2, status,0, prodl, prodh, cstack
  2714 ;; Tracked objects:
  2715 ;;		On entry : 0/0
  2716 ;;		On exit  : 0/0
  2717 ;;		Unchanged: 0/0
  2718 ;; Data sizes:     COMRAM   BANK0   BANK1   BANK2   BANK3   BANK4   BANK5   BANK6   BANK7   BANK8   BANK9  BANK10  BANK1
      +1  BANK12  BANK13  BANK14  BANK15
  2719 ;;      Params:         0       0       0       0       0       0       0       0       0       0       0       0       
      +0       0       0       0       0
  2720 ;;      Locals:         0       0       0       0       0       0       0       0       0       0       0       0       
      +0       0       0       0       0
  2721 ;;      Temps:          0       1       0       0       0       0       0       0       0       0       0       0       
      +0       0       0       0       0
  2722 ;;      Totals:         0       1       0       0       0       0       0       0       0       0       0       0       
      +0       0       0       0       0
  2723 ;;Total ram usage:        1 bytes
  2724 ;; Hardware stack levels used: 1
  2725 ;; Hardware stack levels required when called: 8
  2726 ;; This function calls:
  2727 ;;		_Get_DS1307_RTC_Time
  2728 ;;		_InitI2C
  2729 ;; This function is called by:
  2730 ;;		_main
  2731 ;; This function uses a non-reentrant model
  2732 ;;
  2733                           
  2734                           	psect	text11
  2735   002E2C                     __ptext11:
  2736                           	callstack 0
  2737   002E2C                     _get_rtc_time:
  2738                           	callstack 22
  2739   002E2C                     
  2740                           ;application.c: 308:     InitI2C();
  2741   002E2C  EC24  F019         	call	_InitI2C	;wreg free
  2742   002E30                     
  2743                           ;application.c: 309:     ptr = time;
  2744   002E30  0E35               	movlw	low _time
  2745   002E32  6E6B               	movwf	_ptr^0,c
  2746   002E34  6A6C               	clrf	(_ptr+1)^0,c
  2747   002E36                     
  2748                           ;application.c: 310:  ptr = Get_DS1307_RTC_Time();
  2749   002E36  EC3F  F010         	call	_Get_DS1307_RTC_Time	;wreg free
  2750   002E3A  0100               	movlb	0	; () banked
  2751   002E3C  6FD2               	movwf	??_get_rtc_time& (0+255),b
  2752   002E3E  C0D2  F06B         	movff	??_get_rtc_time,_ptr
  2753   002E42  6A6C               	clrf	(_ptr+1)^0,c
  2754   002E44                     
  2755                           ; BSR set to: 0
  2756                           ;application.c: 312:     clock_hours = ptr[2];
  2757   002E44  EE20 F002          	lfsr	2,2
  2758   002E48  506B               	movf	_ptr^0,w,c
  2759   002E4A  26D9               	addwf	fsr2l,f,c
  2760   002E4C  506C               	movf	(_ptr+1)^0,w,c
  2761   002E4E  22DA               	addwfc	fsr2h,f,c
  2762   002E50  50DF               	movf	indf2,w,c
  2763   002E52  6E27               	movwf	_clock_hours^0,c	;volatile
  2764   002E54                     
  2765                           ; BSR set to: 0
  2766                           ;application.c: 313:     clock_minutes = ptr[1];
  2767   002E54  EE20 F001          	lfsr	2,1
  2768   002E58  506B               	movf	_ptr^0,w,c
  2769   002E5A  26D9               	addwf	fsr2l,f,c
  2770   002E5C  506C               	movf	(_ptr+1)^0,w,c
  2771   002E5E  22DA               	addwfc	fsr2h,f,c
  2772   002E60  50DF               	movf	indf2,w,c
  2773   002E62  6E26               	movwf	_clock_minutes^0,c	;volatile
  2774   002E64                     
  2775                           ; BSR set to: 0
  2776                           ;application.c: 314:     clock_seconds = ptr[0];
  2777   002E64  C06B  FFD9         	movff	_ptr,fsr2l
  2778   002E68  C06C  FFDA         	movff	_ptr+1,fsr2h
  2779   002E6C  50DF               	movf	indf2,w,c
  2780   002E6E  6E25               	movwf	_clock_seconds^0,c	;volatile
  2781   002E70                     
  2782                           ; BSR set to: 0
  2783   002E70  0012               	return		;funcret
  2784   002E72                     __end_of_get_rtc_time:
  2785                           	callstack 0
  2786                           
  2787 ;; *************** function _InitI2C *****************
  2788 ;; Defined at:
  2789 ;;		line 12 in file "MCAL_Layer/I2C/i2c.c"
  2790 ;; Parameters:    Size  Location     Type
  2791 ;;		None
  2792 ;; Auto vars:     Size  Location     Type
  2793 ;;		None
  2794 ;; Return value:  Size  Location     Type
  2795 ;;                  1    wreg      void 
  2796 ;; Registers used:
  2797 ;;		wreg, status,2
  2798 ;; Tracked objects:
  2799 ;;		On entry : 0/0
  2800 ;;		On exit  : 0/0
  2801 ;;		Unchanged: 0/0
  2802 ;; Data sizes:     COMRAM   BANK0   BANK1   BANK2   BANK3   BANK4   BANK5   BANK6   BANK7   BANK8   BANK9  BANK10  BANK1
      +1  BANK12  BANK13  BANK14  BANK15
  2803 ;;      Params:         0       0       0       0       0       0       0       0       0       0       0       0       
      +0       0       0       0       0
  2804 ;;      Locals:         0       0       0       0       0       0       0       0       0       0       0       0       
      +0       0       0       0       0
  2805 ;;      Temps:          0       0       0       0       0       0       0       0       0       0       0       0       
      +0       0       0       0       0
  2806 ;;      Totals:         0       0       0       0       0       0       0       0       0       0       0       0       
      +0       0       0       0       0
  2807 ;;Total ram usage:        0 bytes
  2808 ;; Hardware stack levels used: 1
  2809 ;; Hardware stack levels required when called: 5
  2810 ;; This function calls:
  2811 ;;		Nothing
  2812 ;; This function is called by:
  2813 ;;		_get_rtc_time
  2814 ;; This function uses a non-reentrant model
  2815 ;;
  2816                           
  2817                           	psect	text12
  2818   003248                     __ptext12:
  2819                           	callstack 0
  2820   003248                     _InitI2C:
  2821                           	callstack 24
  2822   003248                     
  2823                           ;MCAL_Layer/I2C/i2c.c: 13:  TRISC4 = 1;
  2824   003248  8894               	bsf	3988,4,c	;volatile
  2825                           
  2826                           ;MCAL_Layer/I2C/i2c.c: 14:  TRISC3 = 1;
  2827   00324A  8694               	bsf	3988,3,c	;volatile
  2828   00324C                     
  2829                           ;MCAL_Layer/I2C/i2c.c: 16:  SSPADD = ((8000000UL/4000)/100) - 1;
  2830   00324C  0E13               	movlw	19
  2831   00324E  6EC8               	movwf	200,c	;volatile
  2832                           
  2833                           ;MCAL_Layer/I2C/i2c.c: 17:  SSPSTAT = 0b10000000;
  2834   003250  0E80               	movlw	128
  2835   003252  6EC7               	movwf	199,c	;volatile
  2836                           
  2837                           ;MCAL_Layer/I2C/i2c.c: 18:  SSPCON1 = 0b00101000;
  2838   003254  0E28               	movlw	40
  2839   003256  6EC6               	movwf	198,c	;volatile
  2840   003258  0012               	return		;funcret
  2841   00325A                     __end_of_InitI2C:
  2842                           	callstack 0
  2843                           
  2844 ;; *************** function _Get_DS1307_RTC_Time *****************
  2845 ;; Defined at:
  2846 ;;		line 152 in file "ECU_Layer/DS1307/ds1307.c"
  2847 ;; Parameters:    Size  Location     Type
  2848 ;;		None
  2849 ;; Auto vars:     Size  Location     Type
  2850 ;;		None
  2851 ;; Return value:  Size  Location     Type
  2852 ;;                  1    wreg      PTR unsigned char 
  2853 ;; Registers used:
  2854 ;;		wreg, fsr2l, fsr2h, status,2, status,0, prodl, prodh, cstack
  2855 ;; Tracked objects:
  2856 ;;		On entry : 0/0
  2857 ;;		On exit  : 0/0
  2858 ;;		Unchanged: 0/0
  2859 ;; Data sizes:     COMRAM   BANK0   BANK1   BANK2   BANK3   BANK4   BANK5   BANK6   BANK7   BANK8   BANK9  BANK10  BANK1
      +1  BANK12  BANK13  BANK14  BANK15
  2860 ;;      Params:         2       0       0       0       0       0       0       0       0       0       0       0       
      +0       0       0       0       0
  2861 ;;      Locals:         0       0       0       0       0       0       0       0       0       0       0       0       
      +0       0       0       0       0
  2862 ;;      Temps:          0       1       0       0       0       0       0       0       0       0       0       0       
      +0       0       0       0       0
  2863 ;;      Totals:         2       1       0       0       0       0       0       0       0       0       0       0       
      +0       0       0       0       0
  2864 ;;Total ram usage:        3 bytes
  2865 ;; Hardware stack levels used: 1
  2866 ;; Hardware stack levels required when called: 7
  2867 ;; This function calls:
  2868 ;;		_Read_Bytes_From_DS1307_RTC
  2869 ;; This function is called by:
  2870 ;;		_get_rtc_time
  2871 ;; This function uses a non-reentrant model
  2872 ;;
  2873                           
  2874                           	psect	text13
  2875   00207E                     __ptext13:
  2876                           	callstack 0
  2877   00207E                     _Get_DS1307_RTC_Time:
  2878                           	callstack 22
  2879   00207E                     
  2880                           ;ECU_Layer/DS1307/ds1307.c: 155:  Read_Bytes_From_DS1307_RTC(0x00, pRTCArray, 3);
  2881   00207E  0E31               	movlw	low _pRTCArray
  2882   002080  0100               	movlb	0	; () banked
  2883   002082  6FCB               	movwf	Read_Bytes_From_DS1307_RTC@pData& (0+255),b
  2884   002084  0E00               	movlw	0
  2885   002086  6FCD               	movwf	(Read_Bytes_From_DS1307_RTC@NoOfBytes+1)& (0+255),b
  2886   002088  0E03               	movlw	3
  2887   00208A  6FCC               	movwf	Read_Bytes_From_DS1307_RTC@NoOfBytes& (0+255),b
  2888   00208C  0E00               	movlw	0
  2889   00208E  ECCB  F011         	call	_Read_Bytes_From_DS1307_RTC
  2890   002092                     
  2891                           ;ECU_Layer/DS1307/ds1307.c: 158:  Temp = pRTCArray[0];
  2892   002092  C031  F021         	movff	_pRTCArray,_Temp
  2893   002096                     
  2894                           ;ECU_Layer/DS1307/ds1307.c: 159:  pRTCArray[0] = ((Temp&0x7F)>>4)*10 + (Temp&0x0F);
  2895   002096  C021  F0D1         	movff	_Temp,??_Get_DS1307_RTC_Time
  2896   00209A  0E0F               	movlw	15
  2897   00209C  0100               	movlb	0	; () banked
  2898   00209E  17D1               	andwf	??_Get_DS1307_RTC_Time& (0+255),f,b
  2899   0020A0  3821               	swapf	_Temp^0,w,c
  2900   0020A2  0B0F               	andlw	15
  2901   0020A4  0B07               	andlw	7
  2902   0020A6  0D0A               	mullw	10
  2903   0020A8  50F3               	movf	243,w,c
  2904   0020AA  25D1               	addwf	??_Get_DS1307_RTC_Time& (0+255),w,b
  2905   0020AC  6E31               	movwf	_pRTCArray^0,c
  2906   0020AE                     
  2907                           ; BSR set to: 0
  2908                           ;ECU_Layer/DS1307/ds1307.c: 162:  Temp = pRTCArray[1];
  2909   0020AE  C032  F021         	movff	_pRTCArray+1,_Temp
  2910   0020B2                     
  2911                           ; BSR set to: 0
  2912                           ;ECU_Layer/DS1307/ds1307.c: 163:  pRTCArray[1] = (Temp>>4)*10 + (Temp&0x0F);
  2913   0020B2  C021  F0D1         	movff	_Temp,??_Get_DS1307_RTC_Time
  2914   0020B6  0E0F               	movlw	15
  2915   0020B8  17D1               	andwf	??_Get_DS1307_RTC_Time& (0+255),f,b
  2916   0020BA  3821               	swapf	_Temp^0,w,c
  2917   0020BC  0B0F               	andlw	15
  2918   0020BE  0D0A               	mullw	10
  2919   0020C0  50F3               	movf	243,w,c
  2920   0020C2  25D1               	addwf	??_Get_DS1307_RTC_Time& (0+255),w,b
  2921   0020C4  6E32               	movwf	(_pRTCArray+1)^0,c
  2922   0020C6                     
  2923                           ; BSR set to: 0
  2924                           ;ECU_Layer/DS1307/ds1307.c: 166:  if(pRTCArray[2]&0x40)
  2925   0020C6  AC33               	btfss	(_pRTCArray+2)^0,6,c
  2926   0020C8  EF68  F010         	goto	u5091
  2927   0020CC  EF6A  F010         	goto	u5090
  2928   0020D0                     u5091:
  2929   0020D0  EF86  F010         	goto	l1012
  2930   0020D4                     u5090:
  2931   0020D4                     
  2932                           ; BSR set to: 0
  2933                           ;ECU_Layer/DS1307/ds1307.c: 167:  {;ECU_Layer/DS1307/ds1307.c: 168:   if(pRTCArray[2]&0x
      +                          20)
  2934   0020D4  AA33               	btfss	(_pRTCArray+2)^0,5,c
  2935   0020D6  EF6F  F010         	goto	u5101
  2936   0020DA  EF71  F010         	goto	u5100
  2937   0020DE                     u5101:
  2938   0020DE  EF75  F010         	goto	l5758
  2939   0020E2                     u5100:
  2940   0020E2                     
  2941                           ; BSR set to: 0
  2942                           ;ECU_Layer/DS1307/ds1307.c: 169:    pRTCArray[3] = 1;
  2943   0020E2  0E01               	movlw	1
  2944   0020E4  6E34               	movwf	(_pRTCArray+3)^0,c
  2945   0020E6  EF77  F010         	goto	l5760
  2946   0020EA                     l5758:
  2947                           
  2948                           ; BSR set to: 0
  2949                           ;ECU_Layer/DS1307/ds1307.c: 171:    pRTCArray[3] = 0;
  2950   0020EA  0E00               	movlw	0
  2951   0020EC  6E34               	movwf	(_pRTCArray+3)^0,c
  2952   0020EE                     l5760:
  2953                           
  2954                           ; BSR set to: 0
  2955                           ;ECU_Layer/DS1307/ds1307.c: 173:   Temp = pRTCArray[2];
  2956   0020EE  C033  F021         	movff	_pRTCArray+2,_Temp
  2957   0020F2                     
  2958                           ; BSR set to: 0
  2959                           ;ECU_Layer/DS1307/ds1307.c: 174:   pRTCArray[2] = ((Temp&0x1F)>>4)*10 + (Temp&0x0F);
  2960   0020F2  C021  F0D1         	movff	_Temp,??_Get_DS1307_RTC_Time
  2961   0020F6  0E0F               	movlw	15
  2962   0020F8  17D1               	andwf	??_Get_DS1307_RTC_Time& (0+255),f,b
  2963   0020FA  3821               	swapf	_Temp^0,w,c
  2964   0020FC  0B0F               	andlw	15
  2965   0020FE  0B01               	andlw	1
  2966   002100  0D0A               	mullw	10
  2967   002102  50F3               	movf	243,w,c
  2968   002104  25D1               	addwf	??_Get_DS1307_RTC_Time& (0+255),w,b
  2969   002106  6E33               	movwf	(_pRTCArray+2)^0,c
  2970                           
  2971                           ;ECU_Layer/DS1307/ds1307.c: 175:  }
  2972   002108  EF94  F010         	goto	l5768
  2973   00210C                     l1012:
  2974                           
  2975                           ; BSR set to: 0
  2976                           ;ECU_Layer/DS1307/ds1307.c: 177:  {;ECU_Layer/DS1307/ds1307.c: 178:   Temp = pRTCArray[2
      +                          ];
  2977   00210C  C033  F021         	movff	_pRTCArray+2,_Temp
  2978   002110                     
  2979                           ; BSR set to: 0
  2980                           ;ECU_Layer/DS1307/ds1307.c: 179:   pRTCArray[2] = (Temp>>4)*10 + (Temp&0x0F);
  2981   002110  C021  F0D1         	movff	_Temp,??_Get_DS1307_RTC_Time
  2982   002114  0E0F               	movlw	15
  2983   002116  17D1               	andwf	??_Get_DS1307_RTC_Time& (0+255),f,b
  2984   002118  3821               	swapf	_Temp^0,w,c
  2985   00211A  0B0F               	andlw	15
  2986   00211C  0D0A               	mullw	10
  2987   00211E  50F3               	movf	243,w,c
  2988   002120  25D1               	addwf	??_Get_DS1307_RTC_Time& (0+255),w,b
  2989   002122  6E33               	movwf	(_pRTCArray+2)^0,c
  2990   002124                     
  2991                           ; BSR set to: 0
  2992                           ;ECU_Layer/DS1307/ds1307.c: 180:   pRTCArray[3] = 2;
  2993   002124  0E02               	movlw	2
  2994   002126  6E34               	movwf	(_pRTCArray+3)^0,c
  2995   002128                     l5768:
  2996                           
  2997                           ; BSR set to: 0
  2998                           ;ECU_Layer/DS1307/ds1307.c: 183:  return pRTCArray;
  2999   002128  0E31               	movlw	_pRTCArray& (0+255)
  3000   00212A                     
  3001                           ; BSR set to: 0
  3002   00212A  0012               	return		;funcret
  3003   00212C                     __end_of_Get_DS1307_RTC_Time:
  3004                           	callstack 0
  3005                           
  3006 ;; *************** function _Read_Bytes_From_DS1307_RTC *****************
  3007 ;; Defined at:
  3008 ;;		line 87 in file "ECU_Layer/DS1307/ds1307.c"
  3009 ;; Parameters:    Size  Location     Type
  3010 ;;  Address         1    wreg     unsigned char 
  3011 ;;  pData           1    0[BANK0 ] PTR unsigned char 
  3012 ;;		 -> pRTCArray(4), 
  3013 ;;  NoOfBytes       2    1[BANK0 ] unsigned int 
  3014 ;; Auto vars:     Size  Location     Type
  3015 ;;  Address         1    3[BANK0 ] unsigned char 
  3016 ;;  i               2    4[BANK0 ] unsigned int 
  3017 ;; Return value:  Size  Location     Type
  3018 ;;                  1    wreg      void 
  3019 ;; Registers used:
  3020 ;;		wreg, fsr2l, fsr2h, status,2, status,0, cstack
  3021 ;; Tracked objects:
  3022 ;;		On entry : 0/0
  3023 ;;		On exit  : 0/0
  3024 ;;		Unchanged: 0/0
  3025 ;; Data sizes:     COMRAM   BANK0   BANK1   BANK2   BANK3   BANK4   BANK5   BANK6   BANK7   BANK8   BANK9  BANK10  BANK1
      +1  BANK12  BANK13  BANK14  BANK15
  3026 ;;      Params:         0       3       0       0       0       0       0       0       0       0       0       0       
      +0       0       0       0       0
  3027 ;;      Locals:         0       3       0       0       0       0       0       0       0       0       0       0       
      +0       0       0       0       0
  3028 ;;      Temps:          0       0       0       0       0       0       0       0       0       0       0       0       
      +0       0       0       0       0
  3029 ;;      Totals:         0       6       0       0       0       0       0       0       0       0       0       0       
      +0       0       0       0       0
  3030 ;;Total ram usage:        6 bytes
  3031 ;; Hardware stack levels used: 1
  3032 ;; Hardware stack levels required when called: 6
  3033 ;; This function calls:
  3034 ;;		_I2C_ReStart
  3035 ;;		_I2C_Read_Byte
  3036 ;;		_I2C_Send_ACK
  3037 ;;		_I2C_Send_NACK
  3038 ;;		_I2C_Start
  3039 ;;		_I2C_Stop
  3040 ;;		_I2C_Write_Byte
  3041 ;; This function is called by:
  3042 ;;		_Get_DS1307_RTC_Time
  3043 ;;		_Get_DS1307_RTC_Date
  3044 ;; This function uses a non-reentrant model
  3045 ;;
  3046                           
  3047                           	psect	text14
  3048   002396                     __ptext14:
  3049                           	callstack 0
  3050   002396                     _Read_Bytes_From_DS1307_RTC:
  3051                           	callstack 22
  3052                           
  3053                           ; BSR set to: 0
  3054                           ;incstack = 0
  3055                           ;Read_Bytes_From_DS1307_RTC@Address stored from wreg
  3056   002396  0100               	movlb	0	; () banked
  3057   002398  6FCE               	movwf	Read_Bytes_From_DS1307_RTC@Address& (0+255),b
  3058   00239A                     l5544:
  3059                           
  3060                           ;ECU_Layer/DS1307/ds1307.c: 87: void Read_Bytes_From_DS1307_RTC(unsigned char Address, u
      +                          nsigned char* pData, unsigned int NoOfBytes);ECU_Layer/DS1307/ds1307.c: 88: {;ECU_Layer/
      +                          DS1307/ds1307.c: 89:  unsigned int i;;ECU_Layer/DS1307/ds1307.c: 91:  I2C_Start();
  3061   00239A  EC10  F019         	call	_I2C_Start	;wreg free
  3062   00239E                     
  3063                           ;ECU_Layer/DS1307/ds1307.c: 94:  while(I2C_Write_Byte(0xD0 + 0) == 1)
  3064   00239E  0ED0               	movlw	208
  3065   0023A0  EC9E  F018         	call	_I2C_Write_Byte
  3066   0023A4  06E8               	decf	wreg,f,c
  3067   0023A6  B4D8               	btfsc	status,2,c
  3068   0023A8  EFD8  F011         	goto	u5011
  3069   0023AC  EFDA  F011         	goto	u5010
  3070   0023B0                     u5011:
  3071   0023B0  EFCD  F011         	goto	l5544
  3072   0023B4                     u5010:
  3073   0023B4                     
  3074                           ;ECU_Layer/DS1307/ds1307.c: 97:  I2C_Write_Byte(Address);
  3075   0023B4  0100               	movlb	0	; () banked
  3076   0023B6  51CE               	movf	Read_Bytes_From_DS1307_RTC@Address& (0+255),w,b
  3077   0023B8  EC9E  F018         	call	_I2C_Write_Byte
  3078   0023BC                     
  3079                           ;ECU_Layer/DS1307/ds1307.c: 98:  I2C_ReStart();
  3080   0023BC  EC1A  F019         	call	_I2C_ReStart	;wreg free
  3081   0023C0                     
  3082                           ;ECU_Layer/DS1307/ds1307.c: 101:  I2C_Write_Byte(0xD0 + 1);
  3083   0023C0  0ED1               	movlw	209
  3084   0023C2  EC9E  F018         	call	_I2C_Write_Byte
  3085   0023C6                     
  3086                           ;ECU_Layer/DS1307/ds1307.c: 103:  pData[0] = I2C_Read_Byte();
  3087   0023C6  0100               	movlb	0	; () banked
  3088   0023C8  51CB               	movf	Read_Bytes_From_DS1307_RTC@pData& (0+255),w,b
  3089   0023CA  6ED9               	movwf	fsr2l,c
  3090   0023CC  6ADA               	clrf	fsr2h,c
  3091   0023CE  ECFB  F018         	call	_I2C_Read_Byte	;wreg free
  3092   0023D2  6EDF               	movwf	indf2,c
  3093   0023D4                     
  3094                           ;ECU_Layer/DS1307/ds1307.c: 105:  for(i=1;i<NoOfBytes;i++)
  3095   0023D4  0E00               	movlw	0
  3096   0023D6  0100               	movlb	0	; () banked
  3097   0023D8  6FD0               	movwf	(Read_Bytes_From_DS1307_RTC@i+1)& (0+255),b
  3098   0023DA  0E01               	movlw	1
  3099   0023DC  6FCF               	movwf	Read_Bytes_From_DS1307_RTC@i& (0+255),b
  3100   0023DE  EFFE  F011         	goto	l5566
  3101   0023E2                     l5560:
  3102                           
  3103                           ; BSR set to: 0
  3104                           ;ECU_Layer/DS1307/ds1307.c: 106:  {;ECU_Layer/DS1307/ds1307.c: 107:   I2C_Send_ACK();
  3105   0023E2  ECF0  F018         	call	_I2C_Send_ACK	;wreg free
  3106   0023E6                     
  3107                           ;ECU_Layer/DS1307/ds1307.c: 108:   pData[i] = I2C_Read_Byte();
  3108   0023E6  0100               	movlb	0	; () banked
  3109   0023E8  51CB               	movf	Read_Bytes_From_DS1307_RTC@pData& (0+255),w,b
  3110   0023EA  25CF               	addwf	Read_Bytes_From_DS1307_RTC@i& (0+255),w,b
  3111   0023EC  6ED9               	movwf	fsr2l,c
  3112   0023EE  6ADA               	clrf	fsr2h,c
  3113   0023F0  ECFB  F018         	call	_I2C_Read_Byte	;wreg free
  3114   0023F4  6EDF               	movwf	indf2,c
  3115   0023F6                     
  3116                           ;ECU_Layer/DS1307/ds1307.c: 109:  }
  3117   0023F6  0100               	movlb	0	; () banked
  3118   0023F8  4BCF               	infsnz	Read_Bytes_From_DS1307_RTC@i& (0+255),f,b
  3119   0023FA  2BD0               	incf	(Read_Bytes_From_DS1307_RTC@i+1)& (0+255),f,b
  3120   0023FC                     l5566:
  3121                           
  3122                           ; BSR set to: 0
  3123   0023FC  51CC               	movf	Read_Bytes_From_DS1307_RTC@NoOfBytes& (0+255),w,b
  3124   0023FE  5DCF               	subwf	Read_Bytes_From_DS1307_RTC@i& (0+255),w,b
  3125   002400  51CD               	movf	(Read_Bytes_From_DS1307_RTC@NoOfBytes+1)& (0+255),w,b
  3126   002402  59D0               	subwfb	(Read_Bytes_From_DS1307_RTC@i+1)& (0+255),w,b
  3127   002404  A0D8               	btfss	status,0,c
  3128   002406  EF07  F012         	goto	u5021
  3129   00240A  EF09  F012         	goto	u5020
  3130   00240E                     u5021:
  3131   00240E  EFF1  F011         	goto	l5560
  3132   002412                     u5020:
  3133   002412                     
  3134                           ; BSR set to: 0
  3135                           ;ECU_Layer/DS1307/ds1307.c: 111:  I2C_Send_NACK();
  3136   002412  ECE5  F018         	call	_I2C_Send_NACK	;wreg free
  3137                           
  3138                           ;ECU_Layer/DS1307/ds1307.c: 112:  I2C_Stop();
  3139   002416  EC06  F019         	call	_I2C_Stop	;wreg free
  3140   00241A  0012               	return		;funcret
  3141   00241C                     __end_of_Read_Bytes_From_DS1307_RTC:
  3142                           	callstack 0
  3143                           
  3144 ;; *************** function _I2C_Write_Byte *****************
  3145 ;; Defined at:
  3146 ;;		line 71 in file "MCAL_Layer/I2C/i2c.c"
  3147 ;; Parameters:    Size  Location     Type
  3148 ;;  Byte            1    wreg     unsigned char 
  3149 ;; Auto vars:     Size  Location     Type
  3150 ;;  Byte            1   18[COMRAM] unsigned char 
  3151 ;; Return value:  Size  Location     Type
  3152 ;;                  1    wreg      unsigned char 
  3153 ;; Registers used:
  3154 ;;		wreg
  3155 ;; Tracked objects:
  3156 ;;		On entry : 0/0
  3157 ;;		On exit  : 0/0
  3158 ;;		Unchanged: 0/0
  3159 ;; Data sizes:     COMRAM   BANK0   BANK1   BANK2   BANK3   BANK4   BANK5   BANK6   BANK7   BANK8   BANK9  BANK10  BANK1
      +1  BANK12  BANK13  BANK14  BANK15
  3160 ;;      Params:         0       0       0       0       0       0       0       0       0       0       0       0       
      +0       0       0       0       0
  3161 ;;      Locals:         1       0       0       0       0       0       0       0       0       0       0       0       
      +0       0       0       0       0
  3162 ;;      Temps:          0       0       0       0       0       0       0       0       0       0       0       0       
      +0       0       0       0       0
  3163 ;;      Totals:         1       0       0       0       0       0       0       0       0       0       0       0       
      +0       0       0       0       0
  3164 ;;Total ram usage:        1 bytes
  3165 ;; Hardware stack levels used: 1
  3166 ;; Hardware stack levels required when called: 5
  3167 ;; This function calls:
  3168 ;;		Nothing
  3169 ;; This function is called by:
  3170 ;;		_Read_Bytes_From_DS1307_RTC
  3171 ;;		_Write_Byte_To_DS1307_RTC
  3172 ;;		_Read_Byte_From_DS1307_RTC
  3173 ;;		_Write_Bytes_To_DS1307_RTC
  3174 ;; This function uses a non-reentrant model
  3175 ;;
  3176                           
  3177                           	psect	text15
  3178   00313C                     __ptext15:
  3179                           	callstack 0
  3180   00313C                     _I2C_Write_Byte:
  3181                           	callstack 22
  3182                           
  3183                           ;incstack = 0
  3184                           ;I2C_Write_Byte@Byte stored from wreg
  3185   00313C  6E68               	movwf	I2C_Write_Byte@Byte^0,c
  3186   00313E                     
  3187                           ;MCAL_Layer/I2C/i2c.c: 71: uint8 I2C_Write_Byte(unsigned char Byte);MCAL_Layer/I2C/i2c.c
      +                          : 72: {;MCAL_Layer/I2C/i2c.c: 73:  SSPBUF = Byte;
  3188   00313E  C068  FFC9         	movff	I2C_Write_Byte@Byte,4041	;volatile
  3189   003142                     l944:
  3190   003142  A69E               	btfss	3998,3,c	;volatile
  3191   003144  EFA6  F018         	goto	u4761
  3192   003148  EFA8  F018         	goto	u4760
  3193   00314C                     u4761:
  3194   00314C  EFA1  F018         	goto	l944
  3195   003150                     u4760:
  3196   003150                     
  3197                           ;MCAL_Layer/I2C/i2c.c: 75:  SSPIF = 0;
  3198   003150  969E               	bcf	3998,3,c	;volatile
  3199                           
  3200                           ;MCAL_Layer/I2C/i2c.c: 77:  return ACKSTAT;
  3201   003152  0E00               	movlw	0
  3202   003154  BCC5               	btfsc	4037,6,c	;volatile
  3203   003156  0E01               	movlw	1
  3204   003158  0012               	return		;funcret
  3205   00315A                     __end_of_I2C_Write_Byte:
  3206                           	callstack 0
  3207                           
  3208 ;; *************** function _I2C_Stop *****************
  3209 ;; Defined at:
  3210 ;;		line 41 in file "MCAL_Layer/I2C/i2c.c"
  3211 ;; Parameters:    Size  Location     Type
  3212 ;;		None
  3213 ;; Auto vars:     Size  Location     Type
  3214 ;;		None
  3215 ;; Return value:  Size  Location     Type
  3216 ;;                  1    wreg      void 
  3217 ;; Registers used:
  3218 ;;		None
  3219 ;; Tracked objects:
  3220 ;;		On entry : 0/0
  3221 ;;		On exit  : 0/0
  3222 ;;		Unchanged: 0/0
  3223 ;; Data sizes:     COMRAM   BANK0   BANK1   BANK2   BANK3   BANK4   BANK5   BANK6   BANK7   BANK8   BANK9  BANK10  BANK1
      +1  BANK12  BANK13  BANK14  BANK15
  3224 ;;      Params:         0       0       0       0       0       0       0       0       0       0       0       0       
      +0       0       0       0       0
  3225 ;;      Locals:         0       0       0       0       0       0       0       0       0       0       0       0       
      +0       0       0       0       0
  3226 ;;      Temps:          0       0       0       0       0       0       0       0       0       0       0       0       
      +0       0       0       0       0
  3227 ;;      Totals:         0       0       0       0       0       0       0       0       0       0       0       0       
      +0       0       0       0       0
  3228 ;;Total ram usage:        0 bytes
  3229 ;; Hardware stack levels used: 1
  3230 ;; Hardware stack levels required when called: 5
  3231 ;; This function calls:
  3232 ;;		Nothing
  3233 ;; This function is called by:
  3234 ;;		_Read_Bytes_From_DS1307_RTC
  3235 ;;		_Write_Byte_To_DS1307_RTC
  3236 ;;		_Read_Byte_From_DS1307_RTC
  3237 ;;		_Write_Bytes_To_DS1307_RTC
  3238 ;; This function uses a non-reentrant model
  3239 ;;
  3240                           
  3241                           	psect	text16
  3242   00320C                     __ptext16:
  3243                           	callstack 0
  3244   00320C                     _I2C_Stop:
  3245                           	callstack 22
  3246   00320C                     
  3247                           ;MCAL_Layer/I2C/i2c.c: 43:  PEN = 1;
  3248   00320C  84C5               	bsf	4037,2,c	;volatile
  3249   00320E                     l926:
  3250   00320E  A69E               	btfss	3998,3,c	;volatile
  3251   003210  EF0C  F019         	goto	u4731
  3252   003214  EF0E  F019         	goto	u4730
  3253   003218                     u4731:
  3254   003218  EF07  F019         	goto	l926
  3255   00321C                     u4730:
  3256   00321C                     
  3257                           ;MCAL_Layer/I2C/i2c.c: 45:  SSPIF = 0;
  3258   00321C  969E               	bcf	3998,3,c	;volatile
  3259   00321E  0012               	return		;funcret
  3260   003220                     __end_of_I2C_Stop:
  3261                           	callstack 0
  3262                           
  3263 ;; *************** function _I2C_Start *****************
  3264 ;; Defined at:
  3265 ;;		line 23 in file "MCAL_Layer/I2C/i2c.c"
  3266 ;; Parameters:    Size  Location     Type
  3267 ;;		None
  3268 ;; Auto vars:     Size  Location     Type
  3269 ;;		None
  3270 ;; Return value:  Size  Location     Type
  3271 ;;                  1    wreg      void 
  3272 ;; Registers used:
  3273 ;;		None
  3274 ;; Tracked objects:
  3275 ;;		On entry : 0/0
  3276 ;;		On exit  : 0/0
  3277 ;;		Unchanged: 0/0
  3278 ;; Data sizes:     COMRAM   BANK0   BANK1   BANK2   BANK3   BANK4   BANK5   BANK6   BANK7   BANK8   BANK9  BANK10  BANK1
      +1  BANK12  BANK13  BANK14  BANK15
  3279 ;;      Params:         0       0       0       0       0       0       0       0       0       0       0       0       
      +0       0       0       0       0
  3280 ;;      Locals:         0       0       0       0       0       0       0       0       0       0       0       0       
      +0       0       0       0       0
  3281 ;;      Temps:          0       0       0       0       0       0       0       0       0       0       0       0       
      +0       0       0       0       0
  3282 ;;      Totals:         0       0       0       0       0       0       0       0       0       0       0       0       
      +0       0       0       0       0
  3283 ;;Total ram usage:        0 bytes
  3284 ;; Hardware stack levels used: 1
  3285 ;; Hardware stack levels required when called: 5
  3286 ;; This function calls:
  3287 ;;		Nothing
  3288 ;; This function is called by:
  3289 ;;		_Read_Bytes_From_DS1307_RTC
  3290 ;;		_Write_Byte_To_DS1307_RTC
  3291 ;;		_Read_Byte_From_DS1307_RTC
  3292 ;;		_Write_Bytes_To_DS1307_RTC
  3293 ;; This function uses a non-reentrant model
  3294 ;;
  3295                           
  3296                           	psect	text17
  3297   003220                     __ptext17:
  3298                           	callstack 0
  3299   003220                     _I2C_Start:
  3300                           	callstack 22
  3301   003220                     
  3302                           ;MCAL_Layer/I2C/i2c.c: 25:  SEN = 1;
  3303   003220  80C5               	bsf	4037,0,c	;volatile
  3304   003222                     l914:
  3305   003222  A69E               	btfss	3998,3,c	;volatile
  3306   003224  EF16  F019         	goto	u4711
  3307   003228  EF18  F019         	goto	u4710
  3308   00322C                     u4711:
  3309   00322C  EF11  F019         	goto	l914
  3310   003230                     u4710:
  3311   003230                     
  3312                           ;MCAL_Layer/I2C/i2c.c: 27:  SSPIF = 0;
  3313   003230  969E               	bcf	3998,3,c	;volatile
  3314   003232  0012               	return		;funcret
  3315   003234                     __end_of_I2C_Start:
  3316                           	callstack 0
  3317                           
  3318 ;; *************** function _I2C_Send_NACK *****************
  3319 ;; Defined at:
  3320 ;;		line 61 in file "MCAL_Layer/I2C/i2c.c"
  3321 ;; Parameters:    Size  Location     Type
  3322 ;;		None
  3323 ;; Auto vars:     Size  Location     Type
  3324 ;;		None
  3325 ;; Return value:  Size  Location     Type
  3326 ;;                  1    wreg      void 
  3327 ;; Registers used:
  3328 ;;		None
  3329 ;; Tracked objects:
  3330 ;;		On entry : 0/0
  3331 ;;		On exit  : 0/0
  3332 ;;		Unchanged: 0/0
  3333 ;; Data sizes:     COMRAM   BANK0   BANK1   BANK2   BANK3   BANK4   BANK5   BANK6   BANK7   BANK8   BANK9  BANK10  BANK1
      +1  BANK12  BANK13  BANK14  BANK15
  3334 ;;      Params:         0       0       0       0       0       0       0       0       0       0       0       0       
      +0       0       0       0       0
  3335 ;;      Locals:         0       0       0       0       0       0       0       0       0       0       0       0       
      +0       0       0       0       0
  3336 ;;      Temps:          0       0       0       0       0       0       0       0       0       0       0       0       
      +0       0       0       0       0
  3337 ;;      Totals:         0       0       0       0       0       0       0       0       0       0       0       0       
      +0       0       0       0       0
  3338 ;;Total ram usage:        0 bytes
  3339 ;; Hardware stack levels used: 1
  3340 ;; Hardware stack levels required when called: 5
  3341 ;; This function calls:
  3342 ;;		Nothing
  3343 ;; This function is called by:
  3344 ;;		_Read_Bytes_From_DS1307_RTC
  3345 ;;		_Read_Byte_From_DS1307_RTC
  3346 ;; This function uses a non-reentrant model
  3347 ;;
  3348                           
  3349                           	psect	text18
  3350   0031CA                     __ptext18:
  3351                           	callstack 0
  3352   0031CA                     _I2C_Send_NACK:
  3353                           	callstack 22
  3354   0031CA                     
  3355                           ;MCAL_Layer/I2C/i2c.c: 63:  ACKDT = 1;
  3356   0031CA  8AC5               	bsf	4037,5,c	;volatile
  3357                           
  3358                           ;MCAL_Layer/I2C/i2c.c: 64:  ACKEN = 1;
  3359   0031CC  88C5               	bsf	4037,4,c	;volatile
  3360   0031CE                     l938:
  3361   0031CE  A69E               	btfss	3998,3,c	;volatile
  3362   0031D0  EFEC  F018         	goto	u4751
  3363   0031D4  EFEE  F018         	goto	u4750
  3364   0031D8                     u4751:
  3365   0031D8  EFE7  F018         	goto	l938
  3366   0031DC                     u4750:
  3367   0031DC                     
  3368                           ;MCAL_Layer/I2C/i2c.c: 66:  SSPIF = 0;
  3369   0031DC  969E               	bcf	3998,3,c	;volatile
  3370   0031DE  0012               	return		;funcret
  3371   0031E0                     __end_of_I2C_Send_NACK:
  3372                           	callstack 0
  3373                           
  3374 ;; *************** function _I2C_Send_ACK *****************
  3375 ;; Defined at:
  3376 ;;		line 51 in file "MCAL_Layer/I2C/i2c.c"
  3377 ;; Parameters:    Size  Location     Type
  3378 ;;		None
  3379 ;; Auto vars:     Size  Location     Type
  3380 ;;		None
  3381 ;; Return value:  Size  Location     Type
  3382 ;;                  1    wreg      void 
  3383 ;; Registers used:
  3384 ;;		None
  3385 ;; Tracked objects:
  3386 ;;		On entry : 0/0
  3387 ;;		On exit  : 0/0
  3388 ;;		Unchanged: 0/0
  3389 ;; Data sizes:     COMRAM   BANK0   BANK1   BANK2   BANK3   BANK4   BANK5   BANK6   BANK7   BANK8   BANK9  BANK10  BANK1
      +1  BANK12  BANK13  BANK14  BANK15
  3390 ;;      Params:         0       0       0       0       0       0       0       0       0       0       0       0       
      +0       0       0       0       0
  3391 ;;      Locals:         0       0       0       0       0       0       0       0       0       0       0       0       
      +0       0       0       0       0
  3392 ;;      Temps:          0       0       0       0       0       0       0       0       0       0       0       0       
      +0       0       0       0       0
  3393 ;;      Totals:         0       0       0       0       0       0       0       0       0       0       0       0       
      +0       0       0       0       0
  3394 ;;Total ram usage:        0 bytes
  3395 ;; Hardware stack levels used: 1
  3396 ;; Hardware stack levels required when called: 5
  3397 ;; This function calls:
  3398 ;;		Nothing
  3399 ;; This function is called by:
  3400 ;;		_Read_Bytes_From_DS1307_RTC
  3401 ;; This function uses a non-reentrant model
  3402 ;;
  3403                           
  3404                           	psect	text19
  3405   0031E0                     __ptext19:
  3406                           	callstack 0
  3407   0031E0                     _I2C_Send_ACK:
  3408                           	callstack 22
  3409   0031E0                     
  3410                           ;MCAL_Layer/I2C/i2c.c: 53:  ACKDT = 0;
  3411   0031E0  9AC5               	bcf	4037,5,c	;volatile
  3412                           
  3413                           ;MCAL_Layer/I2C/i2c.c: 54:  ACKEN = 1;
  3414   0031E2  88C5               	bsf	4037,4,c	;volatile
  3415   0031E4                     l932:
  3416   0031E4  A69E               	btfss	3998,3,c	;volatile
  3417   0031E6  EFF7  F018         	goto	u4741
  3418   0031EA  EFF9  F018         	goto	u4740
  3419   0031EE                     u4741:
  3420   0031EE  EFF2  F018         	goto	l932
  3421   0031F2                     u4740:
  3422   0031F2                     
  3423                           ;MCAL_Layer/I2C/i2c.c: 56:  SSPIF = 0;
  3424   0031F2  969E               	bcf	3998,3,c	;volatile
  3425   0031F4  0012               	return		;funcret
  3426   0031F6                     __end_of_I2C_Send_ACK:
  3427                           	callstack 0
  3428                           
  3429 ;; *************** function _I2C_Read_Byte *****************
  3430 ;; Defined at:
  3431 ;;		line 82 in file "MCAL_Layer/I2C/i2c.c"
  3432 ;; Parameters:    Size  Location     Type
  3433 ;;		None
  3434 ;; Auto vars:     Size  Location     Type
  3435 ;;		None
  3436 ;; Return value:  Size  Location     Type
  3437 ;;                  1    wreg      unsigned char 
  3438 ;; Registers used:
  3439 ;;		wreg, status,2
  3440 ;; Tracked objects:
  3441 ;;		On entry : 0/0
  3442 ;;		On exit  : 0/0
  3443 ;;		Unchanged: 0/0
  3444 ;; Data sizes:     COMRAM   BANK0   BANK1   BANK2   BANK3   BANK4   BANK5   BANK6   BANK7   BANK8   BANK9  BANK10  BANK1
      +1  BANK12  BANK13  BANK14  BANK15
  3445 ;;      Params:         0       0       0       0       0       0       0       0       0       0       0       0       
      +0       0       0       0       0
  3446 ;;      Locals:         0       0       0       0       0       0       0       0       0       0       0       0       
      +0       0       0       0       0
  3447 ;;      Temps:          0       0       0       0       0       0       0       0       0       0       0       0       
      +0       0       0       0       0
  3448 ;;      Totals:         0       0       0       0       0       0       0       0       0       0       0       0       
      +0       0       0       0       0
  3449 ;;Total ram usage:        0 bytes
  3450 ;; Hardware stack levels used: 1
  3451 ;; Hardware stack levels required when called: 5
  3452 ;; This function calls:
  3453 ;;		Nothing
  3454 ;; This function is called by:
  3455 ;;		_Read_Bytes_From_DS1307_RTC
  3456 ;;		_Read_Byte_From_DS1307_RTC
  3457 ;; This function uses a non-reentrant model
  3458 ;;
  3459                           
  3460                           	psect	text20
  3461   0031F6                     __ptext20:
  3462                           	callstack 0
  3463   0031F6                     _I2C_Read_Byte:
  3464                           	callstack 22
  3465   0031F6                     
  3466                           ;MCAL_Layer/I2C/i2c.c: 84:  RCEN = 1;
  3467   0031F6  86C5               	bsf	4037,3,c	;volatile
  3468   0031F8                     l950:
  3469   0031F8  A69E               	btfss	3998,3,c	;volatile
  3470   0031FA  EF01  F019         	goto	u4771
  3471   0031FE  EF03  F019         	goto	u4770
  3472   003202                     u4771:
  3473   003202  EFFC  F018         	goto	l950
  3474   003206                     u4770:
  3475   003206                     
  3476                           ;MCAL_Layer/I2C/i2c.c: 86:  SSPIF = 0;
  3477   003206  969E               	bcf	3998,3,c	;volatile
  3478   003208                     
  3479                           ;MCAL_Layer/I2C/i2c.c: 88:     return SSPBUF;
  3480   003208  50C9               	movf	201,w,c	;volatile
  3481   00320A  0012               	return		;funcret
  3482   00320C                     __end_of_I2C_Read_Byte:
  3483                           	callstack 0
  3484                           
  3485 ;; *************** function _I2C_ReStart *****************
  3486 ;; Defined at:
  3487 ;;		line 32 in file "MCAL_Layer/I2C/i2c.c"
  3488 ;; Parameters:    Size  Location     Type
  3489 ;;		None
  3490 ;; Auto vars:     Size  Location     Type
  3491 ;;		None
  3492 ;; Return value:  Size  Location     Type
  3493 ;;                  1    wreg      void 
  3494 ;; Registers used:
  3495 ;;		None
  3496 ;; Tracked objects:
  3497 ;;		On entry : 0/0
  3498 ;;		On exit  : 0/0
  3499 ;;		Unchanged: 0/0
  3500 ;; Data sizes:     COMRAM   BANK0   BANK1   BANK2   BANK3   BANK4   BANK5   BANK6   BANK7   BANK8   BANK9  BANK10  BANK1
      +1  BANK12  BANK13  BANK14  BANK15
  3501 ;;      Params:         0       0       0       0       0       0       0       0       0       0       0       0       
      +0       0       0       0       0
  3502 ;;      Locals:         0       0       0       0       0       0       0       0       0       0       0       0       
      +0       0       0       0       0
  3503 ;;      Temps:          0       0       0       0       0       0       0       0       0       0       0       0       
      +0       0       0       0       0
  3504 ;;      Totals:         0       0       0       0       0       0       0       0       0       0       0       0       
      +0       0       0       0       0
  3505 ;;Total ram usage:        0 bytes
  3506 ;; Hardware stack levels used: 1
  3507 ;; Hardware stack levels required when called: 5
  3508 ;; This function calls:
  3509 ;;		Nothing
  3510 ;; This function is called by:
  3511 ;;		_Read_Bytes_From_DS1307_RTC
  3512 ;;		_Read_Byte_From_DS1307_RTC
  3513 ;; This function uses a non-reentrant model
  3514 ;;
  3515                           
  3516                           	psect	text21
  3517   003234                     __ptext21:
  3518                           	callstack 0
  3519   003234                     _I2C_ReStart:
  3520                           	callstack 22
  3521   003234                     
  3522                           ;MCAL_Layer/I2C/i2c.c: 34:  RSEN = 1;
  3523   003234  82C5               	bsf	4037,1,c	;volatile
  3524   003236                     l920:
  3525   003236  A69E               	btfss	3998,3,c	;volatile
  3526   003238  EF20  F019         	goto	u4721
  3527   00323C  EF22  F019         	goto	u4720
  3528   003240                     u4721:
  3529   003240  EF1B  F019         	goto	l920
  3530   003244                     u4720:
  3531   003244                     
  3532                           ;MCAL_Layer/I2C/i2c.c: 36:  SSPIF = 0;
  3533   003244  969E               	bcf	3998,3,c	;volatile
  3534   003246  0012               	return		;funcret
  3535   003248                     __end_of_I2C_ReStart:
  3536                           	callstack 0
  3537                           
  3538 ;; *************** function _application_initialize *****************
  3539 ;; Defined at:
  3540 ;;		line 69 in file "application.c"
  3541 ;; Parameters:    Size  Location     Type
  3542 ;;		None
  3543 ;; Auto vars:     Size  Location     Type
  3544 ;;  retVal          1    0        unsigned char 
  3545 ;; Return value:  Size  Location     Type
  3546 ;;                  1    wreg      void 
  3547 ;; Registers used:
  3548 ;;		wreg, fsr2l, fsr2h, status,2, status,0, prodl, prodh, cstack
  3549 ;; Tracked objects:
  3550 ;;		On entry : 0/0
  3551 ;;		On exit  : 0/0
  3552 ;;		Unchanged: 0/0
  3553 ;; Data sizes:     COMRAM   BANK0   BANK1   BANK2   BANK3   BANK4   BANK5   BANK6   BANK7   BANK8   BANK9  BANK10  BANK1
      +1  BANK12  BANK13  BANK14  BANK15
  3554 ;;      Params:         0       0       0       0       0       0       0       0       0       0       0       0       
      +0       0       0       0       0
  3555 ;;      Locals:         0       0       0       0       0       0       0       0       0       0       0       0       
      +0       0       0       0       0
  3556 ;;      Temps:          0       0       0       0       0       0       0       0       0       0       0       0       
      +0       0       0       0       0
  3557 ;;      Totals:         0       0       0       0       0       0       0       0       0       0       0       0       
      +0       0       0       0       0
  3558 ;;Total ram usage:        0 bytes
  3559 ;; Hardware stack levels used: 1
  3560 ;; Hardware stack levels required when called: 10
  3561 ;; This function calls:
  3562 ;;		_ecu_layer_initialize
  3563 ;;		_mcal_layer_initialize
  3564 ;; This function is called by:
  3565 ;;		_main
  3566 ;; This function uses a non-reentrant model
  3567 ;;
  3568                           
  3569                           	psect	text22
  3570   003268                     __ptext22:
  3571                           	callstack 0
  3572   003268                     _application_initialize:
  3573                           	callstack 20
  3574   003268                     
  3575                           ;application.c: 71:     ecu_layer_initialize();
  3576   003268  ECD1  F012         	call	_ecu_layer_initialize	;wreg free
  3577   00326C                     
  3578                           ;application.c: 72:     mcal_layer_initialize();
  3579   00326C  EC39  F017         	call	_mcal_layer_initialize	;wreg free
  3580   003270  0012               	return		;funcret
  3581   003272                     __end_of_application_initialize:
  3582                           	callstack 0
  3583                           
  3584 ;; *************** function _mcal_layer_initialize *****************
  3585 ;; Defined at:
  3586 ;;		line 82 in file "MCAL_Layer/mcal_layer_initialize.c"
  3587 ;; Parameters:    Size  Location     Type
  3588 ;;		None
  3589 ;; Auto vars:     Size  Location     Type
  3590 ;;  retVal          1    0        unsigned char 
  3591 ;; Return value:  Size  Location     Type
  3592 ;;                  1    wreg      void 
  3593 ;; Registers used:
  3594 ;;		wreg, fsr2l, fsr2h, status,2, status,0, prodl, prodh, cstack
  3595 ;; Tracked objects:
  3596 ;;		On entry : 0/0
  3597 ;;		On exit  : 0/0
  3598 ;;		Unchanged: 0/0
  3599 ;; Data sizes:     COMRAM   BANK0   BANK1   BANK2   BANK3   BANK4   BANK5   BANK6   BANK7   BANK8   BANK9  BANK10  BANK1
      +1  BANK12  BANK13  BANK14  BANK15
  3600 ;;      Params:         0       0       0       0       0       0       0       0       0       0       0       0       
      +0       0       0       0       0
  3601 ;;      Locals:         0       0       0       0       0       0       0       0       0       0       0       0       
      +0       0       0       0       0
  3602 ;;      Temps:          0       0       0       0       0       0       0       0       0       0       0       0       
      +0       0       0       0       0
  3603 ;;      Totals:         0       0       0       0       0       0       0       0       0       0       0       0       
      +0       0       0       0       0
  3604 ;;Total ram usage:        0 bytes
  3605 ;; Hardware stack levels used: 1
  3606 ;; Hardware stack levels required when called: 9
  3607 ;; This function calls:
  3608 ;;		_Interrupt_INTx_Init
  3609 ;;		_Interrupt_RBx_Init
  3610 ;;		_Timer0_Init
  3611 ;;		_gpio_pin_initialize
  3612 ;; This function is called by:
  3613 ;;		_application_initialize
  3614 ;; This function uses a non-reentrant model
  3615 ;;
  3616                           
  3617                           	psect	text23
  3618   002E72                     __ptext23:
  3619                           	callstack 0
  3620   002E72                     _mcal_layer_initialize:
  3621                           	callstack 20
  3622   002E72  0EA6               	movlw	low _timer
  3623   002E74  6E6A               	movwf	Timer0_Init@timer0^0,c
  3624   002E76  EC3E  F011         	call	_Timer0_Init	;wreg free
  3625   002E7A  0EC5               	movlw	low _reset_int
  3626   002E7C  0100               	movlb	0	; () banked
  3627   002E7E  6FD5               	movwf	Interrupt_INTx_Init@int_obj& (0+255),b
  3628   002E80  EC0D  F015         	call	_Interrupt_INTx_Init	;wreg free
  3629   002E84  0EBF               	movlw	low _count_up_int
  3630   002E86  0100               	movlb	0	; () banked
  3631   002E88  6FD5               	movwf	Interrupt_INTx_Init@int_obj& (0+255),b
  3632   002E8A  EC0D  F015         	call	_Interrupt_INTx_Init	;wreg free
  3633   002E8E  0EB9               	movlw	low _count_down_int
  3634   002E90  0100               	movlb	0	; () banked
  3635   002E92  6FD5               	movwf	Interrupt_INTx_Init@int_obj& (0+255),b
  3636   002E94  EC0D  F015         	call	_Interrupt_INTx_Init	;wreg free
  3637   002E98  0EB3               	movlw	low _pause_resume_int
  3638   002E9A  0100               	movlb	0	; () banked
  3639   002E9C  6FD5               	movwf	Interrupt_RBx_Init@int_obj& (0+255),b
  3640   002E9E  EC32  F00D         	call	_Interrupt_RBx_Init	;wreg free
  3641   002EA2  0EAD               	movlw	low _clock_mode_int
  3642   002EA4  0100               	movlb	0	; () banked
  3643   002EA6  6FD5               	movwf	Interrupt_RBx_Init@int_obj& (0+255),b
  3644   002EA8  EC32  F00D         	call	_Interrupt_RBx_Init	;wreg free
  3645   002EAC  0E4B               	movlw	low _buzzer
  3646   002EAE  0100               	movlb	0	; () banked
  3647   002EB0  6FD0               	movwf	gpio_pin_initialize@config& (0+255),b
  3648   002EB2  ECD9  F014         	call	_gpio_pin_initialize	;wreg free
  3649   002EB6  0012               	return		;funcret
  3650   002EB8                     __end_of_mcal_layer_initialize:
  3651                           	callstack 0
  3652                           
  3653 ;; *************** function _Timer0_Init *****************
  3654 ;; Defined at:
  3655 ;;		line 28 in file "MCAL_Layer/Timer0/hal_timer0.c"
  3656 ;; Parameters:    Size  Location     Type
  3657 ;;  timer0          1   20[COMRAM] PTR const struct .
  3658 ;;		 -> timer(7), 
  3659 ;; Auto vars:     Size  Location     Type
  3660 ;;  retVal          1    2[BANK0 ] unsigned char 
  3661 ;; Return value:  Size  Location     Type
  3662 ;;                  1    wreg      unsigned char 
  3663 ;; Registers used:
  3664 ;;		wreg, fsr2l, fsr2h, status,2, status,0, cstack
  3665 ;; Tracked objects:
  3666 ;;		On entry : 0/0
  3667 ;;		On exit  : 0/0
  3668 ;;		Unchanged: 0/0
  3669 ;; Data sizes:     COMRAM   BANK0   BANK1   BANK2   BANK3   BANK4   BANK5   BANK6   BANK7   BANK8   BANK9  BANK10  BANK1
      +1  BANK12  BANK13  BANK14  BANK15
  3670 ;;      Params:         1       0       0       0       0       0       0       0       0       0       0       0       
      +0       0       0       0       0
  3671 ;;      Locals:         0       1       0       0       0       0       0       0       0       0       0       0       
      +0       0       0       0       0
  3672 ;;      Temps:          0       2       0       0       0       0       0       0       0       0       0       0       
      +0       0       0       0       0
  3673 ;;      Totals:         1       3       0       0       0       0       0       0       0       0       0       0       
      +0       0       0       0       0
  3674 ;;Total ram usage:        4 bytes
  3675 ;; Hardware stack levels used: 1
  3676 ;; Hardware stack levels required when called: 6
  3677 ;; This function calls:
  3678 ;;		_Timer0_Mode_Select
  3679 ;;		_Timer0_Prescaler_Config
  3680 ;;		_Timer0_Register_Size_Config
  3681 ;; This function is called by:
  3682 ;;		_mcal_layer_initialize
  3683 ;; This function uses a non-reentrant model
  3684 ;;
  3685                           
  3686                           	psect	text24
  3687   00227C                     __ptext24:
  3688                           	callstack 0
  3689   00227C                     _Timer0_Init:
  3690                           	callstack 22
  3691   00227C                     
  3692                           ;MCAL_Layer/Timer0/hal_timer0.c: 30:     if(((void*)0) == timer0){
  3693   00227C  506A               	movf	Timer0_Init@timer0^0,w,c
  3694   00227E  A4D8               	btfss	status,2,c
  3695   002280  EF44  F011         	goto	u5001
  3696   002284  EF46  F011         	goto	u5000
  3697   002288                     u5001:
  3698   002288  EF4B  F011         	goto	l579
  3699   00228C                     u5000:
  3700   00228C                     
  3701                           ;MCAL_Layer/Timer0/hal_timer0.c: 31:         retVal = (Std_ReturnType)0x00;
  3702   00228C  0E00               	movlw	0
  3703   00228E  0100               	movlb	0	; () banked
  3704   002290  6FCD               	movwf	Timer0_Init@retVal& (0+255),b
  3705                           
  3706                           ;MCAL_Layer/Timer0/hal_timer0.c: 32:     }
  3707   002292  EF85  F011         	goto	l5540
  3708   002296                     l579:
  3709                           
  3710                           ;MCAL_Layer/Timer0/hal_timer0.c: 35:         (T0CONbits.TMR0ON = 0);
  3711   002296  9ED5               	bcf	213,7,c	;volatile
  3712   002298                     
  3713                           ;MCAL_Layer/Timer0/hal_timer0.c: 37:         Timer0_Prescaler_Config(timer0);
  3714   002298  C06A  F068         	movff	Timer0_Init@timer0,Timer0_Prescaler_Config@timer0
  3715   00229C  EC71  F015         	call	_Timer0_Prescaler_Config	;wreg free
  3716                           
  3717                           ;MCAL_Layer/Timer0/hal_timer0.c: 39:         Timer0_Mode_Select(timer0);
  3718   0022A0  C06A  F068         	movff	Timer0_Init@timer0,Timer0_Mode_Select@timer0
  3719   0022A4  EC0E  F012         	call	_Timer0_Mode_Select	;wreg free
  3720                           
  3721                           ;MCAL_Layer/Timer0/hal_timer0.c: 41:         Timer0_Register_Size_Config(timer0);
  3722   0022A8  C06A  F068         	movff	Timer0_Init@timer0,Timer0_Register_Size_Config@timer0
  3723   0022AC  ECF1  F016         	call	_Timer0_Register_Size_Config	;wreg free
  3724   0022B0                     
  3725                           ;MCAL_Layer/Timer0/hal_timer0.c: 43:         TMR0H = (timer0->timer0_preload_value) >> 8
      +                          ;
  3726   0022B0  506A               	movf	Timer0_Init@timer0^0,w,c
  3727   0022B2  6ED9               	movwf	fsr2l,c
  3728   0022B4  6ADA               	clrf	fsr2h,c
  3729   0022B6  0E04               	movlw	4
  3730   0022B8  26D9               	addwf	fsr2l,f,c
  3731   0022BA  CFDE F0CB          	movff	postinc2,??_Timer0_Init
  3732   0022BE  CFDD F0CC          	movff	postdec2,??_Timer0_Init+1
  3733   0022C2  C0CC  F0CB         	movff	??_Timer0_Init+1,??_Timer0_Init
  3734   0022C6  0100               	movlb	0	; () banked
  3735   0022C8  6BCC               	clrf	(??_Timer0_Init+1)& (0+255),b
  3736   0022CA  51CB               	movf	??_Timer0_Init& (0+255),w,b
  3737   0022CC  6ED7               	movwf	215,c	;volatile
  3738   0022CE                     
  3739                           ; BSR set to: 0
  3740                           ;MCAL_Layer/Timer0/hal_timer0.c: 44:         TMR0L = (uint8)(timer0->timer0_preload_valu
      +                          e);
  3741   0022CE  506A               	movf	Timer0_Init@timer0^0,w,c
  3742   0022D0  6ED9               	movwf	fsr2l,c
  3743   0022D2  6ADA               	clrf	fsr2h,c
  3744   0022D4  0E04               	movlw	4
  3745   0022D6  26D9               	addwf	fsr2l,f,c
  3746   0022D8  50DF               	movf	indf2,w,c
  3747   0022DA  6ED6               	movwf	214,c	;volatile
  3748   0022DC                     
  3749                           ; BSR set to: 0
  3750                           ;MCAL_Layer/Timer0/hal_timer0.c: 45:         timer0_preload = timer0->timer0_preload_val
      +                          ue;
  3751   0022DC  506A               	movf	Timer0_Init@timer0^0,w,c
  3752   0022DE  6ED9               	movwf	fsr2l,c
  3753   0022E0  6ADA               	clrf	fsr2h,c
  3754   0022E2  0E04               	movlw	4
  3755   0022E4  26D9               	addwf	fsr2l,f,c
  3756   0022E6  CFDE F007          	movff	postinc2,_timer0_preload	;volatile
  3757   0022EA  CFDD F008          	movff	postdec2,_timer0_preload+1	;volatile
  3758   0022EE                     
  3759                           ; BSR set to: 0
  3760                           ;MCAL_Layer/Timer0/hal_timer0.c: 48:         (INTCONbits.TMR0IE = 1);
  3761   0022EE  8AF2               	bsf	242,5,c	;volatile
  3762   0022F0                     
  3763                           ; BSR set to: 0
  3764                           ;MCAL_Layer/Timer0/hal_timer0.c: 49:         (INTCONbits.TMR0IF = 0);
  3765   0022F0  94F2               	bcf	242,2,c	;volatile
  3766   0022F2                     
  3767                           ; BSR set to: 0
  3768                           ;MCAL_Layer/Timer0/hal_timer0.c: 50:         TMR0_InterruptHandler = timer0->TMR0_Interr
      +                          uptHandler;
  3769   0022F2  506A               	movf	Timer0_Init@timer0^0,w,c
  3770   0022F4  6ED9               	movwf	fsr2l,c
  3771   0022F6  6ADA               	clrf	fsr2h,c
  3772   0022F8  CFDE F009          	movff	postinc2,_TMR0_InterruptHandler
  3773   0022FC  CFDD F00A          	movff	postdec2,_TMR0_InterruptHandler+1
  3774   002300                     
  3775                           ; BSR set to: 0
  3776                           ;MCAL_Layer/Timer0/hal_timer0.c: 63:         (INTCONbits.GIE = 1);
  3777   002300  8EF2               	bsf	242,7,c	;volatile
  3778   002302                     
  3779                           ; BSR set to: 0
  3780                           ;MCAL_Layer/Timer0/hal_timer0.c: 64:         (INTCONbits.PEIE = 1);
  3781   002302  8CF2               	bsf	242,6,c	;volatile
  3782   002304                     
  3783                           ; BSR set to: 0
  3784                           ;MCAL_Layer/Timer0/hal_timer0.c: 68:         (T0CONbits.TMR0ON = 1);
  3785   002304  8ED5               	bsf	213,7,c	;volatile
  3786   002306                     
  3787                           ; BSR set to: 0
  3788                           ;MCAL_Layer/Timer0/hal_timer0.c: 69:         retVal = (Std_ReturnType)0x01;
  3789   002306  0E01               	movlw	1
  3790   002308  6FCD               	movwf	Timer0_Init@retVal& (0+255),b
  3791   00230A                     l5540:
  3792                           
  3793                           ; BSR set to: 0
  3794                           ;MCAL_Layer/Timer0/hal_timer0.c: 71:     return retVal;
  3795   00230A  51CD               	movf	Timer0_Init@retVal& (0+255),w,b
  3796   00230C                     
  3797                           ; BSR set to: 0
  3798   00230C  0012               	return		;funcret
  3799   00230E                     __end_of_Timer0_Init:
  3800                           	callstack 0
  3801                           
  3802 ;; *************** function _Timer0_Register_Size_Config *****************
  3803 ;; Defined at:
  3804 ;;		line 175 in file "MCAL_Layer/Timer0/hal_timer0.c"
  3805 ;; Parameters:    Size  Location     Type
  3806 ;;  timer0          1   18[COMRAM] PTR const struct .
  3807 ;;		 -> timer(7), 
  3808 ;; Auto vars:     Size  Location     Type
  3809 ;;		None
  3810 ;; Return value:  Size  Location     Type
  3811 ;;                  1    wreg      void 
  3812 ;; Registers used:
  3813 ;;		wreg, fsr2l, fsr2h, status,2, status,0
  3814 ;; Tracked objects:
  3815 ;;		On entry : 0/0
  3816 ;;		On exit  : 0/0
  3817 ;;		Unchanged: 0/0
  3818 ;; Data sizes:     COMRAM   BANK0   BANK1   BANK2   BANK3   BANK4   BANK5   BANK6   BANK7   BANK8   BANK9  BANK10  BANK1
      +1  BANK12  BANK13  BANK14  BANK15
  3819 ;;      Params:         1       0       0       0       0       0       0       0       0       0       0       0       
      +0       0       0       0       0
  3820 ;;      Locals:         0       0       0       0       0       0       0       0       0       0       0       0       
      +0       0       0       0       0
  3821 ;;      Temps:          0       0       0       0       0       0       0       0       0       0       0       0       
      +0       0       0       0       0
  3822 ;;      Totals:         1       0       0       0       0       0       0       0       0       0       0       0       
      +0       0       0       0       0
  3823 ;;Total ram usage:        1 bytes
  3824 ;; Hardware stack levels used: 1
  3825 ;; Hardware stack levels required when called: 5
  3826 ;; This function calls:
  3827 ;;		Nothing
  3828 ;; This function is called by:
  3829 ;;		_Timer0_Init
  3830 ;; This function uses a non-reentrant model
  3831 ;;
  3832                           
  3833                           	psect	text25
  3834   002DE2                     __ptext25:
  3835                           	callstack 0
  3836   002DE2                     _Timer0_Register_Size_Config:
  3837                           	callstack 22
  3838   002DE2                     
  3839                           ;MCAL_Layer/Timer0/hal_timer0.c: 176:     if(((void*)0) != timer0){
  3840   002DE2  5068               	movf	Timer0_Register_Size_Config@timer0^0,w,c
  3841   002DE4  B4D8               	btfsc	status,2,c
  3842   002DE6  EFF7  F016         	goto	u4681
  3843   002DEA  EFF9  F016         	goto	u4680
  3844   002DEE                     u4681:
  3845   002DEE  EF15  F017         	goto	l622
  3846   002DF2                     u4680:
  3847   002DF2                     
  3848                           ;MCAL_Layer/Timer0/hal_timer0.c: 177:         if(1 == timer0->timer0_register_size){
  3849   002DF2  5068               	movf	Timer0_Register_Size_Config@timer0^0,w,c
  3850   002DF4  6ED9               	movwf	fsr2l,c
  3851   002DF6  6ADA               	clrf	fsr2h,c
  3852   002DF8  0E06               	movlw	6
  3853   002DFA  26D9               	addwf	fsr2l,f,c
  3854   002DFC  A6DF               	btfss	indf2,3,c
  3855   002DFE  EF03  F017         	goto	u4691
  3856   002E02  EF05  F017         	goto	u4690
  3857   002E06                     u4691:
  3858   002E06  EF08  F017         	goto	l5290
  3859   002E0A                     u4690:
  3860   002E0A                     
  3861                           ;MCAL_Layer/Timer0/hal_timer0.c: 178:             (T0CONbits.T08BIT = 1);
  3862   002E0A  8CD5               	bsf	213,6,c	;volatile
  3863                           
  3864                           ;MCAL_Layer/Timer0/hal_timer0.c: 179:         }
  3865   002E0C  EF15  F017         	goto	l622
  3866   002E10                     l5290:
  3867   002E10  5068               	movf	Timer0_Register_Size_Config@timer0^0,w,c
  3868   002E12  6ED9               	movwf	fsr2l,c
  3869   002E14  6ADA               	clrf	fsr2h,c
  3870   002E16  0E06               	movlw	6
  3871   002E18  26D9               	addwf	fsr2l,f,c
  3872   002E1A  B6DF               	btfsc	indf2,3,c
  3873   002E1C  EF12  F017         	goto	u4701
  3874   002E20  EF14  F017         	goto	u4700
  3875   002E24                     u4701:
  3876   002E24  EF15  F017         	goto	l622
  3877   002E28                     u4700:
  3878   002E28                     
  3879                           ;MCAL_Layer/Timer0/hal_timer0.c: 181:             (T0CONbits.T08BIT = 0);
  3880   002E28  9CD5               	bcf	213,6,c	;volatile
  3881   002E2A                     l622:
  3882   002E2A  0012               	return		;funcret
  3883   002E2C                     __end_of_Timer0_Register_Size_Config:
  3884                           	callstack 0
  3885                           
  3886 ;; *************** function _Timer0_Prescaler_Config *****************
  3887 ;; Defined at:
  3888 ;;		line 146 in file "MCAL_Layer/Timer0/hal_timer0.c"
  3889 ;; Parameters:    Size  Location     Type
  3890 ;;  timer0          1   18[COMRAM] PTR const struct .
  3891 ;;		 -> timer(7), 
  3892 ;; Auto vars:     Size  Location     Type
  3893 ;;		None
  3894 ;; Return value:  Size  Location     Type
  3895 ;;                  1    wreg      void 
  3896 ;; Registers used:
  3897 ;;		wreg, fsr2l, fsr2h, status,2, status,0
  3898 ;; Tracked objects:
  3899 ;;		On entry : 0/0
  3900 ;;		On exit  : 0/0
  3901 ;;		Unchanged: 0/0
  3902 ;; Data sizes:     COMRAM   BANK0   BANK1   BANK2   BANK3   BANK4   BANK5   BANK6   BANK7   BANK8   BANK9  BANK10  BANK1
      +1  BANK12  BANK13  BANK14  BANK15
  3903 ;;      Params:         1       0       0       0       0       0       0       0       0       0       0       0       
      +0       0       0       0       0
  3904 ;;      Locals:         0       0       0       0       0       0       0       0       0       0       0       0       
      +0       0       0       0       0
  3905 ;;      Temps:          1       0       0       0       0       0       0       0       0       0       0       0       
      +0       0       0       0       0
  3906 ;;      Totals:         2       0       0       0       0       0       0       0       0       0       0       0       
      +0       0       0       0       0
  3907 ;;Total ram usage:        2 bytes
  3908 ;; Hardware stack levels used: 1
  3909 ;; Hardware stack levels required when called: 5
  3910 ;; This function calls:
  3911 ;;		Nothing
  3912 ;; This function is called by:
  3913 ;;		_Timer0_Init
  3914 ;; This function uses a non-reentrant model
  3915 ;;
  3916                           
  3917                           	psect	text26
  3918   002AE2                     __ptext26:
  3919                           	callstack 0
  3920   002AE2                     _Timer0_Prescaler_Config:
  3921                           	callstack 22
  3922   002AE2                     
  3923                           ;MCAL_Layer/Timer0/hal_timer0.c: 147:     if(((void*)0) != timer0){
  3924   002AE2  5068               	movf	Timer0_Prescaler_Config@timer0^0,w,c
  3925   002AE4  B4D8               	btfsc	status,2,c
  3926   002AE6  EF77  F015         	goto	u4601
  3927   002AEA  EF79  F015         	goto	u4600
  3928   002AEE                     u4601:
  3929   002AEE  EFA1  F015         	goto	l605
  3930   002AF2                     u4600:
  3931   002AF2                     
  3932                           ;MCAL_Layer/Timer0/hal_timer0.c: 148:         if(1 == timer0->prescaler_enable){
  3933   002AF2  5068               	movf	Timer0_Prescaler_Config@timer0^0,w,c
  3934   002AF4  6ED9               	movwf	fsr2l,c
  3935   002AF6  6ADA               	clrf	fsr2h,c
  3936   002AF8  0E06               	movlw	6
  3937   002AFA  26D9               	addwf	fsr2l,f,c
  3938   002AFC  A0DF               	btfss	indf2,0,c
  3939   002AFE  EF83  F015         	goto	u4611
  3940   002B02  EF85  F015         	goto	u4610
  3941   002B06                     u4611:
  3942   002B06  EF94  F015         	goto	l5262
  3943   002B0A                     u4610:
  3944   002B0A                     
  3945                           ;MCAL_Layer/Timer0/hal_timer0.c: 149:             (T0CONbits.PSA = 0);
  3946   002B0A  96D5               	bcf	213,3,c	;volatile
  3947   002B0C                     
  3948                           ;MCAL_Layer/Timer0/hal_timer0.c: 150:             T0CONbits.T0PS = timer0->prescaler_val
      +                          ue;
  3949   002B0C  5068               	movf	Timer0_Prescaler_Config@timer0^0,w,c
  3950   002B0E  6ED9               	movwf	fsr2l,c
  3951   002B10  6ADA               	clrf	fsr2h,c
  3952   002B12  0E03               	movlw	3
  3953   002B14  26D9               	addwf	fsr2l,f,c
  3954   002B16  50DF               	movf	indf2,w,c
  3955   002B18  6E69               	movwf	??_Timer0_Prescaler_Config^0,c
  3956   002B1A  50D5               	movf	213,w,c	;volatile
  3957   002B1C  1869               	xorwf	??_Timer0_Prescaler_Config^0,w,c
  3958   002B1E  0BF8               	andlw	-8
  3959   002B20  1869               	xorwf	??_Timer0_Prescaler_Config^0,w,c
  3960   002B22  6ED5               	movwf	213,c	;volatile
  3961                           
  3962                           ;MCAL_Layer/Timer0/hal_timer0.c: 151:         }
  3963   002B24  EFA1  F015         	goto	l605
  3964   002B28                     l5262:
  3965   002B28  5068               	movf	Timer0_Prescaler_Config@timer0^0,w,c
  3966   002B2A  6ED9               	movwf	fsr2l,c
  3967   002B2C  6ADA               	clrf	fsr2h,c
  3968   002B2E  0E06               	movlw	6
  3969   002B30  26D9               	addwf	fsr2l,f,c
  3970   002B32  B0DF               	btfsc	indf2,0,c
  3971   002B34  EF9E  F015         	goto	u4621
  3972   002B38  EFA0  F015         	goto	u4620
  3973   002B3C                     u4621:
  3974   002B3C  EFA1  F015         	goto	l605
  3975   002B40                     u4620:
  3976   002B40                     
  3977                           ;MCAL_Layer/Timer0/hal_timer0.c: 153:             (T0CONbits.PSA = 1);
  3978   002B40  86D5               	bsf	213,3,c	;volatile
  3979   002B42                     l605:
  3980   002B42  0012               	return		;funcret
  3981   002B44                     __end_of_Timer0_Prescaler_Config:
  3982                           	callstack 0
  3983                           
  3984 ;; *************** function _Timer0_Mode_Select *****************
  3985 ;; Defined at:
  3986 ;;		line 158 in file "MCAL_Layer/Timer0/hal_timer0.c"
  3987 ;; Parameters:    Size  Location     Type
  3988 ;;  timer0          1   18[COMRAM] PTR const struct .
  3989 ;;		 -> timer(7), 
  3990 ;; Auto vars:     Size  Location     Type
  3991 ;;		None
  3992 ;; Return value:  Size  Location     Type
  3993 ;;                  1    wreg      void 
  3994 ;; Registers used:
  3995 ;;		wreg, fsr2l, fsr2h, status,2, status,0
  3996 ;; Tracked objects:
  3997 ;;		On entry : 0/0
  3998 ;;		On exit  : 0/0
  3999 ;;		Unchanged: 0/0
  4000 ;; Data sizes:     COMRAM   BANK0   BANK1   BANK2   BANK3   BANK4   BANK5   BANK6   BANK7   BANK8   BANK9  BANK10  BANK1
      +1  BANK12  BANK13  BANK14  BANK15
  4001 ;;      Params:         1       0       0       0       0       0       0       0       0       0       0       0       
      +0       0       0       0       0
  4002 ;;      Locals:         0       0       0       0       0       0       0       0       0       0       0       0       
      +0       0       0       0       0
  4003 ;;      Temps:          0       0       0       0       0       0       0       0       0       0       0       0       
      +0       0       0       0       0
  4004 ;;      Totals:         1       0       0       0       0       0       0       0       0       0       0       0       
      +0       0       0       0       0
  4005 ;;Total ram usage:        1 bytes
  4006 ;; Hardware stack levels used: 1
  4007 ;; Hardware stack levels required when called: 5
  4008 ;; This function calls:
  4009 ;;		Nothing
  4010 ;; This function is called by:
  4011 ;;		_Timer0_Init
  4012 ;; This function uses a non-reentrant model
  4013 ;;
  4014                           
  4015                           	psect	text27
  4016   00241C                     __ptext27:
  4017                           	callstack 0
  4018   00241C                     _Timer0_Mode_Select:
  4019                           	callstack 22
  4020   00241C                     
  4021                           ;MCAL_Layer/Timer0/hal_timer0.c: 159:     if(((void*)0) != timer0){
  4022   00241C  5068               	movf	Timer0_Mode_Select@timer0^0,w,c
  4023   00241E  B4D8               	btfsc	status,2,c
  4024   002420  EF14  F012         	goto	u4631
  4025   002424  EF16  F012         	goto	u4630
  4026   002428                     u4631:
  4027   002428  EF50  F012         	goto	l615
  4028   00242C                     u4630:
  4029   00242C                     
  4030                           ;MCAL_Layer/Timer0/hal_timer0.c: 160:         if(1 == timer0->timer0_mode){
  4031   00242C  5068               	movf	Timer0_Mode_Select@timer0^0,w,c
  4032   00242E  6ED9               	movwf	fsr2l,c
  4033   002430  6ADA               	clrf	fsr2h,c
  4034   002432  0E06               	movlw	6
  4035   002434  26D9               	addwf	fsr2l,f,c
  4036   002436  A4DF               	btfss	indf2,2,c
  4037   002438  EF20  F012         	goto	u4641
  4038   00243C  EF22  F012         	goto	u4640
  4039   002440                     u4641:
  4040   002440  EF25  F012         	goto	l5272
  4041   002444                     u4640:
  4042   002444                     
  4043                           ;MCAL_Layer/Timer0/hal_timer0.c: 161:             (T0CONbits.T0CS = 0);
  4044   002444  9AD5               	bcf	213,5,c	;volatile
  4045                           
  4046                           ;MCAL_Layer/Timer0/hal_timer0.c: 162:         }
  4047   002446  EF50  F012         	goto	l615
  4048   00244A                     l5272:
  4049   00244A  5068               	movf	Timer0_Mode_Select@timer0^0,w,c
  4050   00244C  6ED9               	movwf	fsr2l,c
  4051   00244E  6ADA               	clrf	fsr2h,c
  4052   002450  0E06               	movlw	6
  4053   002452  26D9               	addwf	fsr2l,f,c
  4054   002454  B4DF               	btfsc	indf2,2,c
  4055   002456  EF2F  F012         	goto	u4651
  4056   00245A  EF31  F012         	goto	u4650
  4057   00245E                     u4651:
  4058   00245E  EF50  F012         	goto	l615
  4059   002462                     u4650:
  4060   002462                     
  4061                           ;MCAL_Layer/Timer0/hal_timer0.c: 164:             (T0CONbits.T0CS = 1);
  4062   002462  8AD5               	bsf	213,5,c	;volatile
  4063   002464                     
  4064                           ;MCAL_Layer/Timer0/hal_timer0.c: 165:             if(0 == timer0->timer0_counter_edge){
  4065   002464  5068               	movf	Timer0_Mode_Select@timer0^0,w,c
  4066   002466  6ED9               	movwf	fsr2l,c
  4067   002468  6ADA               	clrf	fsr2h,c
  4068   00246A  0E06               	movlw	6
  4069   00246C  26D9               	addwf	fsr2l,f,c
  4070   00246E  B2DF               	btfsc	indf2,1,c
  4071   002470  EF3C  F012         	goto	u4661
  4072   002474  EF3E  F012         	goto	u4660
  4073   002478                     u4661:
  4074   002478  EF41  F012         	goto	l5280
  4075   00247C                     u4660:
  4076   00247C                     
  4077                           ;MCAL_Layer/Timer0/hal_timer0.c: 166:                 (T0CONbits.T0SE = 0);
  4078   00247C  98D5               	bcf	213,4,c	;volatile
  4079                           
  4080                           ;MCAL_Layer/Timer0/hal_timer0.c: 167:             }
  4081   00247E  EF50  F012         	goto	l615
  4082   002482                     l5280:
  4083   002482  5068               	movf	Timer0_Mode_Select@timer0^0,w,c
  4084   002484  6ED9               	movwf	fsr2l,c
  4085   002486  6ADA               	clrf	fsr2h,c
  4086   002488  0E06               	movlw	6
  4087   00248A  26D9               	addwf	fsr2l,f,c
  4088   00248C  A2DF               	btfss	indf2,1,c
  4089   00248E  EF4B  F012         	goto	u4671
  4090   002492  EF4D  F012         	goto	u4670
  4091   002496                     u4671:
  4092   002496  EF50  F012         	goto	l610
  4093   00249A                     u4670:
  4094   00249A                     
  4095                           ;MCAL_Layer/Timer0/hal_timer0.c: 169:                 (T0CONbits.T0SE = 1);
  4096   00249A  88D5               	bsf	213,4,c	;volatile
  4097   00249C  EF50  F012         	goto	l615
  4098   0024A0                     l610:
  4099   0024A0                     l615:
  4100   0024A0  0012               	return		;funcret
  4101   0024A2                     __end_of_Timer0_Mode_Select:
  4102                           	callstack 0
  4103                           
  4104 ;; *************** function _Interrupt_RBx_Init *****************
  4105 ;; Defined at:
  4106 ;;		line 201 in file "MCAL_Layer/Interrupt/mcal_external_interrupt.c"
  4107 ;; Parameters:    Size  Location     Type
  4108 ;;  int_obj         1   10[BANK0 ] PTR const struct .
  4109 ;;		 -> clock_mode_int(6), pause_resume_int(6), 
  4110 ;; Auto vars:     Size  Location     Type
  4111 ;;  retVal          1   11[BANK0 ] unsigned char 
  4112 ;; Return value:  Size  Location     Type
  4113 ;;                  1    wreg      unsigned char 
  4114 ;; Registers used:
  4115 ;;		wreg, fsr2l, fsr2h, status,2, status,0, prodl, prodh, cstack
  4116 ;; Tracked objects:
  4117 ;;		On entry : 0/0
  4118 ;;		On exit  : 0/0
  4119 ;;		Unchanged: 0/0
  4120 ;; Data sizes:     COMRAM   BANK0   BANK1   BANK2   BANK3   BANK4   BANK5   BANK6   BANK7   BANK8   BANK9  BANK10  BANK1
      +1  BANK12  BANK13  BANK14  BANK15
  4121 ;;      Params:         0       1       0       0       0       0       0       0       0       0       0       0       
      +0       0       0       0       0
  4122 ;;      Locals:         0       1       0       0       0       0       0       0       0       0       0       0       
      +0       0       0       0       0
  4123 ;;      Temps:          0       0       0       0       0       0       0       0       0       0       0       0       
      +0       0       0       0       0
  4124 ;;      Totals:         0       2       0       0       0       0       0       0       0       0       0       0       
      +0       0       0       0       0
  4125 ;;Total ram usage:        2 bytes
  4126 ;; Hardware stack levels used: 1
  4127 ;; Hardware stack levels required when called: 8
  4128 ;; This function calls:
  4129 ;;		_Interrupt_RBx_Disable
  4130 ;;		_Interrupt_RBx_Enable
  4131 ;;		_Interrupt_RBx_Pin_Init
  4132 ;;		_Interrupt_RBx_Priority_Init
  4133 ;; This function is called by:
  4134 ;;		_mcal_layer_initialize
  4135 ;; This function uses a non-reentrant model
  4136 ;;
  4137                           
  4138                           	psect	text28
  4139   001A64                     __ptext28:
  4140                           	callstack 0
  4141   001A64                     _Interrupt_RBx_Init:
  4142                           	callstack 20
  4143   001A64                     
  4144                           ;MCAL_Layer/Interrupt/mcal_external_interrupt.c: 203:     if(((void*)0) == int_obj){
  4145   001A64  0100               	movlb	0	; () banked
  4146   001A66  51D5               	movf	Interrupt_RBx_Init@int_obj& (0+255),w,b
  4147   001A68  A4D8               	btfss	status,2,c
  4148   001A6A  EF39  F00D         	goto	u4991
  4149   001A6E  EF3B  F00D         	goto	u4990
  4150   001A72                     u4991:
  4151   001A72  EF3F  F00D         	goto	l5482
  4152   001A76                     u4990:
  4153   001A76                     
  4154                           ; BSR set to: 0
  4155                           ;MCAL_Layer/Interrupt/mcal_external_interrupt.c: 204:         retVal = (Std_ReturnType)0
      +                          x00;
  4156   001A76  0E00               	movlw	0
  4157   001A78  6FD6               	movwf	Interrupt_RBx_Init@retVal& (0+255),b
  4158                           
  4159                           ;MCAL_Layer/Interrupt/mcal_external_interrupt.c: 205:     }
  4160   001A7A  EFBA  F00D         	goto	l5510
  4161   001A7E                     l5482:
  4162                           
  4163                           ; BSR set to: 0
  4164   001A7E  C0D5  F068         	movff	Interrupt_RBx_Init@int_obj,Interrupt_RBx_Disable@int_obj
  4165   001A82  EC8D  F018         	call	_Interrupt_RBx_Disable	;wreg free
  4166   001A86                     
  4167                           ;MCAL_Layer/Interrupt/mcal_external_interrupt.c: 210:         (INTCONbits.RBIF = 0);
  4168   001A86  90F2               	bcf	242,0,c	;volatile
  4169   001A88  C0D5  F068         	movff	Interrupt_RBx_Init@int_obj,Interrupt_RBx_Priority_Init@int_obj
  4170   001A8C  EC6A  F018         	call	_Interrupt_RBx_Priority_Init	;wreg free
  4171   001A90  C0D5  F0D3         	movff	Interrupt_RBx_Init@int_obj,Interrupt_RBx_Pin_Init@int_obj
  4172   001A94  ECB9  F017         	call	_Interrupt_RBx_Pin_Init	;wreg free
  4173                           
  4174                           ;MCAL_Layer/Interrupt/mcal_external_interrupt.c: 216:         switch(int_obj->mcu_pin.pi
      +                          n){
  4175   001A98  EF98  F00D         	goto	l5506
  4176   001A9C                     l5488:
  4177                           
  4178                           ; BSR set to: 0
  4179                           ;MCAL_Layer/Interrupt/mcal_external_interrupt.c: 218:                 RB4_InterruptHandl
      +                          er_HIGH = int_obj->EXT_InterruptHandler_HIGH;
  4180   001A9C  51D5               	movf	Interrupt_RBx_Init@int_obj& (0+255),w,b
  4181   001A9E  6ED9               	movwf	fsr2l,c
  4182   001AA0  6ADA               	clrf	fsr2h,c
  4183   001AA2  CFDE F019          	movff	postinc2,_RB4_InterruptHandler_HIGH
  4184   001AA6  CFDD F01A          	movff	postdec2,_RB4_InterruptHandler_HIGH+1
  4185   001AAA                     
  4186                           ; BSR set to: 0
  4187                           ;MCAL_Layer/Interrupt/mcal_external_interrupt.c: 219:                 RB4_InterruptHandl
      +                          er_LOW = int_obj->EXT_InterruptHandler_LOW;
  4188   001AAA  51D5               	movf	Interrupt_RBx_Init@int_obj& (0+255),w,b
  4189   001AAC  6ED9               	movwf	fsr2l,c
  4190   001AAE  6ADA               	clrf	fsr2h,c
  4191   001AB0  0E02               	movlw	2
  4192   001AB2  26D9               	addwf	fsr2l,f,c
  4193   001AB4  CFDE F017          	movff	postinc2,_RB4_InterruptHandler_LOW
  4194   001AB8  CFDD F018          	movff	postdec2,_RB4_InterruptHandler_LOW+1
  4195                           
  4196                           ;MCAL_Layer/Interrupt/mcal_external_interrupt.c: 220:                 break;
  4197   001ABC  EFB4  F00D         	goto	l5508
  4198   001AC0                     l5492:
  4199                           
  4200                           ; BSR set to: 0
  4201                           ;MCAL_Layer/Interrupt/mcal_external_interrupt.c: 222:                 RB5_InterruptHandl
      +                          er_HIGH = int_obj->EXT_InterruptHandler_HIGH;
  4202   001AC0  51D5               	movf	Interrupt_RBx_Init@int_obj& (0+255),w,b
  4203   001AC2  6ED9               	movwf	fsr2l,c
  4204   001AC4  6ADA               	clrf	fsr2h,c
  4205   001AC6  CFDE F015          	movff	postinc2,_RB5_InterruptHandler_HIGH
  4206   001ACA  CFDD F016          	movff	postdec2,_RB5_InterruptHandler_HIGH+1
  4207   001ACE                     
  4208                           ; BSR set to: 0
  4209                           ;MCAL_Layer/Interrupt/mcal_external_interrupt.c: 223:                 RB5_InterruptHandl
      +                          er_LOW = int_obj->EXT_InterruptHandler_LOW;
  4210   001ACE  51D5               	movf	Interrupt_RBx_Init@int_obj& (0+255),w,b
  4211   001AD0  6ED9               	movwf	fsr2l,c
  4212   001AD2  6ADA               	clrf	fsr2h,c
  4213   001AD4  0E02               	movlw	2
  4214   001AD6  26D9               	addwf	fsr2l,f,c
  4215   001AD8  CFDE F013          	movff	postinc2,_RB5_InterruptHandler_LOW
  4216   001ADC  CFDD F014          	movff	postdec2,_RB5_InterruptHandler_LOW+1
  4217                           
  4218                           ;MCAL_Layer/Interrupt/mcal_external_interrupt.c: 224:                 break;
  4219   001AE0  EFB4  F00D         	goto	l5508
  4220   001AE4                     l5496:
  4221                           
  4222                           ; BSR set to: 0
  4223                           ;MCAL_Layer/Interrupt/mcal_external_interrupt.c: 226:                 RB6_InterruptHandl
      +                          er_HIGH = int_obj->EXT_InterruptHandler_HIGH;
  4224   001AE4  51D5               	movf	Interrupt_RBx_Init@int_obj& (0+255),w,b
  4225   001AE6  6ED9               	movwf	fsr2l,c
  4226   001AE8  6ADA               	clrf	fsr2h,c
  4227   001AEA  CFDE F011          	movff	postinc2,_RB6_InterruptHandler_HIGH
  4228   001AEE  CFDD F012          	movff	postdec2,_RB6_InterruptHandler_HIGH+1
  4229   001AF2                     
  4230                           ; BSR set to: 0
  4231                           ;MCAL_Layer/Interrupt/mcal_external_interrupt.c: 227:                 RB6_InterruptHandl
      +                          er_LOW = int_obj->EXT_InterruptHandler_LOW;
  4232   001AF2  51D5               	movf	Interrupt_RBx_Init@int_obj& (0+255),w,b
  4233   001AF4  6ED9               	movwf	fsr2l,c
  4234   001AF6  6ADA               	clrf	fsr2h,c
  4235   001AF8  0E02               	movlw	2
  4236   001AFA  26D9               	addwf	fsr2l,f,c
  4237   001AFC  CFDE F00F          	movff	postinc2,_RB6_InterruptHandler_LOW
  4238   001B00  CFDD F010          	movff	postdec2,_RB6_InterruptHandler_LOW+1
  4239                           
  4240                           ;MCAL_Layer/Interrupt/mcal_external_interrupt.c: 228:                 break;
  4241   001B04  EFB4  F00D         	goto	l5508
  4242   001B08                     l5500:
  4243                           
  4244                           ; BSR set to: 0
  4245                           ;MCAL_Layer/Interrupt/mcal_external_interrupt.c: 230:                 RB7_InterruptHandl
      +                          er_HIGH = int_obj->EXT_InterruptHandler_HIGH;
  4246   001B08  51D5               	movf	Interrupt_RBx_Init@int_obj& (0+255),w,b
  4247   001B0A  6ED9               	movwf	fsr2l,c
  4248   001B0C  6ADA               	clrf	fsr2h,c
  4249   001B0E  CFDE F00D          	movff	postinc2,_RB7_InterruptHandler_HIGH
  4250   001B12  CFDD F00E          	movff	postdec2,_RB7_InterruptHandler_HIGH+1
  4251   001B16                     
  4252                           ; BSR set to: 0
  4253                           ;MCAL_Layer/Interrupt/mcal_external_interrupt.c: 231:                 RB7_InterruptHandl
      +                          er_LOW = int_obj->EXT_InterruptHandler_LOW;
  4254   001B16  51D5               	movf	Interrupt_RBx_Init@int_obj& (0+255),w,b
  4255   001B18  6ED9               	movwf	fsr2l,c
  4256   001B1A  6ADA               	clrf	fsr2h,c
  4257   001B1C  0E02               	movlw	2
  4258   001B1E  26D9               	addwf	fsr2l,f,c
  4259   001B20  CFDE F00B          	movff	postinc2,_RB7_InterruptHandler_LOW
  4260   001B24  CFDD F00C          	movff	postdec2,_RB7_InterruptHandler_LOW+1
  4261                           
  4262                           ;MCAL_Layer/Interrupt/mcal_external_interrupt.c: 232:                 break;
  4263   001B28  EFB4  F00D         	goto	l5508
  4264   001B2C                     l5504:
  4265                           
  4266                           ; BSR set to: 0
  4267                           ;MCAL_Layer/Interrupt/mcal_external_interrupt.c: 235:         }
  4268   001B2C  EFB4  F00D         	goto	l5508
  4269   001B30                     l5506:
  4270   001B30  0100               	movlb	0	; () banked
  4271   001B32  51D5               	movf	Interrupt_RBx_Init@int_obj& (0+255),w,b
  4272   001B34  6ED9               	movwf	fsr2l,c
  4273   001B36  6ADA               	clrf	fsr2h,c
  4274   001B38  0E04               	movlw	4
  4275   001B3A  26D9               	addwf	fsr2l,f,c
  4276   001B3C  30DF               	rrcf	223,w,c
  4277   001B3E  32E8               	rrcf	wreg,f,c
  4278   001B40  32E8               	rrcf	wreg,f,c
  4279   001B42  0B07               	andlw	7
  4280                           
  4281                           ; Switch size 1, requested type "simple"
  4282                           ; Number of cases is 4, Range of values is 4 to 7
  4283                           ; switch strategies available:
  4284                           ; Name         Instructions Cycles
  4285                           ; simple_byte           13     7 (average)
  4286                           ;	Chosen strategy is simple_byte
  4287   001B44  0A04               	xorlw	4	; case 4
  4288   001B46  B4D8               	btfsc	status,2,c
  4289   001B48  EF4E  F00D         	goto	l5488
  4290   001B4C  0A01               	xorlw	1	; case 5
  4291   001B4E  B4D8               	btfsc	status,2,c
  4292   001B50  EF60  F00D         	goto	l5492
  4293   001B54  0A03               	xorlw	3	; case 6
  4294   001B56  B4D8               	btfsc	status,2,c
  4295   001B58  EF72  F00D         	goto	l5496
  4296   001B5C  0A01               	xorlw	1	; case 7
  4297   001B5E  B4D8               	btfsc	status,2,c
  4298   001B60  EF84  F00D         	goto	l5500
  4299   001B64  EF96  F00D         	goto	l5504
  4300   001B68                     l5508:
  4301                           
  4302                           ; BSR set to: 0
  4303                           ;MCAL_Layer/Interrupt/mcal_external_interrupt.c: 237:         retVal = Interrupt_RBx_Ena
      +                          ble(int_obj);
  4304   001B68  C0D5  F068         	movff	Interrupt_RBx_Init@int_obj,Interrupt_RBx_Enable@int_obj
  4305   001B6C  EC7C  F018         	call	_Interrupt_RBx_Enable	;wreg free
  4306   001B70  0100               	movlb	0	; () banked
  4307   001B72  6FD6               	movwf	Interrupt_RBx_Init@retVal& (0+255),b
  4308   001B74                     l5510:
  4309                           
  4310                           ; BSR set to: 0
  4311                           ;MCAL_Layer/Interrupt/mcal_external_interrupt.c: 239:     return retVal;
  4312   001B74  51D6               	movf	Interrupt_RBx_Init@retVal& (0+255),w,b
  4313   001B76                     
  4314                           ; BSR set to: 0
  4315   001B76  0012               	return		;funcret
  4316   001B78                     __end_of_Interrupt_RBx_Init:
  4317                           	callstack 0
  4318                           
  4319 ;; *************** function _Interrupt_RBx_Priority_Init *****************
  4320 ;; Defined at:
  4321 ;;		line 527 in file "MCAL_Layer/Interrupt/mcal_external_interrupt.c"
  4322 ;; Parameters:    Size  Location     Type
  4323 ;;  int_obj         1   18[COMRAM] PTR const struct .
  4324 ;;		 -> clock_mode_int(6), pause_resume_int(6), 
  4325 ;; Auto vars:     Size  Location     Type
  4326 ;;  retVal          1   19[COMRAM] unsigned char 
  4327 ;; Return value:  Size  Location     Type
  4328 ;;                  1    wreg      unsigned char 
  4329 ;; Registers used:
  4330 ;;		wreg, status,2
  4331 ;; Tracked objects:
  4332 ;;		On entry : 0/0
  4333 ;;		On exit  : 0/0
  4334 ;;		Unchanged: 0/0
  4335 ;; Data sizes:     COMRAM   BANK0   BANK1   BANK2   BANK3   BANK4   BANK5   BANK6   BANK7   BANK8   BANK9  BANK10  BANK1
      +1  BANK12  BANK13  BANK14  BANK15
  4336 ;;      Params:         1       0       0       0       0       0       0       0       0       0       0       0       
      +0       0       0       0       0
  4337 ;;      Locals:         1       0       0       0       0       0       0       0       0       0       0       0       
      +0       0       0       0       0
  4338 ;;      Temps:          0       0       0       0       0       0       0       0       0       0       0       0       
      +0       0       0       0       0
  4339 ;;      Totals:         2       0       0       0       0       0       0       0       0       0       0       0       
      +0       0       0       0       0
  4340 ;;Total ram usage:        2 bytes
  4341 ;; Hardware stack levels used: 1
  4342 ;; Hardware stack levels required when called: 5
  4343 ;; This function calls:
  4344 ;;		Nothing
  4345 ;; This function is called by:
  4346 ;;		_Interrupt_RBx_Init
  4347 ;; This function uses a non-reentrant model
  4348 ;;
  4349                           
  4350                           	psect	text29
  4351   0030D4                     __ptext29:
  4352                           	callstack 0
  4353   0030D4                     _Interrupt_RBx_Priority_Init:
  4354                           	callstack 22
  4355   0030D4                     
  4356                           ;MCAL_Layer/Interrupt/mcal_external_interrupt.c: 529:     if(((void*)0) == int_obj){
  4357   0030D4  5068               	movf	Interrupt_RBx_Priority_Init@int_obj^0,w,c
  4358   0030D6  A4D8               	btfss	status,2,c
  4359   0030D8  EF70  F018         	goto	u4571
  4360   0030DC  EF72  F018         	goto	u4570
  4361   0030E0                     u4571:
  4362   0030E0  EF76  F018         	goto	l504
  4363   0030E4                     u4570:
  4364   0030E4                     
  4365                           ;MCAL_Layer/Interrupt/mcal_external_interrupt.c: 530:         retVal = (Std_ReturnType)0
      +                          x00;
  4366   0030E4  0E00               	movlw	0
  4367   0030E6  6E69               	movwf	Interrupt_RBx_Priority_Init@retVal^0,c
  4368                           
  4369                           ;MCAL_Layer/Interrupt/mcal_external_interrupt.c: 531:     }
  4370   0030E8  EF7A  F018         	goto	l505
  4371   0030EC                     l504:
  4372                           
  4373                           ;MCAL_Layer/Interrupt/mcal_external_interrupt.c: 542:                 (INTCONbits.GIE = 
      +                          1);
  4374   0030EC  8EF2               	bsf	242,7,c	;volatile
  4375                           
  4376                           ;MCAL_Layer/Interrupt/mcal_external_interrupt.c: 543:                 (INTCONbits.PEIE =
      +                           1);
  4377   0030EE  8CF2               	bsf	242,6,c	;volatile
  4378   0030F0                     
  4379                           ;MCAL_Layer/Interrupt/mcal_external_interrupt.c: 545:         retVal = (Std_ReturnType)0
      +                          x01;
  4380   0030F0  0E01               	movlw	1
  4381   0030F2  6E69               	movwf	Interrupt_RBx_Priority_Init@retVal^0,c
  4382   0030F4                     l505:
  4383                           
  4384                           ;MCAL_Layer/Interrupt/mcal_external_interrupt.c: 547:     return retVal;
  4385   0030F4  5069               	movf	Interrupt_RBx_Priority_Init@retVal^0,w,c
  4386   0030F6  0012               	return		;funcret
  4387   0030F8                     __end_of_Interrupt_RBx_Priority_Init:
  4388                           	callstack 0
  4389                           
  4390 ;; *************** function _Interrupt_RBx_Pin_Init *****************
  4391 ;; Defined at:
  4392 ;;		line 549 in file "MCAL_Layer/Interrupt/mcal_external_interrupt.c"
  4393 ;; Parameters:    Size  Location     Type
  4394 ;;  int_obj         1    8[BANK0 ] PTR const struct .
  4395 ;;		 -> clock_mode_int(6), pause_resume_int(6), 
  4396 ;; Auto vars:     Size  Location     Type
  4397 ;;  retVal          1    9[BANK0 ] unsigned char 
  4398 ;; Return value:  Size  Location     Type
  4399 ;;                  1    wreg      unsigned char 
  4400 ;; Registers used:
  4401 ;;		wreg, fsr2l, fsr2h, status,2, status,0, prodl, prodh, cstack
  4402 ;; Tracked objects:
  4403 ;;		On entry : 0/0
  4404 ;;		On exit  : 0/0
  4405 ;;		Unchanged: 0/0
  4406 ;; Data sizes:     COMRAM   BANK0   BANK1   BANK2   BANK3   BANK4   BANK5   BANK6   BANK7   BANK8   BANK9  BANK10  BANK1
      +1  BANK12  BANK13  BANK14  BANK15
  4407 ;;      Params:         0       1       0       0       0       0       0       0       0       0       0       0       
      +0       0       0       0       0
  4408 ;;      Locals:         0       1       0       0       0       0       0       0       0       0       0       0       
      +0       0       0       0       0
  4409 ;;      Temps:          0       0       0       0       0       0       0       0       0       0       0       0       
      +0       0       0       0       0
  4410 ;;      Totals:         0       2       0       0       0       0       0       0       0       0       0       0       
      +0       0       0       0       0
  4411 ;;Total ram usage:        2 bytes
  4412 ;; Hardware stack levels used: 1
  4413 ;; Hardware stack levels required when called: 7
  4414 ;; This function calls:
  4415 ;;		_gpio_pin_initialize
  4416 ;; This function is called by:
  4417 ;;		_Interrupt_RBx_Init
  4418 ;; This function uses a non-reentrant model
  4419 ;;
  4420                           
  4421                           	psect	text30
  4422   002F72                     __ptext30:
  4423                           	callstack 0
  4424   002F72                     _Interrupt_RBx_Pin_Init:
  4425                           	callstack 20
  4426   002F72                     
  4427                           ;MCAL_Layer/Interrupt/mcal_external_interrupt.c: 551:     if(((void*)0) == int_obj){
  4428   002F72  0100               	movlb	0	; () banked
  4429   002F74  51D3               	movf	Interrupt_RBx_Pin_Init@int_obj& (0+255),w,b
  4430   002F76  A4D8               	btfss	status,2,c
  4431   002F78  EFC0  F017         	goto	u4581
  4432   002F7C  EFC2  F017         	goto	u4580
  4433   002F80                     u4581:
  4434   002F80  EFC6  F017         	goto	l5238
  4435   002F84                     u4580:
  4436   002F84                     
  4437                           ; BSR set to: 0
  4438                           ;MCAL_Layer/Interrupt/mcal_external_interrupt.c: 552:         retVal = (Std_ReturnType)0
      +                          x00;
  4439   002F84  0E00               	movlw	0
  4440   002F86  6FD4               	movwf	Interrupt_RBx_Pin_Init@retVal& (0+255),b
  4441                           
  4442                           ;MCAL_Layer/Interrupt/mcal_external_interrupt.c: 553:     }
  4443   002F88  EFCE  F017         	goto	l5242
  4444   002F8C                     l5238:
  4445                           
  4446                           ; BSR set to: 0
  4447   002F8C  51D3               	movf	Interrupt_RBx_Pin_Init@int_obj& (0+255),w,b
  4448   002F8E  0F04               	addlw	4
  4449   002F90  6FD0               	movwf	gpio_pin_initialize@config& (0+255),b
  4450   002F92  ECD9  F014         	call	_gpio_pin_initialize	;wreg free
  4451   002F96                     
  4452                           ;MCAL_Layer/Interrupt/mcal_external_interrupt.c: 556:         retVal = (Std_ReturnType)0
      +                          x01;
  4453   002F96  0E01               	movlw	1
  4454   002F98  0100               	movlb	0	; () banked
  4455   002F9A  6FD4               	movwf	Interrupt_RBx_Pin_Init@retVal& (0+255),b
  4456   002F9C                     l5242:
  4457                           
  4458                           ; BSR set to: 0
  4459                           ;MCAL_Layer/Interrupt/mcal_external_interrupt.c: 558:     return retVal;
  4460   002F9C  51D4               	movf	Interrupt_RBx_Pin_Init@retVal& (0+255),w,b
  4461   002F9E                     
  4462                           ; BSR set to: 0
  4463   002F9E  0012               	return		;funcret
  4464   002FA0                     __end_of_Interrupt_RBx_Pin_Init:
  4465                           	callstack 0
  4466                           
  4467 ;; *************** function _Interrupt_RBx_Enable *****************
  4468 ;; Defined at:
  4469 ;;		line 505 in file "MCAL_Layer/Interrupt/mcal_external_interrupt.c"
  4470 ;; Parameters:    Size  Location     Type
  4471 ;;  int_obj         1   18[COMRAM] PTR const struct .
  4472 ;;		 -> clock_mode_int(6), pause_resume_int(6), 
  4473 ;; Auto vars:     Size  Location     Type
  4474 ;;  retVal          1   19[COMRAM] unsigned char 
  4475 ;; Return value:  Size  Location     Type
  4476 ;;                  1    wreg      unsigned char 
  4477 ;; Registers used:
  4478 ;;		wreg, status,2
  4479 ;; Tracked objects:
  4480 ;;		On entry : 0/0
  4481 ;;		On exit  : 0/0
  4482 ;;		Unchanged: 0/0
  4483 ;; Data sizes:     COMRAM   BANK0   BANK1   BANK2   BANK3   BANK4   BANK5   BANK6   BANK7   BANK8   BANK9  BANK10  BANK1
      +1  BANK12  BANK13  BANK14  BANK15
  4484 ;;      Params:         1       0       0       0       0       0       0       0       0       0       0       0       
      +0       0       0       0       0
  4485 ;;      Locals:         1       0       0       0       0       0       0       0       0       0       0       0       
      +0       0       0       0       0
  4486 ;;      Temps:          0       0       0       0       0       0       0       0       0       0       0       0       
      +0       0       0       0       0
  4487 ;;      Totals:         2       0       0       0       0       0       0       0       0       0       0       0       
      +0       0       0       0       0
  4488 ;;Total ram usage:        2 bytes
  4489 ;; Hardware stack levels used: 1
  4490 ;; Hardware stack levels required when called: 5
  4491 ;; This function calls:
  4492 ;;		Nothing
  4493 ;; This function is called by:
  4494 ;;		_Interrupt_RBx_Init
  4495 ;; This function uses a non-reentrant model
  4496 ;;
  4497                           
  4498                           	psect	text31
  4499   0030F8                     __ptext31:
  4500                           	callstack 0
  4501   0030F8                     _Interrupt_RBx_Enable:
  4502                           	callstack 22
  4503   0030F8                     
  4504                           ;MCAL_Layer/Interrupt/mcal_external_interrupt.c: 507:     if(((void*)0) == int_obj){
  4505   0030F8  5068               	movf	Interrupt_RBx_Enable@int_obj^0,w,c
  4506   0030FA  A4D8               	btfss	status,2,c
  4507   0030FC  EF82  F018         	goto	u4591
  4508   003100  EF84  F018         	goto	u4590
  4509   003104                     u4591:
  4510   003104  EF88  F018         	goto	l494
  4511   003108                     u4590:
  4512   003108                     
  4513                           ;MCAL_Layer/Interrupt/mcal_external_interrupt.c: 508:         retVal = (Std_ReturnType)0
      +                          x00;
  4514   003108  0E00               	movlw	0
  4515   00310A  6E69               	movwf	Interrupt_RBx_Enable@retVal^0,c
  4516                           
  4517                           ;MCAL_Layer/Interrupt/mcal_external_interrupt.c: 509:     }
  4518   00310C  EF8B  F018         	goto	l495
  4519   003110                     l494:
  4520                           
  4521                           ;MCAL_Layer/Interrupt/mcal_external_interrupt.c: 511:         (INTCONbits.RBIE = 1);
  4522   003110  86F2               	bsf	242,3,c	;volatile
  4523   003112                     
  4524                           ;MCAL_Layer/Interrupt/mcal_external_interrupt.c: 512:         retVal = (Std_ReturnType)0
      +                          x01;
  4525   003112  0E01               	movlw	1
  4526   003114  6E69               	movwf	Interrupt_RBx_Enable@retVal^0,c
  4527   003116                     l495:
  4528                           
  4529                           ;MCAL_Layer/Interrupt/mcal_external_interrupt.c: 514:     return retVal;
  4530   003116  5069               	movf	Interrupt_RBx_Enable@retVal^0,w,c
  4531   003118  0012               	return		;funcret
  4532   00311A                     __end_of_Interrupt_RBx_Enable:
  4533                           	callstack 0
  4534                           
  4535 ;; *************** function _Interrupt_RBx_Disable *****************
  4536 ;; Defined at:
  4537 ;;		line 516 in file "MCAL_Layer/Interrupt/mcal_external_interrupt.c"
  4538 ;; Parameters:    Size  Location     Type
  4539 ;;  int_obj         1   18[COMRAM] PTR const struct .
  4540 ;;		 -> clock_mode_int(6), pause_resume_int(6), 
  4541 ;; Auto vars:     Size  Location     Type
  4542 ;;  retVal          1   19[COMRAM] unsigned char 
  4543 ;; Return value:  Size  Location     Type
  4544 ;;                  1    wreg      unsigned char 
  4545 ;; Registers used:
  4546 ;;		wreg, status,2
  4547 ;; Tracked objects:
  4548 ;;		On entry : 0/0
  4549 ;;		On exit  : 0/0
  4550 ;;		Unchanged: 0/0
  4551 ;; Data sizes:     COMRAM   BANK0   BANK1   BANK2   BANK3   BANK4   BANK5   BANK6   BANK7   BANK8   BANK9  BANK10  BANK1
      +1  BANK12  BANK13  BANK14  BANK15
  4552 ;;      Params:         1       0       0       0       0       0       0       0       0       0       0       0       
      +0       0       0       0       0
  4553 ;;      Locals:         1       0       0       0       0       0       0       0       0       0       0       0       
      +0       0       0       0       0
  4554 ;;      Temps:          0       0       0       0       0       0       0       0       0       0       0       0       
      +0       0       0       0       0
  4555 ;;      Totals:         2       0       0       0       0       0       0       0       0       0       0       0       
      +0       0       0       0       0
  4556 ;;Total ram usage:        2 bytes
  4557 ;; Hardware stack levels used: 1
  4558 ;; Hardware stack levels required when called: 5
  4559 ;; This function calls:
  4560 ;;		Nothing
  4561 ;; This function is called by:
  4562 ;;		_Interrupt_RBx_Init
  4563 ;;		_Interrupt_RBx_DeInit
  4564 ;; This function uses a non-reentrant model
  4565 ;;
  4566                           
  4567                           	psect	text32
  4568   00311A                     __ptext32:
  4569                           	callstack 0
  4570   00311A                     _Interrupt_RBx_Disable:
  4571                           	callstack 22
  4572   00311A                     
  4573                           ;MCAL_Layer/Interrupt/mcal_external_interrupt.c: 518:     if(((void*)0) == int_obj){
  4574   00311A  5068               	movf	Interrupt_RBx_Disable@int_obj^0,w,c
  4575   00311C  A4D8               	btfss	status,2,c
  4576   00311E  EF93  F018         	goto	u4561
  4577   003122  EF95  F018         	goto	u4560
  4578   003126                     u4561:
  4579   003126  EF99  F018         	goto	l499
  4580   00312A                     u4560:
  4581   00312A                     
  4582                           ;MCAL_Layer/Interrupt/mcal_external_interrupt.c: 519:         retVal = (Std_ReturnType)0
      +                          x00;
  4583   00312A  0E00               	movlw	0
  4584   00312C  6E69               	movwf	Interrupt_RBx_Disable@retVal^0,c
  4585                           
  4586                           ;MCAL_Layer/Interrupt/mcal_external_interrupt.c: 520:     }
  4587   00312E  EF9C  F018         	goto	l500
  4588   003132                     l499:
  4589                           
  4590                           ;MCAL_Layer/Interrupt/mcal_external_interrupt.c: 522:         (INTCONbits.RBIE = 0);
  4591   003132  96F2               	bcf	242,3,c	;volatile
  4592   003134                     
  4593                           ;MCAL_Layer/Interrupt/mcal_external_interrupt.c: 523:         retVal = (Std_ReturnType)0
      +                          x01;
  4594   003134  0E01               	movlw	1
  4595   003136  6E69               	movwf	Interrupt_RBx_Disable@retVal^0,c
  4596   003138                     l500:
  4597                           
  4598                           ;MCAL_Layer/Interrupt/mcal_external_interrupt.c: 525:     return retVal;
  4599   003138  5069               	movf	Interrupt_RBx_Disable@retVal^0,w,c
  4600   00313A  0012               	return		;funcret
  4601   00313C                     __end_of_Interrupt_RBx_Disable:
  4602                           	callstack 0
  4603                           
  4604 ;; *************** function _Interrupt_INTx_Init *****************
  4605 ;; Defined at:
  4606 ;;		line 149 in file "MCAL_Layer/Interrupt/mcal_external_interrupt.c"
  4607 ;; Parameters:    Size  Location     Type
  4608 ;;  int_obj         1   10[BANK0 ] PTR const struct .
  4609 ;;		 -> count_down_int(6), count_up_int(6), reset_int(6), 
  4610 ;; Auto vars:     Size  Location     Type
  4611 ;;  retVal          1   11[BANK0 ] unsigned char 
  4612 ;; Return value:  Size  Location     Type
  4613 ;;                  1    wreg      unsigned char 
  4614 ;; Registers used:
  4615 ;;		wreg, fsr2l, fsr2h, status,2, status,0, prodl, prodh, cstack
  4616 ;; Tracked objects:
  4617 ;;		On entry : 0/0
  4618 ;;		On exit  : 0/0
  4619 ;;		Unchanged: 0/0
  4620 ;; Data sizes:     COMRAM   BANK0   BANK1   BANK2   BANK3   BANK4   BANK5   BANK6   BANK7   BANK8   BANK9  BANK10  BANK1
      +1  BANK12  BANK13  BANK14  BANK15
  4621 ;;      Params:         0       1       0       0       0       0       0       0       0       0       0       0       
      +0       0       0       0       0
  4622 ;;      Locals:         0       1       0       0       0       0       0       0       0       0       0       0       
      +0       0       0       0       0
  4623 ;;      Temps:          0       0       0       0       0       0       0       0       0       0       0       0       
      +0       0       0       0       0
  4624 ;;      Totals:         0       2       0       0       0       0       0       0       0       0       0       0       
      +0       0       0       0       0
  4625 ;;Total ram usage:        2 bytes
  4626 ;; Hardware stack levels used: 1
  4627 ;; Hardware stack levels required when called: 8
  4628 ;; This function calls:
  4629 ;;		_Interrupt_INTx_Clear_Flag
  4630 ;;		_Interrupt_INTx_Disable
  4631 ;;		_Interrupt_INTx_Edge_Init
  4632 ;;		_Interrupt_INTx_Enable
  4633 ;;		_Interrupt_INTx_Pin_Init
  4634 ;;		_Interrupt_INTx_SetInterruptHandler
  4635 ;; This function is called by:
  4636 ;;		_mcal_layer_initialize
  4637 ;; This function uses a non-reentrant model
  4638 ;;
  4639                           
  4640                           	psect	text33
  4641   002A1A                     __ptext33:
  4642                           	callstack 0
  4643   002A1A                     _Interrupt_INTx_Init:
  4644                           	callstack 20
  4645   002A1A                     
  4646                           ;MCAL_Layer/Interrupt/mcal_external_interrupt.c: 151:     if(((void*)0) == int_obj){
  4647   002A1A  0100               	movlb	0	; () banked
  4648   002A1C  51D5               	movf	Interrupt_INTx_Init@int_obj& (0+255),w,b
  4649   002A1E  A4D8               	btfss	status,2,c
  4650   002A20  EF14  F015         	goto	u4981
  4651   002A24  EF16  F015         	goto	u4980
  4652   002A28                     u4981:
  4653   002A28  EF1A  F015         	goto	l5466
  4654   002A2C                     u4980:
  4655   002A2C                     
  4656                           ; BSR set to: 0
  4657                           ;MCAL_Layer/Interrupt/mcal_external_interrupt.c: 152:         retVal = (Std_ReturnType)0
      +                          x00;
  4658   002A2C  0E00               	movlw	0
  4659   002A2E  6FD6               	movwf	Interrupt_INTx_Init@retVal& (0+255),b
  4660                           
  4661                           ;MCAL_Layer/Interrupt/mcal_external_interrupt.c: 153:     }
  4662   002A30  EF3E  F015         	goto	l5474
  4663   002A34                     l5466:
  4664                           
  4665                           ; BSR set to: 0
  4666                           ;MCAL_Layer/Interrupt/mcal_external_interrupt.c: 156:         retVal = Interrupt_INTx_Di
      +                          sable(int_obj);
  4667   002A34  C0D5  F068         	movff	Interrupt_INTx_Init@int_obj,Interrupt_INTx_Disable@int_obj
  4668   002A38  ECC3  F013         	call	_Interrupt_INTx_Disable	;wreg free
  4669   002A3C  0100               	movlb	0	; () banked
  4670   002A3E  6FD6               	movwf	Interrupt_INTx_Init@retVal& (0+255),b
  4671                           
  4672                           ;MCAL_Layer/Interrupt/mcal_external_interrupt.c: 158:         retVal &= Interrupt_INTx_C
      +                          lear_Flag(int_obj);
  4673   002A40  C0D5  F068         	movff	Interrupt_INTx_Init@int_obj,Interrupt_INTx_Clear_Flag@int_obj
  4674   002A44  ECFC  F013         	call	_Interrupt_INTx_Clear_Flag	;wreg free
  4675   002A48  0100               	movlb	0	; () banked
  4676   002A4A  17D6               	andwf	Interrupt_INTx_Init@retVal& (0+255),f,b
  4677                           
  4678                           ;MCAL_Layer/Interrupt/mcal_external_interrupt.c: 160:         retVal &= Interrupt_INTx_E
      +                          dge_Init(int_obj);
  4679   002A4C  C0D5  F068         	movff	Interrupt_INTx_Init@int_obj,Interrupt_INTx_Edge_Init@int_obj
  4680   002A50  EC87  F00B         	call	_Interrupt_INTx_Edge_Init	;wreg free
  4681   002A54  0100               	movlb	0	; () banked
  4682   002A56  17D6               	andwf	Interrupt_INTx_Init@retVal& (0+255),f,b
  4683   002A58                     
  4684                           ; BSR set to: 0
  4685                           ;MCAL_Layer/Interrupt/mcal_external_interrupt.c: 166:         retVal &= Interrupt_INTx_P
      +                          in_Init(int_obj);
  4686   002A58  C0D5  F0D3         	movff	Interrupt_INTx_Init@int_obj,Interrupt_INTx_Pin_Init@int_obj
  4687   002A5C  EC15  F018         	call	_Interrupt_INTx_Pin_Init	;wreg free
  4688   002A60  0100               	movlb	0	; () banked
  4689   002A62  17D6               	andwf	Interrupt_INTx_Init@retVal& (0+255),f,b
  4690   002A64                     
  4691                           ; BSR set to: 0
  4692                           ;MCAL_Layer/Interrupt/mcal_external_interrupt.c: 168:         retVal &= Interrupt_INTx_S
      +                          etInterruptHandler(int_obj);
  4693   002A64  C0D5  F0CB         	movff	Interrupt_INTx_Init@int_obj,Interrupt_INTx_SetInterruptHandler@int_obj
  4694   002A68  ECEA  F010         	call	_Interrupt_INTx_SetInterruptHandler	;wreg free
  4695   002A6C  0100               	movlb	0	; () banked
  4696   002A6E  17D6               	andwf	Interrupt_INTx_Init@retVal& (0+255),f,b
  4697   002A70                     
  4698                           ; BSR set to: 0
  4699                           ;MCAL_Layer/Interrupt/mcal_external_interrupt.c: 170:         retVal &= Interrupt_INTx_E
      +                          nable(int_obj);
  4700   002A70  C0D5  F068         	movff	Interrupt_INTx_Init@int_obj,Interrupt_INTx_Enable@int_obj
  4701   002A74  EC92  F012         	call	_Interrupt_INTx_Enable	;wreg free
  4702   002A78  0100               	movlb	0	; () banked
  4703   002A7A  17D6               	andwf	Interrupt_INTx_Init@retVal& (0+255),f,b
  4704   002A7C                     l5474:
  4705                           
  4706                           ; BSR set to: 0
  4707                           ;MCAL_Layer/Interrupt/mcal_external_interrupt.c: 172:     return retVal;
  4708   002A7C  51D6               	movf	Interrupt_INTx_Init@retVal& (0+255),w,b
  4709   002A7E                     
  4710                           ; BSR set to: 0
  4711   002A7E  0012               	return		;funcret
  4712   002A80                     __end_of_Interrupt_INTx_Init:
  4713                           	callstack 0
  4714                           
  4715 ;; *************** function _Interrupt_INTx_SetInterruptHandler *****************
  4716 ;; Defined at:
  4717 ;;		line 481 in file "MCAL_Layer/Interrupt/mcal_external_interrupt.c"
  4718 ;; Parameters:    Size  Location     Type
  4719 ;;  int_obj         1    0[BANK0 ] PTR const struct .
  4720 ;;		 -> count_down_int(6), count_up_int(6), reset_int(6), 
  4721 ;; Auto vars:     Size  Location     Type
  4722 ;;  retVal          1    3[BANK0 ] unsigned char 
  4723 ;; Return value:  Size  Location     Type
  4724 ;;                  1    wreg      unsigned char 
  4725 ;; Registers used:
  4726 ;;		wreg, fsr2l, fsr2h, status,2, status,0, cstack
  4727 ;; Tracked objects:
  4728 ;;		On entry : 0/0
  4729 ;;		On exit  : 0/0
  4730 ;;		Unchanged: 0/0
  4731 ;; Data sizes:     COMRAM   BANK0   BANK1   BANK2   BANK3   BANK4   BANK5   BANK6   BANK7   BANK8   BANK9  BANK10  BANK1
      +1  BANK12  BANK13  BANK14  BANK15
  4732 ;;      Params:         0       1       0       0       0       0       0       0       0       0       0       0       
      +0       0       0       0       0
  4733 ;;      Locals:         0       1       0       0       0       0       0       0       0       0       0       0       
      +0       0       0       0       0
  4734 ;;      Temps:          0       2       0       0       0       0       0       0       0       0       0       0       
      +0       0       0       0       0
  4735 ;;      Totals:         0       4       0       0       0       0       0       0       0       0       0       0       
      +0       0       0       0       0
  4736 ;;Total ram usage:        4 bytes
  4737 ;; Hardware stack levels used: 1
  4738 ;; Hardware stack levels required when called: 6
  4739 ;; This function calls:
  4740 ;;		_INT0_SetInterruptHandler
  4741 ;;		_INT1_SetInterruptHandler
  4742 ;;		_INT2_SetInterruptHandler
  4743 ;; This function is called by:
  4744 ;;		_Interrupt_INTx_Init
  4745 ;; This function uses a non-reentrant model
  4746 ;;
  4747                           
  4748                           	psect	text34
  4749   0021D4                     __ptext34:
  4750                           	callstack 0
  4751   0021D4                     _Interrupt_INTx_SetInterruptHandler:
  4752                           	callstack 21
  4753   0021D4                     
  4754                           ;MCAL_Layer/Interrupt/mcal_external_interrupt.c: 483:         if(((void*)0) == int_obj){
  4755   0021D4  0100               	movlb	0	; () banked
  4756   0021D6  51CB               	movf	Interrupt_INTx_SetInterruptHandler@int_obj& (0+255),w,b
  4757   0021D8  A4D8               	btfss	status,2,c
  4758   0021DA  EFF1  F010         	goto	u4541
  4759   0021DE  EFF3  F010         	goto	u4540
  4760   0021E2                     u4541:
  4761   0021E2  EF1E  F011         	goto	l5186
  4762   0021E6                     u4540:
  4763   0021E6                     l5176:
  4764                           
  4765                           ; BSR set to: 0
  4766                           ;MCAL_Layer/Interrupt/mcal_external_interrupt.c: 484:             retVal = (Std_ReturnTy
      +                          pe)0x00;
  4767   0021E6  0E00               	movlw	0
  4768   0021E8  6FCE               	movwf	Interrupt_INTx_SetInterruptHandler@retVal& (0+255),b
  4769                           
  4770                           ;MCAL_Layer/Interrupt/mcal_external_interrupt.c: 485:         }
  4771   0021EA  EF3C  F011         	goto	l5188
  4772   0021EE                     l5178:
  4773                           
  4774                           ; BSR set to: 0
  4775                           ;MCAL_Layer/Interrupt/mcal_external_interrupt.c: 489:                     retVal = INT0_
      +                          SetInterruptHandler(int_obj->EXT_InterruptHandler);
  4776   0021EE  51CB               	movf	Interrupt_INTx_SetInterruptHandler@int_obj& (0+255),w,b
  4777   0021F0  6ED9               	movwf	fsr2l,c
  4778   0021F2  6ADA               	clrf	fsr2h,c
  4779   0021F4  CFDE F068          	movff	postinc2,INT0_SetInterruptHandler@InterruptHandler
  4780   0021F8  CFDD F069          	movff	postdec2,INT0_SetInterruptHandler@InterruptHandler+1
  4781   0021FC  EC55  F018         	call	_INT0_SetInterruptHandler	;wreg free
  4782   002200  0100               	movlb	0	; () banked
  4783   002202  6FCE               	movwf	Interrupt_INTx_SetInterruptHandler@retVal& (0+255),b
  4784                           
  4785                           ;MCAL_Layer/Interrupt/mcal_external_interrupt.c: 490:                     break;
  4786   002204  EF3C  F011         	goto	l5188
  4787   002208                     l5180:
  4788                           
  4789                           ; BSR set to: 0
  4790                           ;MCAL_Layer/Interrupt/mcal_external_interrupt.c: 492:                     retVal = INT1_
      +                          SetInterruptHandler(int_obj->EXT_InterruptHandler);
  4791   002208  51CB               	movf	Interrupt_INTx_SetInterruptHandler@int_obj& (0+255),w,b
  4792   00220A  6ED9               	movwf	fsr2l,c
  4793   00220C  6ADA               	clrf	fsr2h,c
  4794   00220E  CFDE F068          	movff	postinc2,INT1_SetInterruptHandler@InterruptHandler
  4795   002212  CFDD F069          	movff	postdec2,INT1_SetInterruptHandler@InterruptHandler+1
  4796   002216  EC40  F018         	call	_INT1_SetInterruptHandler	;wreg free
  4797   00221A  0100               	movlb	0	; () banked
  4798   00221C  6FCE               	movwf	Interrupt_INTx_SetInterruptHandler@retVal& (0+255),b
  4799                           
  4800                           ;MCAL_Layer/Interrupt/mcal_external_interrupt.c: 493:                     break;
  4801   00221E  EF3C  F011         	goto	l5188
  4802   002222                     l5182:
  4803                           
  4804                           ; BSR set to: 0
  4805                           ;MCAL_Layer/Interrupt/mcal_external_interrupt.c: 495:                     retVal = INT2_
      +                          SetInterruptHandler(int_obj->EXT_InterruptHandler);
  4806   002222  51CB               	movf	Interrupt_INTx_SetInterruptHandler@int_obj& (0+255),w,b
  4807   002224  6ED9               	movwf	fsr2l,c
  4808   002226  6ADA               	clrf	fsr2h,c
  4809   002228  CFDE F068          	movff	postinc2,INT2_SetInterruptHandler@InterruptHandler
  4810   00222C  CFDD F069          	movff	postdec2,INT2_SetInterruptHandler@InterruptHandler+1
  4811   002230  EC2B  F018         	call	_INT2_SetInterruptHandler	;wreg free
  4812   002234  0100               	movlb	0	; () banked
  4813   002236  6FCE               	movwf	Interrupt_INTx_SetInterruptHandler@retVal& (0+255),b
  4814                           
  4815                           ;MCAL_Layer/Interrupt/mcal_external_interrupt.c: 496:                     break;
  4816   002238  EF3C  F011         	goto	l5188
  4817   00223C                     l5186:
  4818                           
  4819                           ; BSR set to: 0
  4820   00223C  51CB               	movf	Interrupt_INTx_SetInterruptHandler@int_obj& (0+255),w,b
  4821   00223E  6ED9               	movwf	fsr2l,c
  4822   002240  6ADA               	clrf	fsr2h,c
  4823   002242  0E04               	movlw	4
  4824   002244  26D9               	addwf	fsr2l,f,c
  4825   002246  50DF               	movf	indf2,w,c
  4826   002248  6FCC               	movwf	??_Interrupt_INTx_SetInterruptHandler& (0+255),b
  4827   00224A  6BCD               	clrf	(??_Interrupt_INTx_SetInterruptHandler+1)& (0+255),b
  4828                           
  4829                           ; Switch on 2 bytes has been partitioned into a top level switch of size 1, and 1 sub-sw
      +                          itches
  4830                           ; Switch size 1, requested type "simple"
  4831                           ; Number of cases is 1, Range of values is 0 to 0
  4832                           ; switch strategies available:
  4833                           ; Name         Instructions Cycles
  4834                           ; simple_byte            4     3 (average)
  4835                           ;	Chosen strategy is simple_byte
  4836   00224C  51CD               	movf	(??_Interrupt_INTx_SetInterruptHandler+1)& (0+255),w,b
  4837   00224E  0A00               	xorlw	0	; case 0
  4838   002250  B4D8               	btfsc	status,2,c
  4839   002252  EF2D  F011         	goto	l6484
  4840   002256  EFF3  F010         	goto	l5176
  4841   00225A                     l6484:
  4842                           
  4843                           ; BSR set to: 0
  4844                           ; Switch size 1, requested type "simple"
  4845                           ; Number of cases is 3, Range of values is 0 to 2
  4846                           ; switch strategies available:
  4847                           ; Name         Instructions Cycles
  4848                           ; simple_byte           10     6 (average)
  4849                           ;	Chosen strategy is simple_byte
  4850   00225A  51CC               	movf	??_Interrupt_INTx_SetInterruptHandler& (0+255),w,b
  4851   00225C  0A00               	xorlw	0	; case 0
  4852   00225E  B4D8               	btfsc	status,2,c
  4853   002260  EFF7  F010         	goto	l5178
  4854   002264  0A01               	xorlw	1	; case 1
  4855   002266  B4D8               	btfsc	status,2,c
  4856   002268  EF04  F011         	goto	l5180
  4857   00226C  0A03               	xorlw	3	; case 2
  4858   00226E  B4D8               	btfsc	status,2,c
  4859   002270  EF11  F011         	goto	l5182
  4860   002274  EFF3  F010         	goto	l5176
  4861   002278                     l5188:
  4862                           
  4863                           ; BSR set to: 0
  4864                           ;MCAL_Layer/Interrupt/mcal_external_interrupt.c: 500:         return retVal;
  4865   002278  51CE               	movf	Interrupt_INTx_SetInterruptHandler@retVal& (0+255),w,b
  4866   00227A                     
  4867                           ; BSR set to: 0
  4868   00227A  0012               	return		;funcret
  4869   00227C                     __end_of_Interrupt_INTx_SetInterruptHandler:
  4870                           	callstack 0
  4871                           
  4872 ;; *************** function _INT2_SetInterruptHandler *****************
  4873 ;; Defined at:
  4874 ;;		line 470 in file "MCAL_Layer/Interrupt/mcal_external_interrupt.c"
  4875 ;; Parameters:    Size  Location     Type
  4876 ;;  InterruptHan    2   18[COMRAM] PTR FTN()PTR void 
  4877 ;;		 -> INT2_CountDownIneterruptHandler(1), INT1_CountUpIneterruptHandler(1), INT0_ResetIneterruptHandler(1), 
  4878 ;; Auto vars:     Size  Location     Type
  4879 ;;  retVal          1   20[COMRAM] unsigned char 
  4880 ;; Return value:  Size  Location     Type
  4881 ;;                  1    wreg      unsigned char 
  4882 ;; Registers used:
  4883 ;;		wreg, status,2, status,0
  4884 ;; Tracked objects:
  4885 ;;		On entry : 0/0
  4886 ;;		On exit  : 0/0
  4887 ;;		Unchanged: 0/0
  4888 ;; Data sizes:     COMRAM   BANK0   BANK1   BANK2   BANK3   BANK4   BANK5   BANK6   BANK7   BANK8   BANK9  BANK10  BANK1
      +1  BANK12  BANK13  BANK14  BANK15
  4889 ;;      Params:         2       0       0       0       0       0       0       0       0       0       0       0       
      +0       0       0       0       0
  4890 ;;      Locals:         1       0       0       0       0       0       0       0       0       0       0       0       
      +0       0       0       0       0
  4891 ;;      Temps:          0       0       0       0       0       0       0       0       0       0       0       0       
      +0       0       0       0       0
  4892 ;;      Totals:         3       0       0       0       0       0       0       0       0       0       0       0       
      +0       0       0       0       0
  4893 ;;Total ram usage:        3 bytes
  4894 ;; Hardware stack levels used: 1
  4895 ;; Hardware stack levels required when called: 5
  4896 ;; This function calls:
  4897 ;;		Nothing
  4898 ;; This function is called by:
  4899 ;;		_Interrupt_INTx_SetInterruptHandler
  4900 ;; This function uses a non-reentrant model
  4901 ;;
  4902                           
  4903                           	psect	text35
  4904   003056                     __ptext35:
  4905                           	callstack 0
  4906   003056                     _INT2_SetInterruptHandler:
  4907                           	callstack 21
  4908   003056                     
  4909                           ;MCAL_Layer/Interrupt/mcal_external_interrupt.c: 472:     if(((void*)0) == InterruptHand
      +                          ler){
  4910   003056  5068               	movf	INT2_SetInterruptHandler@InterruptHandler^0,w,c
  4911   003058  1069               	iorwf	(INT2_SetInterruptHandler@InterruptHandler+1)^0,w,c
  4912   00305A  A4D8               	btfss	status,2,c
  4913   00305C  EF32  F018         	goto	u4431
  4914   003060  EF34  F018         	goto	u4430
  4915   003064                     u4431:
  4916   003064  EF38  F018         	goto	l5066
  4917   003068                     u4430:
  4918   003068                     
  4919                           ;MCAL_Layer/Interrupt/mcal_external_interrupt.c: 473:         retVal = (Std_ReturnType)0
      +                          x00;
  4920   003068  0E00               	movlw	0
  4921   00306A  6E6A               	movwf	INT2_SetInterruptHandler@retVal^0,c
  4922                           
  4923                           ;MCAL_Layer/Interrupt/mcal_external_interrupt.c: 474:     }
  4924   00306C  EF3E  F018         	goto	l5070
  4925   003070                     l5066:
  4926                           
  4927                           ;MCAL_Layer/Interrupt/mcal_external_interrupt.c: 476:         INT2_InterruptHandler = In
      +                          terruptHandler;
  4928   003070  C068  F01B         	movff	INT2_SetInterruptHandler@InterruptHandler,_INT2_InterruptHandler
  4929   003074  C069  F01C         	movff	INT2_SetInterruptHandler@InterruptHandler+1,_INT2_InterruptHandler+1
  4930   003078                     
  4931                           ;MCAL_Layer/Interrupt/mcal_external_interrupt.c: 477:         retVal = (Std_ReturnType)0
      +                          x01;
  4932   003078  0E01               	movlw	1
  4933   00307A  6E6A               	movwf	INT2_SetInterruptHandler@retVal^0,c
  4934   00307C                     l5070:
  4935                           
  4936                           ;MCAL_Layer/Interrupt/mcal_external_interrupt.c: 479:     return retVal;
  4937   00307C  506A               	movf	INT2_SetInterruptHandler@retVal^0,w,c
  4938   00307E  0012               	return		;funcret
  4939   003080                     __end_of_INT2_SetInterruptHandler:
  4940                           	callstack 0
  4941                           
  4942 ;; *************** function _INT1_SetInterruptHandler *****************
  4943 ;; Defined at:
  4944 ;;		line 459 in file "MCAL_Layer/Interrupt/mcal_external_interrupt.c"
  4945 ;; Parameters:    Size  Location     Type
  4946 ;;  InterruptHan    2   18[COMRAM] PTR FTN()PTR void 
  4947 ;;		 -> INT2_CountDownIneterruptHandler(1), INT1_CountUpIneterruptHandler(1), INT0_ResetIneterruptHandler(1), 
  4948 ;; Auto vars:     Size  Location     Type
  4949 ;;  retVal          1   20[COMRAM] unsigned char 
  4950 ;; Return value:  Size  Location     Type
  4951 ;;                  1    wreg      unsigned char 
  4952 ;; Registers used:
  4953 ;;		wreg, status,2, status,0
  4954 ;; Tracked objects:
  4955 ;;		On entry : 0/0
  4956 ;;		On exit  : 0/0
  4957 ;;		Unchanged: 0/0
  4958 ;; Data sizes:     COMRAM   BANK0   BANK1   BANK2   BANK3   BANK4   BANK5   BANK6   BANK7   BANK8   BANK9  BANK10  BANK1
      +1  BANK12  BANK13  BANK14  BANK15
  4959 ;;      Params:         2       0       0       0       0       0       0       0       0       0       0       0       
      +0       0       0       0       0
  4960 ;;      Locals:         1       0       0       0       0       0       0       0       0       0       0       0       
      +0       0       0       0       0
  4961 ;;      Temps:          0       0       0       0       0       0       0       0       0       0       0       0       
      +0       0       0       0       0
  4962 ;;      Totals:         3       0       0       0       0       0       0       0       0       0       0       0       
      +0       0       0       0       0
  4963 ;;Total ram usage:        3 bytes
  4964 ;; Hardware stack levels used: 1
  4965 ;; Hardware stack levels required when called: 5
  4966 ;; This function calls:
  4967 ;;		Nothing
  4968 ;; This function is called by:
  4969 ;;		_Interrupt_INTx_SetInterruptHandler
  4970 ;; This function uses a non-reentrant model
  4971 ;;
  4972                           
  4973                           	psect	text36
  4974   003080                     __ptext36:
  4975                           	callstack 0
  4976   003080                     _INT1_SetInterruptHandler:
  4977                           	callstack 21
  4978   003080                     
  4979                           ;MCAL_Layer/Interrupt/mcal_external_interrupt.c: 461:     if(((void*)0) == InterruptHand
      +                          ler){
  4980   003080  5068               	movf	INT1_SetInterruptHandler@InterruptHandler^0,w,c
  4981   003082  1069               	iorwf	(INT1_SetInterruptHandler@InterruptHandler+1)^0,w,c
  4982   003084  A4D8               	btfss	status,2,c
  4983   003086  EF47  F018         	goto	u4421
  4984   00308A  EF49  F018         	goto	u4420
  4985   00308E                     u4421:
  4986   00308E  EF4D  F018         	goto	l5052
  4987   003092                     u4420:
  4988   003092                     
  4989                           ;MCAL_Layer/Interrupt/mcal_external_interrupt.c: 462:         retVal = (Std_ReturnType)0
      +                          x00;
  4990   003092  0E00               	movlw	0
  4991   003094  6E6A               	movwf	INT1_SetInterruptHandler@retVal^0,c
  4992                           
  4993                           ;MCAL_Layer/Interrupt/mcal_external_interrupt.c: 463:     }
  4994   003096  EF53  F018         	goto	l5056
  4995   00309A                     l5052:
  4996                           
  4997                           ;MCAL_Layer/Interrupt/mcal_external_interrupt.c: 465:         INT1_InterruptHandler = In
      +                          terruptHandler;
  4998   00309A  C068  F01D         	movff	INT1_SetInterruptHandler@InterruptHandler,_INT1_InterruptHandler
  4999   00309E  C069  F01E         	movff	INT1_SetInterruptHandler@InterruptHandler+1,_INT1_InterruptHandler+1
  5000   0030A2                     
  5001                           ;MCAL_Layer/Interrupt/mcal_external_interrupt.c: 466:         retVal = (Std_ReturnType)0
      +                          x01;
  5002   0030A2  0E01               	movlw	1
  5003   0030A4  6E6A               	movwf	INT1_SetInterruptHandler@retVal^0,c
  5004   0030A6                     l5056:
  5005                           
  5006                           ;MCAL_Layer/Interrupt/mcal_external_interrupt.c: 468:     return retVal;
  5007   0030A6  506A               	movf	INT1_SetInterruptHandler@retVal^0,w,c
  5008   0030A8  0012               	return		;funcret
  5009   0030AA                     __end_of_INT1_SetInterruptHandler:
  5010                           	callstack 0
  5011                           
  5012 ;; *************** function _INT0_SetInterruptHandler *****************
  5013 ;; Defined at:
  5014 ;;		line 448 in file "MCAL_Layer/Interrupt/mcal_external_interrupt.c"
  5015 ;; Parameters:    Size  Location     Type
  5016 ;;  InterruptHan    2   18[COMRAM] PTR FTN()PTR void 
  5017 ;;		 -> INT2_CountDownIneterruptHandler(1), INT1_CountUpIneterruptHandler(1), INT0_ResetIneterruptHandler(1), 
  5018 ;; Auto vars:     Size  Location     Type
  5019 ;;  retVal          1   20[COMRAM] unsigned char 
  5020 ;; Return value:  Size  Location     Type
  5021 ;;                  1    wreg      unsigned char 
  5022 ;; Registers used:
  5023 ;;		wreg, status,2, status,0
  5024 ;; Tracked objects:
  5025 ;;		On entry : 0/0
  5026 ;;		On exit  : 0/0
  5027 ;;		Unchanged: 0/0
  5028 ;; Data sizes:     COMRAM   BANK0   BANK1   BANK2   BANK3   BANK4   BANK5   BANK6   BANK7   BANK8   BANK9  BANK10  BANK1
      +1  BANK12  BANK13  BANK14  BANK15
  5029 ;;      Params:         2       0       0       0       0       0       0       0       0       0       0       0       
      +0       0       0       0       0
  5030 ;;      Locals:         1       0       0       0       0       0       0       0       0       0       0       0       
      +0       0       0       0       0
  5031 ;;      Temps:          0       0       0       0       0       0       0       0       0       0       0       0       
      +0       0       0       0       0
  5032 ;;      Totals:         3       0       0       0       0       0       0       0       0       0       0       0       
      +0       0       0       0       0
  5033 ;;Total ram usage:        3 bytes
  5034 ;; Hardware stack levels used: 1
  5035 ;; Hardware stack levels required when called: 5
  5036 ;; This function calls:
  5037 ;;		Nothing
  5038 ;; This function is called by:
  5039 ;;		_Interrupt_INTx_SetInterruptHandler
  5040 ;; This function uses a non-reentrant model
  5041 ;;
  5042                           
  5043                           	psect	text37
  5044   0030AA                     __ptext37:
  5045                           	callstack 0
  5046   0030AA                     _INT0_SetInterruptHandler:
  5047                           	callstack 21
  5048   0030AA                     
  5049                           ;MCAL_Layer/Interrupt/mcal_external_interrupt.c: 450:     if(((void*)0) == InterruptHand
      +                          ler){
  5050   0030AA  5068               	movf	INT0_SetInterruptHandler@InterruptHandler^0,w,c
  5051   0030AC  1069               	iorwf	(INT0_SetInterruptHandler@InterruptHandler+1)^0,w,c
  5052   0030AE  A4D8               	btfss	status,2,c
  5053   0030B0  EF5C  F018         	goto	u4411
  5054   0030B4  EF5E  F018         	goto	u4410
  5055   0030B8                     u4411:
  5056   0030B8  EF62  F018         	goto	l5038
  5057   0030BC                     u4410:
  5058   0030BC                     
  5059                           ;MCAL_Layer/Interrupt/mcal_external_interrupt.c: 451:         retVal = (Std_ReturnType)0
      +                          x00;
  5060   0030BC  0E00               	movlw	0
  5061   0030BE  6E6A               	movwf	INT0_SetInterruptHandler@retVal^0,c
  5062                           
  5063                           ;MCAL_Layer/Interrupt/mcal_external_interrupt.c: 452:     }
  5064   0030C0  EF68  F018         	goto	l5042
  5065   0030C4                     l5038:
  5066                           
  5067                           ;MCAL_Layer/Interrupt/mcal_external_interrupt.c: 454:         INT0_InterruptHandler = In
      +                          terruptHandler;
  5068   0030C4  C068  F01F         	movff	INT0_SetInterruptHandler@InterruptHandler,_INT0_InterruptHandler
  5069   0030C8  C069  F020         	movff	INT0_SetInterruptHandler@InterruptHandler+1,_INT0_InterruptHandler+1
  5070   0030CC                     
  5071                           ;MCAL_Layer/Interrupt/mcal_external_interrupt.c: 455:         retVal = (Std_ReturnType)0
      +                          x01;
  5072   0030CC  0E01               	movlw	1
  5073   0030CE  6E6A               	movwf	INT0_SetInterruptHandler@retVal^0,c
  5074   0030D0                     l5042:
  5075                           
  5076                           ;MCAL_Layer/Interrupt/mcal_external_interrupt.c: 457:     return retVal;
  5077   0030D0  506A               	movf	INT0_SetInterruptHandler@retVal^0,w,c
  5078   0030D2  0012               	return		;funcret
  5079   0030D4                     __end_of_INT0_SetInterruptHandler:
  5080                           	callstack 0
  5081                           
  5082 ;; *************** function _Interrupt_INTx_Pin_Init *****************
  5083 ;; Defined at:
  5084 ;;		line 411 in file "MCAL_Layer/Interrupt/mcal_external_interrupt.c"
  5085 ;; Parameters:    Size  Location     Type
  5086 ;;  int_obj         1    8[BANK0 ] PTR const struct .
  5087 ;;		 -> count_down_int(6), count_up_int(6), reset_int(6), 
  5088 ;; Auto vars:     Size  Location     Type
  5089 ;;  retVal          1    9[BANK0 ] unsigned char 
  5090 ;; Return value:  Size  Location     Type
  5091 ;;                  1    wreg      unsigned char 
  5092 ;; Registers used:
  5093 ;;		wreg, fsr2l, fsr2h, status,2, status,0, prodl, prodh, cstack
  5094 ;; Tracked objects:
  5095 ;;		On entry : 0/0
  5096 ;;		On exit  : 0/0
  5097 ;;		Unchanged: 0/0
  5098 ;; Data sizes:     COMRAM   BANK0   BANK1   BANK2   BANK3   BANK4   BANK5   BANK6   BANK7   BANK8   BANK9  BANK10  BANK1
      +1  BANK12  BANK13  BANK14  BANK15
  5099 ;;      Params:         0       1       0       0       0       0       0       0       0       0       0       0       
      +0       0       0       0       0
  5100 ;;      Locals:         0       1       0       0       0       0       0       0       0       0       0       0       
      +0       0       0       0       0
  5101 ;;      Temps:          0       0       0       0       0       0       0       0       0       0       0       0       
      +0       0       0       0       0
  5102 ;;      Totals:         0       2       0       0       0       0       0       0       0       0       0       0       
      +0       0       0       0       0
  5103 ;;Total ram usage:        2 bytes
  5104 ;; Hardware stack levels used: 1
  5105 ;; Hardware stack levels required when called: 7
  5106 ;; This function calls:
  5107 ;;		_gpio_pin_initialize
  5108 ;; This function is called by:
  5109 ;;		_Interrupt_INTx_Init
  5110 ;; This function uses a non-reentrant model
  5111 ;;
  5112                           
  5113                           	psect	text38
  5114   00302A                     __ptext38:
  5115                           	callstack 0
  5116   00302A                     _Interrupt_INTx_Pin_Init:
  5117                           	callstack 20
  5118   00302A                     
  5119                           ;MCAL_Layer/Interrupt/mcal_external_interrupt.c: 413:     if(((void*)0) == int_obj){
  5120   00302A  0100               	movlb	0	; () banked
  5121   00302C  51D3               	movf	Interrupt_INTx_Pin_Init@int_obj& (0+255),w,b
  5122   00302E  A4D8               	btfss	status,2,c
  5123   003030  EF1C  F018         	goto	u4531
  5124   003034  EF1E  F018         	goto	u4530
  5125   003038                     u4531:
  5126   003038  EF22  F018         	goto	l5168
  5127   00303C                     u4530:
  5128   00303C                     
  5129                           ; BSR set to: 0
  5130                           ;MCAL_Layer/Interrupt/mcal_external_interrupt.c: 414:         retVal = (Std_ReturnType)0
      +                          x00;
  5131   00303C  0E00               	movlw	0
  5132   00303E  6FD4               	movwf	Interrupt_INTx_Pin_Init@retVal& (0+255),b
  5133                           
  5134                           ;MCAL_Layer/Interrupt/mcal_external_interrupt.c: 415:     }
  5135   003040  EF29  F018         	goto	l5170
  5136   003044                     l5168:
  5137                           
  5138                           ; BSR set to: 0
  5139                           ;MCAL_Layer/Interrupt/mcal_external_interrupt.c: 417:         retVal = gpio_pin_initiali
      +                          ze(&(int_obj->mcu_pin));
  5140   003044  51D3               	movf	Interrupt_INTx_Pin_Init@int_obj& (0+255),w,b
  5141   003046  0F02               	addlw	2
  5142   003048  6FD0               	movwf	gpio_pin_initialize@config& (0+255),b
  5143   00304A  ECD9  F014         	call	_gpio_pin_initialize	;wreg free
  5144   00304E  0100               	movlb	0	; () banked
  5145   003050  6FD4               	movwf	Interrupt_INTx_Pin_Init@retVal& (0+255),b
  5146   003052                     l5170:
  5147                           
  5148                           ; BSR set to: 0
  5149                           ;MCAL_Layer/Interrupt/mcal_external_interrupt.c: 419:     return retVal;
  5150   003052  51D4               	movf	Interrupt_INTx_Pin_Init@retVal& (0+255),w,b
  5151   003054                     
  5152                           ; BSR set to: 0
  5153   003054  0012               	return		;funcret
  5154   003056                     __end_of_Interrupt_INTx_Pin_Init:
  5155                           	callstack 0
  5156                           
  5157 ;; *************** function _Interrupt_INTx_Enable *****************
  5158 ;; Defined at:
  5159 ;;		line 262 in file "MCAL_Layer/Interrupt/mcal_external_interrupt.c"
  5160 ;; Parameters:    Size  Location     Type
  5161 ;;  int_obj         1   18[COMRAM] PTR const struct .
  5162 ;;		 -> count_down_int(6), count_up_int(6), reset_int(6), 
  5163 ;; Auto vars:     Size  Location     Type
  5164 ;;  retVal          1    0[BANK0 ] unsigned char 
  5165 ;; Return value:  Size  Location     Type
  5166 ;;                  1    wreg      unsigned char 
  5167 ;; Registers used:
  5168 ;;		wreg, fsr2l, fsr2h, status,2, status,0
  5169 ;; Tracked objects:
  5170 ;;		On entry : 0/0
  5171 ;;		On exit  : 0/0
  5172 ;;		Unchanged: 0/0
  5173 ;; Data sizes:     COMRAM   BANK0   BANK1   BANK2   BANK3   BANK4   BANK5   BANK6   BANK7   BANK8   BANK9  BANK10  BANK1
      +1  BANK12  BANK13  BANK14  BANK15
  5174 ;;      Params:         1       0       0       0       0       0       0       0       0       0       0       0       
      +0       0       0       0       0
  5175 ;;      Locals:         0       1       0       0       0       0       0       0       0       0       0       0       
      +0       0       0       0       0
  5176 ;;      Temps:          2       0       0       0       0       0       0       0       0       0       0       0       
      +0       0       0       0       0
  5177 ;;      Totals:         3       1       0       0       0       0       0       0       0       0       0       0       
      +0       0       0       0       0
  5178 ;;Total ram usage:        4 bytes
  5179 ;; Hardware stack levels used: 1
  5180 ;; Hardware stack levels required when called: 5
  5181 ;; This function calls:
  5182 ;;		Nothing
  5183 ;; This function is called by:
  5184 ;;		_Interrupt_INTx_Init
  5185 ;; This function uses a non-reentrant model
  5186 ;;
  5187                           
  5188                           	psect	text39
  5189   002524                     __ptext39:
  5190                           	callstack 0
  5191   002524                     _Interrupt_INTx_Enable:
  5192                           	callstack 22
  5193   002524                     
  5194                           ;MCAL_Layer/Interrupt/mcal_external_interrupt.c: 264:     if(((void*)0) == int_obj){
  5195   002524  5068               	movf	Interrupt_INTx_Enable@int_obj^0,w,c
  5196   002526  A4D8               	btfss	status,2,c
  5197   002528  EF98  F012         	goto	u4551
  5198   00252C  EF9A  F012         	goto	u4550
  5199   002530                     u4551:
  5200   002530  EFB1  F012         	goto	l5208
  5201   002534                     u4550:
  5202   002534                     l5198:
  5203                           
  5204                           ;MCAL_Layer/Interrupt/mcal_external_interrupt.c: 265:         retVal = (Std_ReturnType)0
      +                          x00;
  5205   002534  0E00               	movlw	0
  5206   002536  0100               	movlb	0	; () banked
  5207   002538  6FCB               	movwf	Interrupt_INTx_Enable@retVal& (0+255),b
  5208                           
  5209                           ;MCAL_Layer/Interrupt/mcal_external_interrupt.c: 266:     }
  5210   00253A  EFCF  F012         	goto	l5210
  5211   00253E                     l413:
  5212                           
  5213                           ;MCAL_Layer/Interrupt/mcal_external_interrupt.c: 273:                 (INTCONbits.GIE = 
      +                          1);
  5214   00253E  8EF2               	bsf	242,7,c	;volatile
  5215                           
  5216                           ;MCAL_Layer/Interrupt/mcal_external_interrupt.c: 274:                 (INTCONbits.PEIE =
      +                           1);
  5217   002540  8CF2               	bsf	242,6,c	;volatile
  5218                           
  5219                           ;MCAL_Layer/Interrupt/mcal_external_interrupt.c: 276:                 (INTCONbits.INT0IE
      +                           = 1);
  5220   002542  88F2               	bsf	242,4,c	;volatile
  5221   002544                     l5200:
  5222                           
  5223                           ;MCAL_Layer/Interrupt/mcal_external_interrupt.c: 277:                 retVal = (Std_Retu
      +                          rnType)0x01;
  5224   002544  0E01               	movlw	1
  5225   002546  0100               	movlb	0	; () banked
  5226   002548  6FCB               	movwf	Interrupt_INTx_Enable@retVal& (0+255),b
  5227                           
  5228                           ;MCAL_Layer/Interrupt/mcal_external_interrupt.c: 278:                 break;
  5229   00254A  EFCF  F012         	goto	l5210
  5230   00254E                     l415:
  5231                           
  5232                           ;MCAL_Layer/Interrupt/mcal_external_interrupt.c: 289:                 (INTCONbits.GIE = 
      +                          1);
  5233   00254E  8EF2               	bsf	242,7,c	;volatile
  5234                           
  5235                           ;MCAL_Layer/Interrupt/mcal_external_interrupt.c: 290:                 (INTCONbits.PEIE =
      +                           1);
  5236   002550  8CF2               	bsf	242,6,c	;volatile
  5237                           
  5238                           ;MCAL_Layer/Interrupt/mcal_external_interrupt.c: 292:                 (INTCON3bits.INT1I
      +                          E = 1);
  5239   002552  86F0               	bsf	240,3,c	;volatile
  5240   002554  EFA2  F012         	goto	l5200
  5241   002558                     l416:
  5242                           
  5243                           ;MCAL_Layer/Interrupt/mcal_external_interrupt.c: 305:                 (INTCONbits.GIE = 
      +                          1);
  5244   002558  8EF2               	bsf	242,7,c	;volatile
  5245                           
  5246                           ;MCAL_Layer/Interrupt/mcal_external_interrupt.c: 306:                 (INTCONbits.PEIE =
      +                           1);
  5247   00255A  8CF2               	bsf	242,6,c	;volatile
  5248                           
  5249                           ;MCAL_Layer/Interrupt/mcal_external_interrupt.c: 308:                 (INTCON3bits.INT2I
      +                          E = 1);
  5250   00255C  88F0               	bsf	240,4,c	;volatile
  5251   00255E  EFA2  F012         	goto	l5200
  5252   002562                     l5208:
  5253   002562  5068               	movf	Interrupt_INTx_Enable@int_obj^0,w,c
  5254   002564  6ED9               	movwf	fsr2l,c
  5255   002566  6ADA               	clrf	fsr2h,c
  5256   002568  0E04               	movlw	4
  5257   00256A  26D9               	addwf	fsr2l,f,c
  5258   00256C  50DF               	movf	indf2,w,c
  5259   00256E  6E69               	movwf	??_Interrupt_INTx_Enable^0,c
  5260   002570  6A6A               	clrf	(??_Interrupt_INTx_Enable+1)^0,c
  5261                           
  5262                           ; Switch on 2 bytes has been partitioned into a top level switch of size 1, and 1 sub-sw
      +                          itches
  5263                           ; Switch size 1, requested type "simple"
  5264                           ; Number of cases is 1, Range of values is 0 to 0
  5265                           ; switch strategies available:
  5266                           ; Name         Instructions Cycles
  5267                           ; simple_byte            4     3 (average)
  5268                           ;	Chosen strategy is simple_byte
  5269   002572  506A               	movf	(??_Interrupt_INTx_Enable+1)^0,w,c
  5270   002574  0A00               	xorlw	0	; case 0
  5271   002576  B4D8               	btfsc	status,2,c
  5272   002578  EFC0  F012         	goto	l6486
  5273   00257C  EF9A  F012         	goto	l5198
  5274   002580                     l6486:
  5275                           
  5276                           ; Switch size 1, requested type "simple"
  5277                           ; Number of cases is 3, Range of values is 0 to 2
  5278                           ; switch strategies available:
  5279                           ; Name         Instructions Cycles
  5280                           ; simple_byte           10     6 (average)
  5281                           ;	Chosen strategy is simple_byte
  5282   002580  5069               	movf	??_Interrupt_INTx_Enable^0,w,c
  5283   002582  0A00               	xorlw	0	; case 0
  5284   002584  B4D8               	btfsc	status,2,c
  5285   002586  EF9F  F012         	goto	l413
  5286   00258A  0A01               	xorlw	1	; case 1
  5287   00258C  B4D8               	btfsc	status,2,c
  5288   00258E  EFA7  F012         	goto	l415
  5289   002592  0A03               	xorlw	3	; case 2
  5290   002594  B4D8               	btfsc	status,2,c
  5291   002596  EFAC  F012         	goto	l416
  5292   00259A  EF9A  F012         	goto	l5198
  5293   00259E                     l5210:
  5294                           
  5295                           ; BSR set to: 0
  5296                           ;MCAL_Layer/Interrupt/mcal_external_interrupt.c: 314:     return retVal;
  5297   00259E  51CB               	movf	Interrupt_INTx_Enable@retVal& (0+255),w,b
  5298   0025A0                     
  5299                           ; BSR set to: 0
  5300   0025A0  0012               	return		;funcret
  5301   0025A2                     __end_of_Interrupt_INTx_Enable:
  5302                           	callstack 0
  5303                           
  5304 ;; *************** function _Interrupt_INTx_Edge_Init *****************
  5305 ;; Defined at:
  5306 ;;		line 372 in file "MCAL_Layer/Interrupt/mcal_external_interrupt.c"
  5307 ;; Parameters:    Size  Location     Type
  5308 ;;  int_obj         1   18[COMRAM] PTR const struct .
  5309 ;;		 -> count_down_int(6), count_up_int(6), reset_int(6), 
  5310 ;; Auto vars:     Size  Location     Type
  5311 ;;  retVal          1    0[BANK0 ] unsigned char 
  5312 ;; Return value:  Size  Location     Type
  5313 ;;                  1    wreg      unsigned char 
  5314 ;; Registers used:
  5315 ;;		wreg, fsr2l, fsr2h, status,2, status,0
  5316 ;; Tracked objects:
  5317 ;;		On entry : 0/0
  5318 ;;		On exit  : 0/0
  5319 ;;		Unchanged: 0/0
  5320 ;; Data sizes:     COMRAM   BANK0   BANK1   BANK2   BANK3   BANK4   BANK5   BANK6   BANK7   BANK8   BANK9  BANK10  BANK1
      +1  BANK12  BANK13  BANK14  BANK15
  5321 ;;      Params:         1       0       0       0       0       0       0       0       0       0       0       0       
      +0       0       0       0       0
  5322 ;;      Locals:         0       1       0       0       0       0       0       0       0       0       0       0       
      +0       0       0       0       0
  5323 ;;      Temps:          2       0       0       0       0       0       0       0       0       0       0       0       
      +0       0       0       0       0
  5324 ;;      Totals:         3       1       0       0       0       0       0       0       0       0       0       0       
      +0       0       0       0       0
  5325 ;;Total ram usage:        4 bytes
  5326 ;; Hardware stack levels used: 1
  5327 ;; Hardware stack levels required when called: 5
  5328 ;; This function calls:
  5329 ;;		Nothing
  5330 ;; This function is called by:
  5331 ;;		_Interrupt_INTx_Init
  5332 ;; This function uses a non-reentrant model
  5333 ;;
  5334                           
  5335                           	psect	text40
  5336   00170E                     __ptext40:
  5337                           	callstack 0
  5338   00170E                     _Interrupt_INTx_Edge_Init:
  5339                           	callstack 22
  5340   00170E                     
  5341                           ;MCAL_Layer/Interrupt/mcal_external_interrupt.c: 374:     if(((void*)0) == int_obj){
  5342   00170E  5068               	movf	Interrupt_INTx_Edge_Init@int_obj^0,w,c
  5343   001710  A4D8               	btfss	status,2,c
  5344   001712  EF8D  F00B         	goto	u4461
  5345   001716  EF8F  F00B         	goto	u4460
  5346   00171A                     u4461:
  5347   00171A  EFF7  F00B         	goto	l5154
  5348   00171E                     u4460:
  5349   00171E                     l5120:
  5350                           
  5351                           ;MCAL_Layer/Interrupt/mcal_external_interrupt.c: 375:         retVal = (Std_ReturnType)0
      +                          x00;
  5352   00171E  0E00               	movlw	0
  5353   001720  0100               	movlb	0	; () banked
  5354   001722  6FCB               	movwf	Interrupt_INTx_Edge_Init@retVal& (0+255),b
  5355                           
  5356                           ;MCAL_Layer/Interrupt/mcal_external_interrupt.c: 376:     }
  5357   001724  EF15  F00C         	goto	l5156
  5358   001728                     l5122:
  5359                           
  5360                           ;MCAL_Layer/Interrupt/mcal_external_interrupt.c: 380:                 if(INTERRUPT_FALLI
      +                          NG_EDGE == int_obj->edge){
  5361   001728  5068               	movf	Interrupt_INTx_Edge_Init@int_obj^0,w,c
  5362   00172A  6ED9               	movwf	fsr2l,c
  5363   00172C  6ADA               	clrf	fsr2h,c
  5364   00172E  0E03               	movlw	3
  5365   001730  26D9               	addwf	fsr2l,f,c
  5366   001732  50DF               	movf	indf2,w,c
  5367   001734  A4D8               	btfss	status,2,c
  5368   001736  EF9F  F00B         	goto	u4471
  5369   00173A  EFA1  F00B         	goto	u4470
  5370   00173E                     u4471:
  5371   00173E  EFA4  F00B         	goto	l5126
  5372   001742                     u4470:
  5373   001742                     
  5374                           ;MCAL_Layer/Interrupt/mcal_external_interrupt.c: 381:                     (INTCON2bits.I
      +                          NTEDG0 = 0);
  5375   001742  9CF1               	bcf	241,6,c	;volatile
  5376                           
  5377                           ;MCAL_Layer/Interrupt/mcal_external_interrupt.c: 382:                 }
  5378   001744  EFB2  F00B         	goto	l5130
  5379   001748                     l5126:
  5380   001748  5068               	movf	Interrupt_INTx_Edge_Init@int_obj^0,w,c
  5381   00174A  6ED9               	movwf	fsr2l,c
  5382   00174C  6ADA               	clrf	fsr2h,c
  5383   00174E  0E03               	movlw	3
  5384   001750  26D9               	addwf	fsr2l,f,c
  5385   001752  04DE               	decf	postinc2,w,c
  5386   001754  A4D8               	btfss	status,2,c
  5387   001756  EFAF  F00B         	goto	u4481
  5388   00175A  EFB1  F00B         	goto	u4480
  5389   00175E                     u4481:
  5390   00175E  EFB2  F00B         	goto	l5130
  5391   001762                     u4480:
  5392   001762                     
  5393                           ;MCAL_Layer/Interrupt/mcal_external_interrupt.c: 384:                     (INTCON2bits.I
      +                          NTEDG0 = 1);
  5394   001762  8CF1               	bsf	241,6,c	;volatile
  5395   001764                     l5130:
  5396                           
  5397                           ;MCAL_Layer/Interrupt/mcal_external_interrupt.c: 386:                 retVal = (Std_Retu
      +                          rnType)0x01;
  5398   001764  0E01               	movlw	1
  5399   001766  0100               	movlb	0	; () banked
  5400   001768  6FCB               	movwf	Interrupt_INTx_Edge_Init@retVal& (0+255),b
  5401                           
  5402                           ;MCAL_Layer/Interrupt/mcal_external_interrupt.c: 387:                 break;
  5403   00176A  EF15  F00C         	goto	l5156
  5404   00176E                     l5132:
  5405                           
  5406                           ;MCAL_Layer/Interrupt/mcal_external_interrupt.c: 389:                 if(INTERRUPT_FALLI
      +                          NG_EDGE == int_obj->edge){
  5407   00176E  5068               	movf	Interrupt_INTx_Edge_Init@int_obj^0,w,c
  5408   001770  6ED9               	movwf	fsr2l,c
  5409   001772  6ADA               	clrf	fsr2h,c
  5410   001774  0E03               	movlw	3
  5411   001776  26D9               	addwf	fsr2l,f,c
  5412   001778  50DF               	movf	indf2,w,c
  5413   00177A  A4D8               	btfss	status,2,c
  5414   00177C  EFC2  F00B         	goto	u4491
  5415   001780  EFC4  F00B         	goto	u4490
  5416   001784                     u4491:
  5417   001784  EFC7  F00B         	goto	l5136
  5418   001788                     u4490:
  5419   001788                     
  5420                           ;MCAL_Layer/Interrupt/mcal_external_interrupt.c: 390:                     (INTCON2bits.I
      +                          NTEDG1 = 0);
  5421   001788  9AF1               	bcf	241,5,c	;volatile
  5422                           
  5423                           ;MCAL_Layer/Interrupt/mcal_external_interrupt.c: 391:                 }
  5424   00178A  EFB2  F00B         	goto	l5130
  5425   00178E                     l5136:
  5426   00178E  5068               	movf	Interrupt_INTx_Edge_Init@int_obj^0,w,c
  5427   001790  6ED9               	movwf	fsr2l,c
  5428   001792  6ADA               	clrf	fsr2h,c
  5429   001794  0E03               	movlw	3
  5430   001796  26D9               	addwf	fsr2l,f,c
  5431   001798  04DE               	decf	postinc2,w,c
  5432   00179A  A4D8               	btfss	status,2,c
  5433   00179C  EFD2  F00B         	goto	u4501
  5434   0017A0  EFD4  F00B         	goto	u4500
  5435   0017A4                     u4501:
  5436   0017A4  EFB2  F00B         	goto	l5130
  5437   0017A8                     u4500:
  5438   0017A8                     
  5439                           ;MCAL_Layer/Interrupt/mcal_external_interrupt.c: 393:                     (INTCON2bits.I
      +                          NTEDG1 = 1);
  5440   0017A8  8AF1               	bsf	241,5,c	;volatile
  5441   0017AA  EFB2  F00B         	goto	l5130
  5442   0017AE                     l5142:
  5443                           
  5444                           ;MCAL_Layer/Interrupt/mcal_external_interrupt.c: 398:                 if(INTERRUPT_FALLI
      +                          NG_EDGE == int_obj->edge){
  5445   0017AE  5068               	movf	Interrupt_INTx_Edge_Init@int_obj^0,w,c
  5446   0017B0  6ED9               	movwf	fsr2l,c
  5447   0017B2  6ADA               	clrf	fsr2h,c
  5448   0017B4  0E03               	movlw	3
  5449   0017B6  26D9               	addwf	fsr2l,f,c
  5450   0017B8  50DF               	movf	indf2,w,c
  5451   0017BA  A4D8               	btfss	status,2,c
  5452   0017BC  EFE2  F00B         	goto	u4511
  5453   0017C0  EFE4  F00B         	goto	u4510
  5454   0017C4                     u4511:
  5455   0017C4  EFE7  F00B         	goto	l5146
  5456   0017C8                     u4510:
  5457   0017C8                     
  5458                           ;MCAL_Layer/Interrupt/mcal_external_interrupt.c: 399:                     (INTCON2bits.I
      +                          NTEDG2 = 0);
  5459   0017C8  98F1               	bcf	241,4,c	;volatile
  5460                           
  5461                           ;MCAL_Layer/Interrupt/mcal_external_interrupt.c: 400:                 }
  5462   0017CA  EFB2  F00B         	goto	l5130
  5463   0017CE                     l5146:
  5464   0017CE  5068               	movf	Interrupt_INTx_Edge_Init@int_obj^0,w,c
  5465   0017D0  6ED9               	movwf	fsr2l,c
  5466   0017D2  6ADA               	clrf	fsr2h,c
  5467   0017D4  0E03               	movlw	3
  5468   0017D6  26D9               	addwf	fsr2l,f,c
  5469   0017D8  04DE               	decf	postinc2,w,c
  5470   0017DA  A4D8               	btfss	status,2,c
  5471   0017DC  EFF2  F00B         	goto	u4521
  5472   0017E0  EFF4  F00B         	goto	u4520
  5473   0017E4                     u4521:
  5474   0017E4  EFB2  F00B         	goto	l5130
  5475   0017E8                     u4520:
  5476   0017E8                     
  5477                           ;MCAL_Layer/Interrupt/mcal_external_interrupt.c: 402:                     (INTCON2bits.I
      +                          NTEDG2 = 1);
  5478   0017E8  88F1               	bsf	241,4,c	;volatile
  5479   0017EA  EFB2  F00B         	goto	l5130
  5480   0017EE                     l5154:
  5481   0017EE  5068               	movf	Interrupt_INTx_Edge_Init@int_obj^0,w,c
  5482   0017F0  6ED9               	movwf	fsr2l,c
  5483   0017F2  6ADA               	clrf	fsr2h,c
  5484   0017F4  0E04               	movlw	4
  5485   0017F6  26D9               	addwf	fsr2l,f,c
  5486   0017F8  50DF               	movf	indf2,w,c
  5487   0017FA  6E69               	movwf	??_Interrupt_INTx_Edge_Init^0,c
  5488   0017FC  6A6A               	clrf	(??_Interrupt_INTx_Edge_Init+1)^0,c
  5489                           
  5490                           ; Switch on 2 bytes has been partitioned into a top level switch of size 1, and 1 sub-sw
      +                          itches
  5491                           ; Switch size 1, requested type "simple"
  5492                           ; Number of cases is 1, Range of values is 0 to 0
  5493                           ; switch strategies available:
  5494                           ; Name         Instructions Cycles
  5495                           ; simple_byte            4     3 (average)
  5496                           ;	Chosen strategy is simple_byte
  5497   0017FE  506A               	movf	(??_Interrupt_INTx_Edge_Init+1)^0,w,c
  5498   001800  0A00               	xorlw	0	; case 0
  5499   001802  B4D8               	btfsc	status,2,c
  5500   001804  EF06  F00C         	goto	l6488
  5501   001808  EF8F  F00B         	goto	l5120
  5502   00180C                     l6488:
  5503                           
  5504                           ; Switch size 1, requested type "simple"
  5505                           ; Number of cases is 3, Range of values is 0 to 2
  5506                           ; switch strategies available:
  5507                           ; Name         Instructions Cycles
  5508                           ; simple_byte           10     6 (average)
  5509                           ;	Chosen strategy is simple_byte
  5510   00180C  5069               	movf	??_Interrupt_INTx_Edge_Init^0,w,c
  5511   00180E  0A00               	xorlw	0	; case 0
  5512   001810  B4D8               	btfsc	status,2,c
  5513   001812  EF94  F00B         	goto	l5122
  5514   001816  0A01               	xorlw	1	; case 1
  5515   001818  B4D8               	btfsc	status,2,c
  5516   00181A  EFB7  F00B         	goto	l5132
  5517   00181E  0A03               	xorlw	3	; case 2
  5518   001820  B4D8               	btfsc	status,2,c
  5519   001822  EFD7  F00B         	goto	l5142
  5520   001826  EF8F  F00B         	goto	l5120
  5521   00182A                     l5156:
  5522                           
  5523                           ; BSR set to: 0
  5524                           ;MCAL_Layer/Interrupt/mcal_external_interrupt.c: 409:     return retVal;
  5525   00182A  51CB               	movf	Interrupt_INTx_Edge_Init@retVal& (0+255),w,b
  5526   00182C                     
  5527                           ; BSR set to: 0
  5528   00182C  0012               	return		;funcret
  5529   00182E                     __end_of_Interrupt_INTx_Edge_Init:
  5530                           	callstack 0
  5531                           
  5532 ;; *************** function _Interrupt_INTx_Disable *****************
  5533 ;; Defined at:
  5534 ;;		line 316 in file "MCAL_Layer/Interrupt/mcal_external_interrupt.c"
  5535 ;; Parameters:    Size  Location     Type
  5536 ;;  int_obj         1   18[COMRAM] PTR const struct .
  5537 ;;		 -> count_down_int(6), count_up_int(6), reset_int(6), 
  5538 ;; Auto vars:     Size  Location     Type
  5539 ;;  retVal          1    0[BANK0 ] unsigned char 
  5540 ;; Return value:  Size  Location     Type
  5541 ;;                  1    wreg      unsigned char 
  5542 ;; Registers used:
  5543 ;;		wreg, fsr2l, fsr2h, status,2, status,0
  5544 ;; Tracked objects:
  5545 ;;		On entry : 0/0
  5546 ;;		On exit  : 0/0
  5547 ;;		Unchanged: 0/0
  5548 ;; Data sizes:     COMRAM   BANK0   BANK1   BANK2   BANK3   BANK4   BANK5   BANK6   BANK7   BANK8   BANK9  BANK10  BANK1
      +1  BANK12  BANK13  BANK14  BANK15
  5549 ;;      Params:         1       0       0       0       0       0       0       0       0       0       0       0       
      +0       0       0       0       0
  5550 ;;      Locals:         0       1       0       0       0       0       0       0       0       0       0       0       
      +0       0       0       0       0
  5551 ;;      Temps:          2       0       0       0       0       0       0       0       0       0       0       0       
      +0       0       0       0       0
  5552 ;;      Totals:         3       1       0       0       0       0       0       0       0       0       0       0       
      +0       0       0       0       0
  5553 ;;Total ram usage:        4 bytes
  5554 ;; Hardware stack levels used: 1
  5555 ;; Hardware stack levels required when called: 5
  5556 ;; This function calls:
  5557 ;;		Nothing
  5558 ;; This function is called by:
  5559 ;;		_Interrupt_INTx_Init
  5560 ;;		_Interrupt_INTx_DeInit
  5561 ;; This function uses a non-reentrant model
  5562 ;;
  5563                           
  5564                           	psect	text41
  5565   002786                     __ptext41:
  5566                           	callstack 0
  5567   002786                     _Interrupt_INTx_Disable:
  5568                           	callstack 22
  5569   002786                     
  5570                           ;MCAL_Layer/Interrupt/mcal_external_interrupt.c: 318:     if(((void*)0) == int_obj){
  5571   002786  5068               	movf	Interrupt_INTx_Disable@int_obj^0,w,c
  5572   002788  A4D8               	btfss	status,2,c
  5573   00278A  EFC9  F013         	goto	u4441
  5574   00278E  EFCB  F013         	goto	u4440
  5575   002792                     u4441:
  5576   002792  EFDC  F013         	goto	l5086
  5577   002796                     u4440:
  5578   002796                     l5076:
  5579                           
  5580                           ;MCAL_Layer/Interrupt/mcal_external_interrupt.c: 319:         retVal = (Std_ReturnType)0
      +                          x00;
  5581   002796  0E00               	movlw	0
  5582   002798  0100               	movlb	0	; () banked
  5583   00279A  6FCB               	movwf	Interrupt_INTx_Disable@retVal& (0+255),b
  5584                           
  5585                           ;MCAL_Layer/Interrupt/mcal_external_interrupt.c: 320:     }
  5586   00279C  EFFA  F013         	goto	l5088
  5587   0027A0                     l424:
  5588                           
  5589                           ;MCAL_Layer/Interrupt/mcal_external_interrupt.c: 324:                 (INTCONbits.INT0IE
      +                           = 0);
  5590   0027A0  98F2               	bcf	242,4,c	;volatile
  5591   0027A2                     l5078:
  5592                           
  5593                           ;MCAL_Layer/Interrupt/mcal_external_interrupt.c: 325:                 retVal = (Std_Retu
      +                          rnType)0x01;
  5594   0027A2  0E01               	movlw	1
  5595   0027A4  0100               	movlb	0	; () banked
  5596   0027A6  6FCB               	movwf	Interrupt_INTx_Disable@retVal& (0+255),b
  5597                           
  5598                           ;MCAL_Layer/Interrupt/mcal_external_interrupt.c: 326:                 break;
  5599   0027A8  EFFA  F013         	goto	l5088
  5600   0027AC                     l426:
  5601                           
  5602                           ;MCAL_Layer/Interrupt/mcal_external_interrupt.c: 328:                 (INTCON3bits.INT1I
      +                          E = 0);
  5603   0027AC  96F0               	bcf	240,3,c	;volatile
  5604   0027AE  EFD1  F013         	goto	l5078
  5605   0027B2                     l427:
  5606                           
  5607                           ;MCAL_Layer/Interrupt/mcal_external_interrupt.c: 332:                 (INTCON3bits.INT2I
      +                          E = 0);
  5608   0027B2  98F0               	bcf	240,4,c	;volatile
  5609   0027B4  EFD1  F013         	goto	l5078
  5610   0027B8                     l5086:
  5611   0027B8  5068               	movf	Interrupt_INTx_Disable@int_obj^0,w,c
  5612   0027BA  6ED9               	movwf	fsr2l,c
  5613   0027BC  6ADA               	clrf	fsr2h,c
  5614   0027BE  0E04               	movlw	4
  5615   0027C0  26D9               	addwf	fsr2l,f,c
  5616   0027C2  50DF               	movf	indf2,w,c
  5617   0027C4  6E69               	movwf	??_Interrupt_INTx_Disable^0,c
  5618   0027C6  6A6A               	clrf	(??_Interrupt_INTx_Disable+1)^0,c
  5619                           
  5620                           ; Switch on 2 bytes has been partitioned into a top level switch of size 1, and 1 sub-sw
      +                          itches
  5621                           ; Switch size 1, requested type "simple"
  5622                           ; Number of cases is 1, Range of values is 0 to 0
  5623                           ; switch strategies available:
  5624                           ; Name         Instructions Cycles
  5625                           ; simple_byte            4     3 (average)
  5626                           ;	Chosen strategy is simple_byte
  5627   0027C8  506A               	movf	(??_Interrupt_INTx_Disable+1)^0,w,c
  5628   0027CA  0A00               	xorlw	0	; case 0
  5629   0027CC  B4D8               	btfsc	status,2,c
  5630   0027CE  EFEB  F013         	goto	l6490
  5631   0027D2  EFCB  F013         	goto	l5076
  5632   0027D6                     l6490:
  5633                           
  5634                           ; Switch size 1, requested type "simple"
  5635                           ; Number of cases is 3, Range of values is 0 to 2
  5636                           ; switch strategies available:
  5637                           ; Name         Instructions Cycles
  5638                           ; simple_byte           10     6 (average)
  5639                           ;	Chosen strategy is simple_byte
  5640   0027D6  5069               	movf	??_Interrupt_INTx_Disable^0,w,c
  5641   0027D8  0A00               	xorlw	0	; case 0
  5642   0027DA  B4D8               	btfsc	status,2,c
  5643   0027DC  EFD0  F013         	goto	l424
  5644   0027E0  0A01               	xorlw	1	; case 1
  5645   0027E2  B4D8               	btfsc	status,2,c
  5646   0027E4  EFD6  F013         	goto	l426
  5647   0027E8  0A03               	xorlw	3	; case 2
  5648   0027EA  B4D8               	btfsc	status,2,c
  5649   0027EC  EFD9  F013         	goto	l427
  5650   0027F0  EFCB  F013         	goto	l5076
  5651   0027F4                     l5088:
  5652                           
  5653                           ; BSR set to: 0
  5654                           ;MCAL_Layer/Interrupt/mcal_external_interrupt.c: 338:     return retVal;
  5655   0027F4  51CB               	movf	Interrupt_INTx_Disable@retVal& (0+255),w,b
  5656   0027F6                     
  5657                           ; BSR set to: 0
  5658   0027F6  0012               	return		;funcret
  5659   0027F8                     __end_of_Interrupt_INTx_Disable:
  5660                           	callstack 0
  5661                           
  5662 ;; *************** function _Interrupt_INTx_Clear_Flag *****************
  5663 ;; Defined at:
  5664 ;;		line 421 in file "MCAL_Layer/Interrupt/mcal_external_interrupt.c"
  5665 ;; Parameters:    Size  Location     Type
  5666 ;;  int_obj         1   18[COMRAM] PTR const struct .
  5667 ;;		 -> count_down_int(6), count_up_int(6), reset_int(6), 
  5668 ;; Auto vars:     Size  Location     Type
  5669 ;;  retVal          1    0[BANK0 ] unsigned char 
  5670 ;; Return value:  Size  Location     Type
  5671 ;;                  1    wreg      unsigned char 
  5672 ;; Registers used:
  5673 ;;		wreg, fsr2l, fsr2h, status,2, status,0
  5674 ;; Tracked objects:
  5675 ;;		On entry : 0/0
  5676 ;;		On exit  : 0/0
  5677 ;;		Unchanged: 0/0
  5678 ;; Data sizes:     COMRAM   BANK0   BANK1   BANK2   BANK3   BANK4   BANK5   BANK6   BANK7   BANK8   BANK9  BANK10  BANK1
      +1  BANK12  BANK13  BANK14  BANK15
  5679 ;;      Params:         1       0       0       0       0       0       0       0       0       0       0       0       
      +0       0       0       0       0
  5680 ;;      Locals:         0       1       0       0       0       0       0       0       0       0       0       0       
      +0       0       0       0       0
  5681 ;;      Temps:          2       0       0       0       0       0       0       0       0       0       0       0       
      +0       0       0       0       0
  5682 ;;      Totals:         3       1       0       0       0       0       0       0       0       0       0       0       
      +0       0       0       0       0
  5683 ;;Total ram usage:        4 bytes
  5684 ;; Hardware stack levels used: 1
  5685 ;; Hardware stack levels required when called: 5
  5686 ;; This function calls:
  5687 ;;		Nothing
  5688 ;; This function is called by:
  5689 ;;		_Interrupt_INTx_Init
  5690 ;; This function uses a non-reentrant model
  5691 ;;
  5692                           
  5693                           	psect	text42
  5694   0027F8                     __ptext42:
  5695                           	callstack 0
  5696   0027F8                     _Interrupt_INTx_Clear_Flag:
  5697                           	callstack 22
  5698   0027F8                     
  5699                           ;MCAL_Layer/Interrupt/mcal_external_interrupt.c: 423:     if(((void*)0) == int_obj){
  5700   0027F8  5068               	movf	Interrupt_INTx_Clear_Flag@int_obj^0,w,c
  5701   0027FA  A4D8               	btfss	status,2,c
  5702   0027FC  EF02  F014         	goto	u4451
  5703   002800  EF04  F014         	goto	u4450
  5704   002804                     u4451:
  5705   002804  EF15  F014         	goto	l5108
  5706   002808                     u4450:
  5707   002808                     l5098:
  5708                           
  5709                           ;MCAL_Layer/Interrupt/mcal_external_interrupt.c: 424:         retVal = (Std_ReturnType)0
      +                          x00;
  5710   002808  0E00               	movlw	0
  5711   00280A  0100               	movlb	0	; () banked
  5712   00280C  6FCB               	movwf	Interrupt_INTx_Clear_Flag@retVal& (0+255),b
  5713                           
  5714                           ;MCAL_Layer/Interrupt/mcal_external_interrupt.c: 425:     }
  5715   00280E  EF33  F014         	goto	l5110
  5716   002812                     l460:
  5717                           
  5718                           ;MCAL_Layer/Interrupt/mcal_external_interrupt.c: 429:                 (INTCONbits.INT0IF
      +                           = 0);
  5719   002812  92F2               	bcf	242,1,c	;volatile
  5720   002814                     l5100:
  5721                           
  5722                           ;MCAL_Layer/Interrupt/mcal_external_interrupt.c: 430:                 retVal = (Std_Retu
      +                          rnType)0x01;
  5723   002814  0E01               	movlw	1
  5724   002816  0100               	movlb	0	; () banked
  5725   002818  6FCB               	movwf	Interrupt_INTx_Clear_Flag@retVal& (0+255),b
  5726                           
  5727                           ;MCAL_Layer/Interrupt/mcal_external_interrupt.c: 431:                 break;
  5728   00281A  EF33  F014         	goto	l5110
  5729   00281E                     l462:
  5730                           
  5731                           ;MCAL_Layer/Interrupt/mcal_external_interrupt.c: 433:                 (INTCON3bits.INT1I
      +                          F = 0);
  5732   00281E  90F0               	bcf	240,0,c	;volatile
  5733   002820  EF0A  F014         	goto	l5100
  5734   002824                     l463:
  5735                           
  5736                           ;MCAL_Layer/Interrupt/mcal_external_interrupt.c: 437:                 (INTCON3bits.INT2I
      +                          F = 0);
  5737   002824  92F0               	bcf	240,1,c	;volatile
  5738   002826  EF0A  F014         	goto	l5100
  5739   00282A                     l5108:
  5740   00282A  5068               	movf	Interrupt_INTx_Clear_Flag@int_obj^0,w,c
  5741   00282C  6ED9               	movwf	fsr2l,c
  5742   00282E  6ADA               	clrf	fsr2h,c
  5743   002830  0E04               	movlw	4
  5744   002832  26D9               	addwf	fsr2l,f,c
  5745   002834  50DF               	movf	indf2,w,c
  5746   002836  6E69               	movwf	??_Interrupt_INTx_Clear_Flag^0,c
  5747   002838  6A6A               	clrf	(??_Interrupt_INTx_Clear_Flag+1)^0,c
  5748                           
  5749                           ; Switch on 2 bytes has been partitioned into a top level switch of size 1, and 1 sub-sw
      +                          itches
  5750                           ; Switch size 1, requested type "simple"
  5751                           ; Number of cases is 1, Range of values is 0 to 0
  5752                           ; switch strategies available:
  5753                           ; Name         Instructions Cycles
  5754                           ; simple_byte            4     3 (average)
  5755                           ;	Chosen strategy is simple_byte
  5756   00283A  506A               	movf	(??_Interrupt_INTx_Clear_Flag+1)^0,w,c
  5757   00283C  0A00               	xorlw	0	; case 0
  5758   00283E  B4D8               	btfsc	status,2,c
  5759   002840  EF24  F014         	goto	l6492
  5760   002844  EF04  F014         	goto	l5098
  5761   002848                     l6492:
  5762                           
  5763                           ; Switch size 1, requested type "simple"
  5764                           ; Number of cases is 3, Range of values is 0 to 2
  5765                           ; switch strategies available:
  5766                           ; Name         Instructions Cycles
  5767                           ; simple_byte           10     6 (average)
  5768                           ;	Chosen strategy is simple_byte
  5769   002848  5069               	movf	??_Interrupt_INTx_Clear_Flag^0,w,c
  5770   00284A  0A00               	xorlw	0	; case 0
  5771   00284C  B4D8               	btfsc	status,2,c
  5772   00284E  EF09  F014         	goto	l460
  5773   002852  0A01               	xorlw	1	; case 1
  5774   002854  B4D8               	btfsc	status,2,c
  5775   002856  EF0F  F014         	goto	l462
  5776   00285A  0A03               	xorlw	3	; case 2
  5777   00285C  B4D8               	btfsc	status,2,c
  5778   00285E  EF12  F014         	goto	l463
  5779   002862  EF04  F014         	goto	l5098
  5780   002866                     l5110:
  5781                           
  5782                           ; BSR set to: 0
  5783                           ;MCAL_Layer/Interrupt/mcal_external_interrupt.c: 443:     return retVal;
  5784   002866  51CB               	movf	Interrupt_INTx_Clear_Flag@retVal& (0+255),w,b
  5785   002868                     
  5786                           ; BSR set to: 0
  5787   002868  0012               	return		;funcret
  5788   00286A                     __end_of_Interrupt_INTx_Clear_Flag:
  5789                           	callstack 0
  5790                           
  5791 ;; *************** function _ecu_layer_initialize *****************
  5792 ;; Defined at:
  5793 ;;		line 127 in file "ECU_Layer/ecu_layer_initialize.c"
  5794 ;; Parameters:    Size  Location     Type
  5795 ;;		None
  5796 ;; Auto vars:     Size  Location     Type
  5797 ;;  retVal          1    0        unsigned char 
  5798 ;; Return value:  Size  Location     Type
  5799 ;;                  1    wreg      void 
  5800 ;; Registers used:
  5801 ;;		wreg, fsr2l, fsr2h, status,2, status,0, prodl, prodh, cstack
  5802 ;; Tracked objects:
  5803 ;;		On entry : 0/0
  5804 ;;		On exit  : 0/0
  5805 ;;		Unchanged: 0/0
  5806 ;; Data sizes:     COMRAM   BANK0   BANK1   BANK2   BANK3   BANK4   BANK5   BANK6   BANK7   BANK8   BANK9  BANK10  BANK1
      +1  BANK12  BANK13  BANK14  BANK15
  5807 ;;      Params:         0       0       0       0       0       0       0       0       0       0       0       0       
      +0       0       0       0       0
  5808 ;;      Locals:         0       0       0       0       0       0       0       0       0       0       0       0       
      +0       0       0       0       0
  5809 ;;      Temps:          0       0       0       0       0       0       0       0       0       0       0       0       
      +0       0       0       0       0
  5810 ;;      Totals:         0       0       0       0       0       0       0       0       0       0       0       0       
      +0       0       0       0       0
  5811 ;;Total ram usage:        0 bytes
  5812 ;; Hardware stack levels used: 1
  5813 ;; Hardware stack levels required when called: 8
  5814 ;; This function calls:
  5815 ;;		_gpio_pin_initialize
  5816 ;;		_keypad_initialize
  5817 ;;		_led_initialize
  5818 ;;		_seven_segment_initialize
  5819 ;; This function is called by:
  5820 ;;		_application_initialize
  5821 ;; This function uses a non-reentrant model
  5822 ;;
  5823                           
  5824                           	psect	text43
  5825   0025A2                     __ptext43:
  5826                           	callstack 0
  5827   0025A2                     _ecu_layer_initialize:
  5828                           	callstack 21
  5829   0025A2  0E46               	movlw	low _seven_segment
  5830   0025A4  0100               	movlb	0	; () banked
  5831   0025A6  6FD3               	movwf	seven_segment_initialize@segment& (0+255),b
  5832   0025A8  ECF8  F015         	call	_seven_segment_initialize	;wreg free
  5833   0025AC  0E55               	movlw	low _seg_enable_1
  5834   0025AE  0100               	movlb	0	; () banked
  5835   0025B0  6FD0               	movwf	gpio_pin_initialize@config& (0+255),b
  5836   0025B2  ECD9  F014         	call	_gpio_pin_initialize	;wreg free
  5837   0025B6  0E54               	movlw	low _seg_enable_2
  5838   0025B8  0100               	movlb	0	; () banked
  5839   0025BA  6FD0               	movwf	gpio_pin_initialize@config& (0+255),b
  5840   0025BC  ECD9  F014         	call	_gpio_pin_initialize	;wreg free
  5841   0025C0  0E53               	movlw	low _seg_enable_3
  5842   0025C2  0100               	movlb	0	; () banked
  5843   0025C4  6FD0               	movwf	gpio_pin_initialize@config& (0+255),b
  5844   0025C6  ECD9  F014         	call	_gpio_pin_initialize	;wreg free
  5845   0025CA  0E52               	movlw	low _seg_enable_4
  5846   0025CC  0100               	movlb	0	; () banked
  5847   0025CE  6FD0               	movwf	gpio_pin_initialize@config& (0+255),b
  5848   0025D0  ECD9  F014         	call	_gpio_pin_initialize	;wreg free
  5849   0025D4  0E51               	movlw	low _seg_enable_5
  5850   0025D6  0100               	movlb	0	; () banked
  5851   0025D8  6FD0               	movwf	gpio_pin_initialize@config& (0+255),b
  5852   0025DA  ECD9  F014         	call	_gpio_pin_initialize	;wreg free
  5853   0025DE  0E50               	movlw	low _seg_enable_6
  5854   0025E0  0100               	movlb	0	; () banked
  5855   0025E2  6FD0               	movwf	gpio_pin_initialize@config& (0+255),b
  5856   0025E4  ECD9  F014         	call	_gpio_pin_initialize	;wreg free
  5857   0025E8  0E4F               	movlw	low _stopwatch_led
  5858   0025EA  0100               	movlb	0	; () banked
  5859   0025EC  6FD3               	movwf	led_initialize@led& (0+255),b
  5860   0025EE  EC0E  F013         	call	_led_initialize	;wreg free
  5861   0025F2  0E4E               	movlw	low _timer_led
  5862   0025F4  0100               	movlb	0	; () banked
  5863   0025F6  6FD3               	movwf	led_initialize@led& (0+255),b
  5864   0025F8  EC0E  F013         	call	_led_initialize	;wreg free
  5865   0025FC  0E4D               	movlw	low _clock_led
  5866   0025FE  0100               	movlb	0	; () banked
  5867   002600  6FD3               	movwf	led_initialize@led& (0+255),b
  5868   002602  EC0E  F013         	call	_led_initialize	;wreg free
  5869   002606  0E4C               	movlw	low _buzzer_led
  5870   002608  0100               	movlb	0	; () banked
  5871   00260A  6FD3               	movwf	led_initialize@led& (0+255),b
  5872   00260C  EC0E  F013         	call	_led_initialize	;wreg free
  5873   002610  0E9E               	movlw	low _keypad
  5874   002612  0100               	movlb	0	; () banked
  5875   002614  6FD3               	movwf	keypad_initialize@pad& (0+255),b
  5876   002616  EC35  F014         	call	_keypad_initialize	;wreg free
  5877   00261A  0012               	return		;funcret
  5878   00261C                     __end_of_ecu_layer_initialize:
  5879                           	callstack 0
  5880                           
  5881 ;; *************** function _seven_segment_initialize *****************
  5882 ;; Defined at:
  5883 ;;		line 18 in file "ECU_Layer/7_Segment/ecu_seven_seg.c"
  5884 ;; Parameters:    Size  Location     Type
  5885 ;;  segment         1    8[BANK0 ] PTR const struct .
  5886 ;;		 -> seven_segment(5), 
  5887 ;; Auto vars:     Size  Location     Type
  5888 ;;  retVal          1    9[BANK0 ] unsigned char 
  5889 ;; Return value:  Size  Location     Type
  5890 ;;                  1    wreg      unsigned char 
  5891 ;; Registers used:
  5892 ;;		wreg, fsr2l, fsr2h, status,2, status,0, prodl, prodh, cstack
  5893 ;; Tracked objects:
  5894 ;;		On entry : 0/0
  5895 ;;		On exit  : 0/0
  5896 ;;		Unchanged: 0/0
  5897 ;; Data sizes:     COMRAM   BANK0   BANK1   BANK2   BANK3   BANK4   BANK5   BANK6   BANK7   BANK8   BANK9  BANK10  BANK1
      +1  BANK12  BANK13  BANK14  BANK15
  5898 ;;      Params:         0       1       0       0       0       0       0       0       0       0       0       0       
      +0       0       0       0       0
  5899 ;;      Locals:         0       1       0       0       0       0       0       0       0       0       0       0       
      +0       0       0       0       0
  5900 ;;      Temps:          0       0       0       0       0       0       0       0       0       0       0       0       
      +0       0       0       0       0
  5901 ;;      Totals:         0       2       0       0       0       0       0       0       0       0       0       0       
      +0       0       0       0       0
  5902 ;;Total ram usage:        2 bytes
  5903 ;; Hardware stack levels used: 1
  5904 ;; Hardware stack levels required when called: 7
  5905 ;; This function calls:
  5906 ;;		_gpio_pin_initialize
  5907 ;; This function is called by:
  5908 ;;		_ecu_layer_initialize
  5909 ;; This function uses a non-reentrant model
  5910 ;;
  5911                           
  5912                           	psect	text44
  5913   002BF0                     __ptext44:
  5914                           	callstack 0
  5915   002BF0                     _seven_segment_initialize:
  5916                           	callstack 21
  5917   002BF0                     
  5918                           ;ECU_Layer/7_Segment/ecu_seven_seg.c: 20:     if(((void*)0) == segment){
  5919   002BF0  0100               	movlb	0	; () banked
  5920   002BF2  51D3               	movf	seven_segment_initialize@segment& (0+255),w,b
  5921   002BF4  A4D8               	btfss	status,2,c
  5922   002BF6  EFFF  F015         	goto	u4821
  5923   002BFA  EF01  F016         	goto	u4820
  5924   002BFE                     u4821:
  5925   002BFE  EF05  F016         	goto	l5338
  5926   002C02                     u4820:
  5927   002C02                     
  5928                           ; BSR set to: 0
  5929                           ;ECU_Layer/7_Segment/ecu_seven_seg.c: 21:         retVal = (Std_ReturnType)0x00;
  5930   002C02  0E00               	movlw	0
  5931   002C04  6FD4               	movwf	seven_segment_initialize@retVal& (0+255),b
  5932                           
  5933                           ;ECU_Layer/7_Segment/ecu_seven_seg.c: 22:     }
  5934   002C06  EF21  F016         	goto	l5342
  5935   002C0A                     l5338:
  5936                           
  5937                           ; BSR set to: 0
  5938                           ;ECU_Layer/7_Segment/ecu_seven_seg.c: 24:         retVal = gpio_pin_initialize(&(segment
      +                          ->segment_pin[0]));
  5939   002C0A  C0D3  F0D0         	movff	seven_segment_initialize@segment,gpio_pin_initialize@config
  5940   002C0E  ECD9  F014         	call	_gpio_pin_initialize	;wreg free
  5941   002C12  0100               	movlb	0	; () banked
  5942   002C14  6FD4               	movwf	seven_segment_initialize@retVal& (0+255),b
  5943                           
  5944                           ;ECU_Layer/7_Segment/ecu_seven_seg.c: 25:         retVal = gpio_pin_initialize(&(segment
      +                          ->segment_pin[1]));
  5945   002C16  29D3               	incf	seven_segment_initialize@segment& (0+255),w,b
  5946   002C18  6FD0               	movwf	gpio_pin_initialize@config& (0+255),b
  5947   002C1A  ECD9  F014         	call	_gpio_pin_initialize	;wreg free
  5948   002C1E  0100               	movlb	0	; () banked
  5949   002C20  6FD4               	movwf	seven_segment_initialize@retVal& (0+255),b
  5950                           
  5951                           ;ECU_Layer/7_Segment/ecu_seven_seg.c: 26:         retVal = gpio_pin_initialize(&(segment
      +                          ->segment_pin[2]));
  5952   002C22  51D3               	movf	seven_segment_initialize@segment& (0+255),w,b
  5953   002C24  0F02               	addlw	2
  5954   002C26  6FD0               	movwf	gpio_pin_initialize@config& (0+255),b
  5955   002C28  ECD9  F014         	call	_gpio_pin_initialize	;wreg free
  5956   002C2C  0100               	movlb	0	; () banked
  5957   002C2E  6FD4               	movwf	seven_segment_initialize@retVal& (0+255),b
  5958                           
  5959                           ;ECU_Layer/7_Segment/ecu_seven_seg.c: 27:         retVal = gpio_pin_initialize(&(segment
      +                          ->segment_pin[3]));
  5960   002C30  51D3               	movf	seven_segment_initialize@segment& (0+255),w,b
  5961   002C32  0F03               	addlw	3
  5962   002C34  6FD0               	movwf	gpio_pin_initialize@config& (0+255),b
  5963   002C36  ECD9  F014         	call	_gpio_pin_initialize	;wreg free
  5964   002C3A  0100               	movlb	0	; () banked
  5965   002C3C  6FD4               	movwf	seven_segment_initialize@retVal& (0+255),b
  5966   002C3E                     
  5967                           ; BSR set to: 0
  5968                           ;ECU_Layer/7_Segment/ecu_seven_seg.c: 28:         retVal = (Std_ReturnType)0x01;
  5969   002C3E  0E01               	movlw	1
  5970   002C40  6FD4               	movwf	seven_segment_initialize@retVal& (0+255),b
  5971   002C42                     l5342:
  5972                           
  5973                           ; BSR set to: 0
  5974                           ;ECU_Layer/7_Segment/ecu_seven_seg.c: 30:     return retVal;
  5975   002C42  51D4               	movf	seven_segment_initialize@retVal& (0+255),w,b
  5976   002C44                     
  5977                           ; BSR set to: 0
  5978   002C44  0012               	return		;funcret
  5979   002C46                     __end_of_seven_segment_initialize:
  5980                           	callstack 0
  5981                           
  5982 ;; *************** function _led_initialize *****************
  5983 ;; Defined at:
  5984 ;;		line 17 in file "ECU_Layer/LED/ecu_led.c"
  5985 ;; Parameters:    Size  Location     Type
  5986 ;;  led             1    8[BANK0 ] PTR const struct .
  5987 ;;		 -> buzzer_led(1), clock_led(1), timer_led(1), stopwatch_led(1), 
  5988 ;; Auto vars:     Size  Location     Type
  5989 ;;  pin_obj         1   11[BANK0 ] struct .
  5990 ;;  retVal          1   10[BANK0 ] unsigned char 
  5991 ;; Return value:  Size  Location     Type
  5992 ;;                  1    wreg      unsigned char 
  5993 ;; Registers used:
  5994 ;;		wreg, fsr2l, fsr2h, status,2, status,0, prodl, prodh, cstack
  5995 ;; Tracked objects:
  5996 ;;		On entry : 0/0
  5997 ;;		On exit  : 0/0
  5998 ;;		Unchanged: 0/0
  5999 ;; Data sizes:     COMRAM   BANK0   BANK1   BANK2   BANK3   BANK4   BANK5   BANK6   BANK7   BANK8   BANK9  BANK10  BANK1
      +1  BANK12  BANK13  BANK14  BANK15
  6000 ;;      Params:         0       1       0       0       0       0       0       0       0       0       0       0       
      +0       0       0       0       0
  6001 ;;      Locals:         0       2       0       0       0       0       0       0       0       0       0       0       
      +0       0       0       0       0
  6002 ;;      Temps:          0       1       0       0       0       0       0       0       0       0       0       0       
      +0       0       0       0       0
  6003 ;;      Totals:         0       4       0       0       0       0       0       0       0       0       0       0       
      +0       0       0       0       0
  6004 ;;Total ram usage:        4 bytes
  6005 ;; Hardware stack levels used: 1
  6006 ;; Hardware stack levels required when called: 7
  6007 ;; This function calls:
  6008 ;;		_gpio_pin_initialize
  6009 ;; This function is called by:
  6010 ;;		_ecu_layer_initialize
  6011 ;; This function uses a non-reentrant model
  6012 ;;
  6013                           
  6014                           	psect	text45
  6015   00261C                     __ptext45:
  6016                           	callstack 0
  6017   00261C                     _led_initialize:
  6018                           	callstack 21
  6019   00261C                     
  6020                           ;ECU_Layer/LED/ecu_led.c: 19:     if(((void*)0) == led){
  6021   00261C  0100               	movlb	0	; () banked
  6022   00261E  51D3               	movf	led_initialize@led& (0+255),w,b
  6023   002620  A4D8               	btfss	status,2,c
  6024   002622  EF15  F013         	goto	u4921
  6025   002626  EF17  F013         	goto	u4920
  6026   00262A                     u4921:
  6027   00262A  EF1B  F013         	goto	l84
  6028   00262E                     u4920:
  6029   00262E                     
  6030                           ; BSR set to: 0
  6031                           ;ECU_Layer/LED/ecu_led.c: 20:         retVal = (Std_ReturnType)0x00;
  6032   00262E  0E00               	movlw	0
  6033   002630  6FD5               	movwf	led_initialize@retVal& (0+255),b
  6034                           
  6035                           ;ECU_Layer/LED/ecu_led.c: 21:     }else{
  6036   002632  EF49  F013         	goto	l5422
  6037   002636                     l84:
  6038                           
  6039                           ; BSR set to: 0
  6040                           ;ECU_Layer/LED/ecu_led.c: 22:         pin_config_t pin_obj = {.port = led->port,
  6041   002636  C030  F0D6         	movff	led_initialize@F3067,led_initialize@pin_obj
  6042   00263A                     
  6043                           ; BSR set to: 0
  6044   00263A  51D3               	movf	led_initialize@led& (0+255),w,b
  6045   00263C  6ED9               	movwf	fsr2l,c
  6046   00263E  6ADA               	clrf	fsr2h,c
  6047   002640  50DF               	movf	223,w,c
  6048   002642  0B07               	andlw	7
  6049   002644  6FD4               	movwf	??_led_initialize& (0+255),b
  6050   002646  51D6               	movf	led_initialize@pin_obj& (0+255),w,b
  6051   002648  19D4               	xorwf	??_led_initialize& (0+255),w,b
  6052   00264A  0BF8               	andlw	-8
  6053   00264C  19D4               	xorwf	??_led_initialize& (0+255),w,b
  6054   00264E  6FD6               	movwf	led_initialize@pin_obj& (0+255),b
  6055   002650  51D3               	movf	led_initialize@led& (0+255),w,b
  6056   002652  6ED9               	movwf	fsr2l,c
  6057   002654  6ADA               	clrf	fsr2h,c
  6058   002656  30DF               	rrcf	223,w,c
  6059   002658  32E8               	rrcf	wreg,f,c
  6060   00265A  32E8               	rrcf	wreg,f,c
  6061   00265C  0B07               	andlw	7
  6062   00265E  6FD4               	movwf	??_led_initialize& (0+255),b
  6063   002660  47D4               	rlncf	??_led_initialize& (0+255),f,b
  6064   002662  47D4               	rlncf	??_led_initialize& (0+255),f,b
  6065   002664  47D4               	rlncf	??_led_initialize& (0+255),f,b
  6066   002666  51D6               	movf	led_initialize@pin_obj& (0+255),w,b
  6067   002668  19D4               	xorwf	??_led_initialize& (0+255),w,b
  6068   00266A  0BC7               	andlw	-57
  6069   00266C  19D4               	xorwf	??_led_initialize& (0+255),w,b
  6070   00266E  6FD6               	movwf	led_initialize@pin_obj& (0+255),b
  6071   002670                     
  6072                           ; BSR set to: 0
  6073   002670  51D3               	movf	led_initialize@led& (0+255),w,b
  6074   002672  6ED9               	movwf	fsr2l,c
  6075   002674  6ADA               	clrf	fsr2h,c
  6076   002676  ACDF               	btfss	indf2,6,c
  6077   002678  D002               	bra	u4935
  6078   00267A  8DD6               	bsf	led_initialize@pin_obj& (0+255),6,b
  6079   00267C  D002               	bra	u4937
  6080   00267E                     u4935:
  6081   00267E  0100               	movlb	0	; () banked
  6082   002680  9DD6               	bcf	led_initialize@pin_obj& (0+255),6,b
  6083   002682                     u4937:
  6084   002682                     
  6085                           ; BSR set to: 0
  6086   002682  9FD6               	bcf	led_initialize@pin_obj& (0+255),7,b
  6087   002684                     
  6088                           ; BSR set to: 0
  6089                           ;ECU_Layer/LED/ecu_led.c: 27:         gpio_pin_initialize(&pin_obj);
  6090   002684  0ED6               	movlw	low led_initialize@pin_obj
  6091   002686  6FD0               	movwf	gpio_pin_initialize@config& (0+255),b
  6092   002688  ECD9  F014         	call	_gpio_pin_initialize	;wreg free
  6093   00268C                     
  6094                           ;ECU_Layer/LED/ecu_led.c: 28:         retVal = (Std_ReturnType)0x01;
  6095   00268C  0E01               	movlw	1
  6096   00268E  0100               	movlb	0	; () banked
  6097   002690  6FD5               	movwf	led_initialize@retVal& (0+255),b
  6098   002692                     l5422:
  6099                           
  6100                           ; BSR set to: 0
  6101                           ;ECU_Layer/LED/ecu_led.c: 30:     return retVal;
  6102   002692  51D5               	movf	led_initialize@retVal& (0+255),w,b
  6103   002694                     
  6104                           ; BSR set to: 0
  6105   002694  0012               	return		;funcret
  6106   002696                     __end_of_led_initialize:
  6107                           	callstack 0
  6108                           
  6109 ;; *************** function _keypad_initialize *****************
  6110 ;; Defined at:
  6111 ;;		line 24 in file "ECU_Layer/KeyPad/ecu_keypad.c"
  6112 ;; Parameters:    Size  Location     Type
  6113 ;;  pad             1    8[BANK0 ] PTR const struct .
  6114 ;;		 -> keypad(8), 
  6115 ;; Auto vars:     Size  Location     Type
  6116 ;;  columns_coun    1   11[BANK0 ] unsigned char 
  6117 ;;  rows_counter    1   10[BANK0 ] unsigned char 
  6118 ;;  retVal          1    9[BANK0 ] unsigned char 
  6119 ;; Return value:  Size  Location     Type
  6120 ;;                  1    wreg      unsigned char 
  6121 ;; Registers used:
  6122 ;;		wreg, fsr2l, fsr2h, status,2, status,0, prodl, prodh, cstack
  6123 ;; Tracked objects:
  6124 ;;		On entry : 0/0
  6125 ;;		On exit  : 0/0
  6126 ;;		Unchanged: 0/0
  6127 ;; Data sizes:     COMRAM   BANK0   BANK1   BANK2   BANK3   BANK4   BANK5   BANK6   BANK7   BANK8   BANK9  BANK10  BANK1
      +1  BANK12  BANK13  BANK14  BANK15
  6128 ;;      Params:         0       1       0       0       0       0       0       0       0       0       0       0       
      +0       0       0       0       0
  6129 ;;      Locals:         0       3       0       0       0       0       0       0       0       0       0       0       
      +0       0       0       0       0
  6130 ;;      Temps:          0       0       0       0       0       0       0       0       0       0       0       0       
      +0       0       0       0       0
  6131 ;;      Totals:         0       4       0       0       0       0       0       0       0       0       0       0       
      +0       0       0       0       0
  6132 ;;Total ram usage:        4 bytes
  6133 ;; Hardware stack levels used: 1
  6134 ;; Hardware stack levels required when called: 7
  6135 ;; This function calls:
  6136 ;;		_gpio_pin_direction_initialize
  6137 ;;		_gpio_pin_initialize
  6138 ;; This function is called by:
  6139 ;;		_ecu_layer_initialize
  6140 ;; This function uses a non-reentrant model
  6141 ;;
  6142                           
  6143                           	psect	text46
  6144   00286A                     __ptext46:
  6145                           	callstack 0
  6146   00286A                     _keypad_initialize:
  6147                           	callstack 21
  6148   00286A                     
  6149                           ;ECU_Layer/KeyPad/ecu_keypad.c: 26:     uint8 rows_counter=0 , columns_counter=0;
  6150   00286A  0E00               	movlw	0
  6151   00286C  0100               	movlb	0	; () banked
  6152   00286E  6FD5               	movwf	keypad_initialize@rows_counter& (0+255),b
  6153   002870  0E00               	movlw	0
  6154   002872  6FD6               	movwf	keypad_initialize@columns_counter& (0+255),b
  6155                           
  6156                           ;ECU_Layer/KeyPad/ecu_keypad.c: 27:     if(((void*)0) == pad){
  6157   002874  51D3               	movf	keypad_initialize@pad& (0+255),w,b
  6158   002876  A4D8               	btfss	status,2,c
  6159   002878  EF40  F014         	goto	u4891
  6160   00287C  EF42  F014         	goto	u4890
  6161   002880                     u4891:
  6162   002880  EF46  F014         	goto	l5380
  6163   002884                     u4890:
  6164   002884                     
  6165                           ; BSR set to: 0
  6166                           ;ECU_Layer/KeyPad/ecu_keypad.c: 28:         retVal = (Std_ReturnType)0x00;
  6167   002884  0E00               	movlw	0
  6168   002886  6FD4               	movwf	keypad_initialize@retVal& (0+255),b
  6169                           
  6170                           ;ECU_Layer/KeyPad/ecu_keypad.c: 29:     }
  6171   002888  EF6B  F014         	goto	l56
  6172   00288C                     l5380:
  6173                           
  6174                           ; BSR set to: 0
  6175                           ;ECU_Layer/KeyPad/ecu_keypad.c: 31:         for(rows_counter=0 ; rows_counter<4 ; rows_c
      +                          ounter++){
  6176   00288C  0E00               	movlw	0
  6177   00288E  6FD5               	movwf	keypad_initialize@rows_counter& (0+255),b
  6178   002890                     l5386:
  6179                           
  6180                           ; BSR set to: 0
  6181   002890  51D3               	movf	keypad_initialize@pad& (0+255),w,b
  6182   002892  25D5               	addwf	keypad_initialize@rows_counter& (0+255),w,b
  6183   002894  6FD0               	movwf	gpio_pin_initialize@config& (0+255),b
  6184   002896  ECD9  F014         	call	_gpio_pin_initialize	;wreg free
  6185   00289A                     
  6186                           ;ECU_Layer/KeyPad/ecu_keypad.c: 33:         }
  6187   00289A  0100               	movlb	0	; () banked
  6188   00289C  2BD5               	incf	keypad_initialize@rows_counter& (0+255),f,b
  6189   00289E                     
  6190                           ; BSR set to: 0
  6191   00289E  0E03               	movlw	3
  6192   0028A0  65D5               	cpfsgt	keypad_initialize@rows_counter& (0+255),b
  6193   0028A2  EF55  F014         	goto	u4901
  6194   0028A6  EF57  F014         	goto	u4900
  6195   0028AA                     u4901:
  6196   0028AA  EF48  F014         	goto	l5386
  6197   0028AE                     u4900:
  6198   0028AE                     
  6199                           ; BSR set to: 0
  6200                           ;ECU_Layer/KeyPad/ecu_keypad.c: 34:         for(columns_counter=0 ; columns_counter<4 ; 
      +                          columns_counter++){
  6201   0028AE  0E00               	movlw	0
  6202   0028B0  6FD6               	movwf	keypad_initialize@columns_counter& (0+255),b
  6203   0028B2                     l5398:
  6204                           
  6205                           ; BSR set to: 0
  6206   0028B2  51D3               	movf	keypad_initialize@pad& (0+255),w,b
  6207   0028B4  25D6               	addwf	keypad_initialize@columns_counter& (0+255),w,b
  6208   0028B6  0F04               	addlw	4
  6209   0028B8  6E68               	movwf	gpio_pin_direction_initialize@config^0,c
  6210   0028BA  EC17  F00C         	call	_gpio_pin_direction_initialize	;wreg free
  6211   0028BE                     
  6212                           ;ECU_Layer/KeyPad/ecu_keypad.c: 36:         }
  6213   0028BE  0100               	movlb	0	; () banked
  6214   0028C0  2BD6               	incf	keypad_initialize@columns_counter& (0+255),f,b
  6215   0028C2                     
  6216                           ; BSR set to: 0
  6217   0028C2  0E03               	movlw	3
  6218   0028C4  65D6               	cpfsgt	keypad_initialize@columns_counter& (0+255),b
  6219   0028C6  EF67  F014         	goto	u4911
  6220   0028CA  EF69  F014         	goto	u4910
  6221   0028CE                     u4911:
  6222   0028CE  EF59  F014         	goto	l5398
  6223   0028D2                     u4910:
  6224   0028D2                     
  6225                           ; BSR set to: 0
  6226                           ;ECU_Layer/KeyPad/ecu_keypad.c: 37:         retVal = (Std_ReturnType)0x01;
  6227   0028D2  0E01               	movlw	1
  6228   0028D4  6FD4               	movwf	keypad_initialize@retVal& (0+255),b
  6229   0028D6                     l56:
  6230                           
  6231                           ; BSR set to: 0
  6232                           ;ECU_Layer/KeyPad/ecu_keypad.c: 39:     return retVal;
  6233   0028D6  51D4               	movf	keypad_initialize@retVal& (0+255),w,b
  6234   0028D8                     
  6235                           ; BSR set to: 0
  6236   0028D8  0012               	return		;funcret
  6237   0028DA                     __end_of_keypad_initialize:
  6238                           	callstack 0
  6239                           
  6240 ;; *************** function _gpio_pin_initialize *****************
  6241 ;; Defined at:
  6242 ;;		line 145 in file "MCAL_Layer/GPIO/hal_gpio.c"
  6243 ;; Parameters:    Size  Location     Type
  6244 ;;  config          1    5[BANK0 ] PTR const struct .
  6245 ;;		 -> buzzer(1), clock_mode_int(6), pause_resume_int(6), count_down_int(6), 
  6246 ;;		 -> count_up_int(6), reset_int(6), seg_enable_6(1), seg_enable_5(1), 
  6247 ;;		 -> seg_enable_4(1), seg_enable_3(1), seg_enable_2(1), seg_enable_1(1), 
  6248 ;;		 -> keypad$keypad_rows_pins(4), keypad(8), seven_segment$segment_pin(4), seven_segment(5), 
  6249 ;;		 -> led_initialize@pin_obj(1), 
  6250 ;; Auto vars:     Size  Location     Type
  6251 ;;  retVal          1    7[BANK0 ] unsigned char 
  6252 ;; Return value:  Size  Location     Type
  6253 ;;                  1    wreg      unsigned char 
  6254 ;; Registers used:
  6255 ;;		wreg, fsr2l, fsr2h, status,2, status,0, prodl, prodh, cstack
  6256 ;; Tracked objects:
  6257 ;;		On entry : 0/0
  6258 ;;		On exit  : 0/0
  6259 ;;		Unchanged: 0/0
  6260 ;; Data sizes:     COMRAM   BANK0   BANK1   BANK2   BANK3   BANK4   BANK5   BANK6   BANK7   BANK8   BANK9  BANK10  BANK1
      +1  BANK12  BANK13  BANK14  BANK15
  6261 ;;      Params:         0       1       0       0       0       0       0       0       0       0       0       0       
      +0       0       0       0       0
  6262 ;;      Locals:         0       1       0       0       0       0       0       0       0       0       0       0       
      +0       0       0       0       0
  6263 ;;      Temps:          0       1       0       0       0       0       0       0       0       0       0       0       
      +0       0       0       0       0
  6264 ;;      Totals:         0       3       0       0       0       0       0       0       0       0       0       0       
      +0       0       0       0       0
  6265 ;;Total ram usage:        3 bytes
  6266 ;; Hardware stack levels used: 1
  6267 ;; Hardware stack levels required when called: 6
  6268 ;; This function calls:
  6269 ;;		_gpio_pin_direction_initialize
  6270 ;;		_gpio_pin_write_logic
  6271 ;; This function is called by:
  6272 ;;		_seven_segment_initialize
  6273 ;;		_keypad_initialize
  6274 ;;		_led_initialize
  6275 ;;		_ecu_layer_initialize
  6276 ;;		_Interrupt_INTx_Pin_Init
  6277 ;;		_Interrupt_RBx_Pin_Init
  6278 ;;		_mcal_layer_initialize
  6279 ;; This function uses a non-reentrant model
  6280 ;;
  6281                           
  6282                           	psect	text47
  6283   0029B2                     __ptext47:
  6284                           	callstack 0
  6285   0029B2                     _gpio_pin_initialize:
  6286                           	callstack 22
  6287   0029B2                     
  6288                           ;MCAL_Layer/GPIO/hal_gpio.c: 147:     if((((void*)0) == config) || (config->pin > 8 -1))
  6289   0029B2  0100               	movlb	0	; () banked
  6290   0029B4  51D0               	movf	gpio_pin_initialize@config& (0+255),w,b
  6291   0029B6  B4D8               	btfsc	status,2,c
  6292   0029B8  EFE0  F014         	goto	u4391
  6293   0029BC  EFE2  F014         	goto	u4390
  6294   0029C0                     u4391:
  6295   0029C0  EFF2  F014         	goto	l5022
  6296   0029C4                     u4390:
  6297   0029C4                     
  6298                           ; BSR set to: 0
  6299   0029C4  51D0               	movf	gpio_pin_initialize@config& (0+255),w,b
  6300   0029C6  6ED9               	movwf	fsr2l,c
  6301   0029C8  6ADA               	clrf	fsr2h,c
  6302   0029CA  30DF               	rrcf	223,w,c
  6303   0029CC  32E8               	rrcf	wreg,f,c
  6304   0029CE  32E8               	rrcf	wreg,f,c
  6305   0029D0  0B07               	andlw	7
  6306   0029D2  6FD1               	movwf	??_gpio_pin_initialize& (0+255),b
  6307   0029D4  0E07               	movlw	7
  6308   0029D6  65D1               	cpfsgt	??_gpio_pin_initialize& (0+255),b
  6309   0029D8  EFF0  F014         	goto	u4401
  6310   0029DC  EFF2  F014         	goto	u4400
  6311   0029E0                     u4401:
  6312   0029E0  EFF6  F014         	goto	l5024
  6313   0029E4                     u4400:
  6314   0029E4                     l5022:
  6315                           
  6316                           ; BSR set to: 0
  6317                           ;MCAL_Layer/GPIO/hal_gpio.c: 148:     {;MCAL_Layer/GPIO/hal_gpio.c: 149:         retVal 
      +                          = (Std_ReturnType)0x00;
  6318   0029E4  0E00               	movlw	0
  6319   0029E6  6FD2               	movwf	gpio_pin_initialize@retVal& (0+255),b
  6320                           
  6321                           ;MCAL_Layer/GPIO/hal_gpio.c: 150:     }else{
  6322   0029E8  EF0B  F015         	goto	l5028
  6323   0029EC                     l5024:
  6324                           
  6325                           ; BSR set to: 0
  6326                           ;MCAL_Layer/GPIO/hal_gpio.c: 151:         retVal = gpio_pin_direction_initialize(config)
      +                          ;
  6327   0029EC  C0D0  F068         	movff	gpio_pin_initialize@config,gpio_pin_direction_initialize@config
  6328   0029F0  EC17  F00C         	call	_gpio_pin_direction_initialize	;wreg free
  6329   0029F4  0100               	movlb	0	; () banked
  6330   0029F6  6FD2               	movwf	gpio_pin_initialize@retVal& (0+255),b
  6331                           
  6332                           ;MCAL_Layer/GPIO/hal_gpio.c: 152:         retVal = gpio_pin_write_logic(config , config-
      +                          >logic);
  6333   0029F8  C0D0  F068         	movff	gpio_pin_initialize@config,gpio_pin_write_logic@config
  6334   0029FC  51D0               	movf	gpio_pin_initialize@config& (0+255),w,b
  6335   0029FE  6ED9               	movwf	fsr2l,c
  6336   002A00  6ADA               	clrf	fsr2h,c
  6337   002A02  0E00               	movlw	0
  6338   002A04  BCDF               	btfsc	indf2,6,c
  6339   002A06  0E01               	movlw	1
  6340   002A08  6E69               	movwf	gpio_pin_write_logic@logic_status^0,c
  6341   002A0A  ECA5  F00C         	call	_gpio_pin_write_logic	;wreg free
  6342   002A0E  0100               	movlb	0	; () banked
  6343   002A10  6FD2               	movwf	gpio_pin_initialize@retVal& (0+255),b
  6344   002A12                     
  6345                           ; BSR set to: 0
  6346                           ;MCAL_Layer/GPIO/hal_gpio.c: 153:         retVal = (Std_ReturnType)0x01;
  6347   002A12  0E01               	movlw	1
  6348   002A14  6FD2               	movwf	gpio_pin_initialize@retVal& (0+255),b
  6349   002A16                     l5028:
  6350                           
  6351                           ; BSR set to: 0
  6352                           ;MCAL_Layer/GPIO/hal_gpio.c: 155:     return retVal;
  6353   002A16  51D2               	movf	gpio_pin_initialize@retVal& (0+255),w,b
  6354   002A18                     
  6355                           ; BSR set to: 0
  6356   002A18  0012               	return		;funcret
  6357   002A1A                     __end_of_gpio_pin_initialize:
  6358                           	callstack 0
  6359                           
  6360 ;; *************** function _gpio_pin_write_logic *****************
  6361 ;; Defined at:
  6362 ;;		line 76 in file "MCAL_Layer/GPIO/hal_gpio.c"
  6363 ;; Parameters:    Size  Location     Type
  6364 ;;  config          1   18[COMRAM] PTR const struct .
  6365 ;;		 -> buzzer(1), clock_mode_int(6), pause_resume_int(6), count_down_int(6), 
  6366 ;;		 -> count_up_int(6), reset_int(6), seg_enable_6(1), seg_enable_5(1), 
  6367 ;;		 -> seg_enable_4(1), seg_enable_3(1), seg_enable_2(1), seg_enable_1(1), 
  6368 ;;		 -> keypad$keypad_rows_pins(4), keypad(8), seven_segment$segment_pin(4), seven_segment(5), 
  6369 ;;		 -> led_turn_off@pin_obj(1), led_turn_on@pin_obj(1), led_initialize@pin_obj(1), 
  6370 ;;  logic_status    1   19[COMRAM] enum E2986
  6371 ;; Auto vars:     Size  Location     Type
  6372 ;;  retVal          1   20[COMRAM] unsigned char 
  6373 ;; Return value:  Size  Location     Type
  6374 ;;                  1    wreg      unsigned char 
  6375 ;; Registers used:
  6376 ;;		wreg, fsr2l, fsr2h, status,2, status,0, prodl, prodh
  6377 ;; Tracked objects:
  6378 ;;		On entry : 0/0
  6379 ;;		On exit  : 0/0
  6380 ;;		Unchanged: 0/0
  6381 ;; Data sizes:     COMRAM   BANK0   BANK1   BANK2   BANK3   BANK4   BANK5   BANK6   BANK7   BANK8   BANK9  BANK10  BANK1
      +1  BANK12  BANK13  BANK14  BANK15
  6382 ;;      Params:         2       0       0       0       0       0       0       0       0       0       0       0       
      +0       0       0       0       0
  6383 ;;      Locals:         1       0       0       0       0       0       0       0       0       0       0       0       
      +0       0       0       0       0
  6384 ;;      Temps:          0       5       0       0       0       0       0       0       0       0       0       0       
      +0       0       0       0       0
  6385 ;;      Totals:         3       5       0       0       0       0       0       0       0       0       0       0       
      +0       0       0       0       0
  6386 ;;Total ram usage:        8 bytes
  6387 ;; Hardware stack levels used: 1
  6388 ;; Hardware stack levels required when called: 5
  6389 ;; This function calls:
  6390 ;;		Nothing
  6391 ;; This function is called by:
  6392 ;;		_seven_segment_write_number
  6393 ;;		_keypad_get_value
  6394 ;;		_gpio_pin_initialize
  6395 ;;		_seven_seg_display
  6396 ;;		_hours_display
  6397 ;;		_minutes_display
  6398 ;;		_seconds_display
  6399 ;; This function uses a non-reentrant model
  6400 ;;
  6401                           
  6402                           	psect	text48
  6403   00194A                     __ptext48:
  6404                           	callstack 0
  6405   00194A                     _gpio_pin_write_logic:
  6406                           	callstack 23
  6407   00194A                     
  6408                           ;MCAL_Layer/GPIO/hal_gpio.c: 78:     if((((void*)0) == config) || (config->pin > 8 -1))
  6409   00194A  5068               	movf	gpio_pin_write_logic@config^0,w,c
  6410   00194C  B4D8               	btfsc	status,2,c
  6411   00194E  EFAB  F00C         	goto	u4301
  6412   001952  EFAD  F00C         	goto	u4300
  6413   001956                     u4301:
  6414   001956  EFBE  F00C         	goto	l4980
  6415   00195A                     u4300:
  6416   00195A  5068               	movf	gpio_pin_write_logic@config^0,w,c
  6417   00195C  6ED9               	movwf	fsr2l,c
  6418   00195E  6ADA               	clrf	fsr2h,c
  6419   001960  30DF               	rrcf	223,w,c
  6420   001962  32E8               	rrcf	wreg,f,c
  6421   001964  32E8               	rrcf	wreg,f,c
  6422   001966  0B07               	andlw	7
  6423   001968  0100               	movlb	0	; () banked
  6424   00196A  6FCB               	movwf	??_gpio_pin_write_logic& (0+255),b
  6425   00196C  0E07               	movlw	7
  6426   00196E  65CB               	cpfsgt	??_gpio_pin_write_logic& (0+255),b
  6427   001970  EFBC  F00C         	goto	u4311
  6428   001974  EFBE  F00C         	goto	u4310
  6429   001978                     u4311:
  6430   001978  EF19  F00D         	goto	l4988
  6431   00197C                     u4310:
  6432   00197C                     l4980:
  6433                           
  6434                           ;MCAL_Layer/GPIO/hal_gpio.c: 79:     {;MCAL_Layer/GPIO/hal_gpio.c: 80:         retVal = 
      +                          (Std_ReturnType)0x00;
  6435   00197C  0E00               	movlw	0
  6436   00197E  6E6A               	movwf	gpio_pin_write_logic@retVal^0,c
  6437                           
  6438                           ;MCAL_Layer/GPIO/hal_gpio.c: 81:     }else{
  6439   001980  EF30  F00D         	goto	l230
  6440   001984                     l4982:
  6441                           
  6442                           ; BSR set to: 0
  6443                           ;MCAL_Layer/GPIO/hal_gpio.c: 84:                 (*lat_registers[config->port] &=~(((uin
      +                          t8)1<<config->pin)));
  6444   001984  5068               	movf	gpio_pin_write_logic@config^0,w,c
  6445   001986  6ED9               	movwf	fsr2l,c
  6446   001988  6ADA               	clrf	fsr2h,c
  6447   00198A  30DF               	rrcf	223,w,c
  6448   00198C  32E8               	rrcf	wreg,f,c
  6449   00198E  32E8               	rrcf	wreg,f,c
  6450   001990  0B07               	andlw	7
  6451   001992  6FCB               	movwf	??_gpio_pin_write_logic& (0+255),b
  6452   001994  0E01               	movlw	1
  6453   001996  6FCC               	movwf	(??_gpio_pin_write_logic+1)& (0+255),b
  6454   001998  2BCB               	incf	??_gpio_pin_write_logic& (0+255),f,b
  6455   00199A  EFD1  F00C         	goto	u4324
  6456   00199E                     u4325:
  6457   00199E  90D8               	bcf	status,0,c
  6458   0019A0  37CC               	rlcf	(??_gpio_pin_write_logic+1)& (0+255),f,b
  6459   0019A2                     u4324:
  6460   0019A2  2FCB               	decfsz	??_gpio_pin_write_logic& (0+255),f,b
  6461   0019A4  EFCF  F00C         	goto	u4325
  6462   0019A8  0100               	movlb	0	; () banked
  6463   0019AA  51CC               	movf	(??_gpio_pin_write_logic+1)& (0+255),w,b
  6464   0019AC  0AFF               	xorlw	255
  6465   0019AE  6FCD               	movwf	(??_gpio_pin_write_logic+2)& (0+255),b
  6466   0019B0  5068               	movf	gpio_pin_write_logic@config^0,w,c
  6467   0019B2  6ED9               	movwf	fsr2l,c
  6468   0019B4  6ADA               	clrf	fsr2h,c
  6469   0019B6  50DF               	movf	223,w,c
  6470   0019B8  0B07               	andlw	7
  6471   0019BA  0D02               	mullw	2
  6472   0019BC  50F3               	movf	243,w,c
  6473   0019BE  0F8A               	addlw	low _lat_registers
  6474   0019C0  6ED9               	movwf	fsr2l,c
  6475   0019C2  6ADA               	clrf	fsr2h,c
  6476   0019C4  CFDE F0CE          	movff	postinc2,??_gpio_pin_write_logic+3
  6477   0019C8  CFDD F0CF          	movff	postdec2,??_gpio_pin_write_logic+4
  6478   0019CC  C0CE  FFD9         	movff	??_gpio_pin_write_logic+3,fsr2l
  6479   0019D0  C0CF  FFDA         	movff	??_gpio_pin_write_logic+4,fsr2h
  6480   0019D4  51CD               	movf	(??_gpio_pin_write_logic+2)& (0+255),w,b
  6481   0019D6  16DF               	andwf	indf2,f,c
  6482                           
  6483                           ;MCAL_Layer/GPIO/hal_gpio.c: 85:                 break;
  6484   0019D8  EF2E  F00D         	goto	l4990
  6485   0019DC                     l4984:
  6486                           
  6487                           ; BSR set to: 0
  6488                           ;MCAL_Layer/GPIO/hal_gpio.c: 87:                 (*lat_registers[config->port] |=((uint8
      +                          )1<<config->pin));
  6489   0019DC  5068               	movf	gpio_pin_write_logic@config^0,w,c
  6490   0019DE  6ED9               	movwf	fsr2l,c
  6491   0019E0  6ADA               	clrf	fsr2h,c
  6492   0019E2  30DF               	rrcf	223,w,c
  6493   0019E4  32E8               	rrcf	wreg,f,c
  6494   0019E6  32E8               	rrcf	wreg,f,c
  6495   0019E8  0B07               	andlw	7
  6496   0019EA  6FCB               	movwf	??_gpio_pin_write_logic& (0+255),b
  6497   0019EC  0E01               	movlw	1
  6498   0019EE  6FCC               	movwf	(??_gpio_pin_write_logic+1)& (0+255),b
  6499   0019F0  2BCB               	incf	??_gpio_pin_write_logic& (0+255),f,b
  6500   0019F2  EFFD  F00C         	goto	u4334
  6501   0019F6                     u4335:
  6502   0019F6  90D8               	bcf	status,0,c
  6503   0019F8  37CC               	rlcf	(??_gpio_pin_write_logic+1)& (0+255),f,b
  6504   0019FA                     u4334:
  6505   0019FA  2FCB               	decfsz	??_gpio_pin_write_logic& (0+255),f,b
  6506   0019FC  EFFB  F00C         	goto	u4335
  6507   001A00  5068               	movf	gpio_pin_write_logic@config^0,w,c
  6508   001A02  6ED9               	movwf	fsr2l,c
  6509   001A04  6ADA               	clrf	fsr2h,c
  6510   001A06  50DF               	movf	223,w,c
  6511   001A08  0B07               	andlw	7
  6512   001A0A  0D02               	mullw	2
  6513   001A0C  50F3               	movf	243,w,c
  6514   001A0E  0F8A               	addlw	low _lat_registers
  6515   001A10  6ED9               	movwf	fsr2l,c
  6516   001A12  6ADA               	clrf	fsr2h,c
  6517   001A14  CFDE F0CD          	movff	postinc2,??_gpio_pin_write_logic+2
  6518   001A18  CFDD F0CE          	movff	postdec2,??_gpio_pin_write_logic+3
  6519   001A1C  C0CD  FFD9         	movff	??_gpio_pin_write_logic+2,fsr2l
  6520   001A20  C0CE  FFDA         	movff	??_gpio_pin_write_logic+3,fsr2h
  6521   001A24  0100               	movlb	0	; () banked
  6522   001A26  51CC               	movf	(??_gpio_pin_write_logic+1)& (0+255),w,b
  6523   001A28  12DF               	iorwf	indf2,f,c
  6524                           
  6525                           ;MCAL_Layer/GPIO/hal_gpio.c: 88:                 break;
  6526   001A2A  EF2E  F00D         	goto	l4990
  6527   001A2E                     l4986:
  6528                           
  6529                           ; BSR set to: 0
  6530                           ;MCAL_Layer/GPIO/hal_gpio.c: 90:         }
  6531   001A2E  EF2E  F00D         	goto	l4990
  6532   001A32                     l4988:
  6533                           
  6534                           ; BSR set to: 0
  6535   001A32  5069               	movf	gpio_pin_write_logic@logic_status^0,w,c
  6536   001A34  6FCB               	movwf	??_gpio_pin_write_logic& (0+255),b
  6537   001A36  6BCC               	clrf	(??_gpio_pin_write_logic+1)& (0+255),b
  6538                           
  6539                           ; Switch on 2 bytes has been partitioned into a top level switch of size 1, and 1 sub-sw
      +                          itches
  6540                           ; Switch size 1, requested type "simple"
  6541                           ; Number of cases is 1, Range of values is 0 to 0
  6542                           ; switch strategies available:
  6543                           ; Name         Instructions Cycles
  6544                           ; simple_byte            4     3 (average)
  6545                           ;	Chosen strategy is simple_byte
  6546   001A38  51CC               	movf	(??_gpio_pin_write_logic+1)& (0+255),w,b
  6547   001A3A  0A00               	xorlw	0	; case 0
  6548   001A3C  B4D8               	btfsc	status,2,c
  6549   001A3E  EF23  F00D         	goto	l6494
  6550   001A42  EF17  F00D         	goto	l4986
  6551   001A46                     l6494:
  6552                           
  6553                           ; BSR set to: 0
  6554                           ; Switch size 1, requested type "simple"
  6555                           ; Number of cases is 2, Range of values is 0 to 1
  6556                           ; switch strategies available:
  6557                           ; Name         Instructions Cycles
  6558                           ; simple_byte            7     4 (average)
  6559                           ;	Chosen strategy is simple_byte
  6560   001A46  51CB               	movf	??_gpio_pin_write_logic& (0+255),w,b
  6561   001A48  0A00               	xorlw	0	; case 0
  6562   001A4A  B4D8               	btfsc	status,2,c
  6563   001A4C  EFC2  F00C         	goto	l4982
  6564   001A50  0A01               	xorlw	1	; case 1
  6565   001A52  B4D8               	btfsc	status,2,c
  6566   001A54  EFEE  F00C         	goto	l4984
  6567   001A58  EF17  F00D         	goto	l4986
  6568   001A5C                     l4990:
  6569                           
  6570                           ; BSR set to: 0
  6571                           ;MCAL_Layer/GPIO/hal_gpio.c: 91:         retVal = (Std_ReturnType)0x01;
  6572   001A5C  0E01               	movlw	1
  6573   001A5E  6E6A               	movwf	gpio_pin_write_logic@retVal^0,c
  6574   001A60                     l230:
  6575                           
  6576                           ;MCAL_Layer/GPIO/hal_gpio.c: 93:     return retVal;
  6577   001A60  506A               	movf	gpio_pin_write_logic@retVal^0,w,c
  6578   001A62  0012               	return		;funcret
  6579   001A64                     __end_of_gpio_pin_write_logic:
  6580                           	callstack 0
  6581                           
  6582 ;; *************** function _gpio_pin_direction_initialize *****************
  6583 ;; Defined at:
  6584 ;;		line 26 in file "MCAL_Layer/GPIO/hal_gpio.c"
  6585 ;; Parameters:    Size  Location     Type
  6586 ;;  config          1   18[COMRAM] PTR const struct .
  6587 ;;		 -> buzzer(1), clock_mode_int(6), pause_resume_int(6), count_down_int(6), 
  6588 ;;		 -> count_up_int(6), reset_int(6), seg_enable_6(1), seg_enable_5(1), 
  6589 ;;		 -> seg_enable_4(1), seg_enable_3(1), seg_enable_2(1), seg_enable_1(1), 
  6590 ;;		 -> keypad$keypad_columns_pins(4), keypad$keypad_rows_pins(4), keypad(8), seven_segment$segment_pin(4), 
  6591 ;;		 -> seven_segment(5), led_initialize@pin_obj(1), 
  6592 ;; Auto vars:     Size  Location     Type
  6593 ;;  retVal          1   19[COMRAM] unsigned char 
  6594 ;; Return value:  Size  Location     Type
  6595 ;;                  1    wreg      unsigned char 
  6596 ;; Registers used:
  6597 ;;		wreg, fsr2l, fsr2h, status,2, status,0, prodl, prodh
  6598 ;; Tracked objects:
  6599 ;;		On entry : 0/0
  6600 ;;		On exit  : 0/0
  6601 ;;		Unchanged: 0/0
  6602 ;; Data sizes:     COMRAM   BANK0   BANK1   BANK2   BANK3   BANK4   BANK5   BANK6   BANK7   BANK8   BANK9  BANK10  BANK1
      +1  BANK12  BANK13  BANK14  BANK15
  6603 ;;      Params:         1       0       0       0       0       0       0       0       0       0       0       0       
      +0       0       0       0       0
  6604 ;;      Locals:         1       0       0       0       0       0       0       0       0       0       0       0       
      +0       0       0       0       0
  6605 ;;      Temps:          0       5       0       0       0       0       0       0       0       0       0       0       
      +0       0       0       0       0
  6606 ;;      Totals:         2       5       0       0       0       0       0       0       0       0       0       0       
      +0       0       0       0       0
  6607 ;;Total ram usage:        7 bytes
  6608 ;; Hardware stack levels used: 1
  6609 ;; Hardware stack levels required when called: 5
  6610 ;; This function calls:
  6611 ;;		Nothing
  6612 ;; This function is called by:
  6613 ;;		_keypad_initialize
  6614 ;;		_gpio_pin_initialize
  6615 ;;		_button_initialize
  6616 ;; This function uses a non-reentrant model
  6617 ;;
  6618                           
  6619                           	psect	text49
  6620   00182E                     __ptext49:
  6621                           	callstack 0
  6622   00182E                     _gpio_pin_direction_initialize:
  6623                           	callstack 22
  6624   00182E                     
  6625                           ;MCAL_Layer/GPIO/hal_gpio.c: 28:     if((((void*)0) == config) || (config->pin > 8 -1))
  6626   00182E  5068               	movf	gpio_pin_direction_initialize@config^0,w,c
  6627   001830  B4D8               	btfsc	status,2,c
  6628   001832  EF1D  F00C         	goto	u4341
  6629   001836  EF1F  F00C         	goto	u4340
  6630   00183A                     u4341:
  6631   00183A  EF30  F00C         	goto	l5004
  6632   00183E                     u4340:
  6633   00183E  5068               	movf	gpio_pin_direction_initialize@config^0,w,c
  6634   001840  6ED9               	movwf	fsr2l,c
  6635   001842  6ADA               	clrf	fsr2h,c
  6636   001844  30DF               	rrcf	223,w,c
  6637   001846  32E8               	rrcf	wreg,f,c
  6638   001848  32E8               	rrcf	wreg,f,c
  6639   00184A  0B07               	andlw	7
  6640   00184C  0100               	movlb	0	; () banked
  6641   00184E  6FCB               	movwf	??_gpio_pin_direction_initialize& (0+255),b
  6642   001850  0E07               	movlw	7
  6643   001852  65CB               	cpfsgt	??_gpio_pin_direction_initialize& (0+255),b
  6644   001854  EF2E  F00C         	goto	u4351
  6645   001858  EF30  F00C         	goto	u4350
  6646   00185C                     u4351:
  6647   00185C  EF8B  F00C         	goto	l5012
  6648   001860                     u4350:
  6649   001860                     l5004:
  6650                           
  6651                           ;MCAL_Layer/GPIO/hal_gpio.c: 29:     {;MCAL_Layer/GPIO/hal_gpio.c: 30:         retVal = 
      +                          (Std_ReturnType)0x00;
  6652   001860  0E00               	movlw	0
  6653   001862  6E69               	movwf	gpio_pin_direction_initialize@retVal^0,c
  6654                           
  6655                           ;MCAL_Layer/GPIO/hal_gpio.c: 31:     }else{
  6656   001864  EFA3  F00C         	goto	l211
  6657   001868                     l5006:
  6658                           
  6659                           ; BSR set to: 0
  6660                           ;MCAL_Layer/GPIO/hal_gpio.c: 34:             (*tris_registers[config->port] &=~(((uint8)
      +                          1<<config->pin)));
  6661   001868  5068               	movf	gpio_pin_direction_initialize@config^0,w,c
  6662   00186A  6ED9               	movwf	fsr2l,c
  6663   00186C  6ADA               	clrf	fsr2h,c
  6664   00186E  30DF               	rrcf	223,w,c
  6665   001870  32E8               	rrcf	wreg,f,c
  6666   001872  32E8               	rrcf	wreg,f,c
  6667   001874  0B07               	andlw	7
  6668   001876  6FCB               	movwf	??_gpio_pin_direction_initialize& (0+255),b
  6669   001878  0E01               	movlw	1
  6670   00187A  6FCC               	movwf	(??_gpio_pin_direction_initialize+1)& (0+255),b
  6671   00187C  2BCB               	incf	??_gpio_pin_direction_initialize& (0+255),f,b
  6672   00187E  EF43  F00C         	goto	u4364
  6673   001882                     u4365:
  6674   001882  90D8               	bcf	status,0,c
  6675   001884  37CC               	rlcf	(??_gpio_pin_direction_initialize+1)& (0+255),f,b
  6676   001886                     u4364:
  6677   001886  2FCB               	decfsz	??_gpio_pin_direction_initialize& (0+255),f,b
  6678   001888  EF41  F00C         	goto	u4365
  6679   00188C  0100               	movlb	0	; () banked
  6680   00188E  51CC               	movf	(??_gpio_pin_direction_initialize+1)& (0+255),w,b
  6681   001890  0AFF               	xorlw	255
  6682   001892  6FCD               	movwf	(??_gpio_pin_direction_initialize+2)& (0+255),b
  6683   001894  5068               	movf	gpio_pin_direction_initialize@config^0,w,c
  6684   001896  6ED9               	movwf	fsr2l,c
  6685   001898  6ADA               	clrf	fsr2h,c
  6686   00189A  50DF               	movf	223,w,c
  6687   00189C  0B07               	andlw	7
  6688   00189E  0D02               	mullw	2
  6689   0018A0  50F3               	movf	243,w,c
  6690   0018A2  0F94               	addlw	low _tris_registers
  6691   0018A4  6ED9               	movwf	fsr2l,c
  6692   0018A6  6ADA               	clrf	fsr2h,c
  6693   0018A8  CFDE F0CE          	movff	postinc2,??_gpio_pin_direction_initialize+3
  6694   0018AC  CFDD F0CF          	movff	postdec2,??_gpio_pin_direction_initialize+4
  6695   0018B0  C0CE  FFD9         	movff	??_gpio_pin_direction_initialize+3,fsr2l
  6696   0018B4  C0CF  FFDA         	movff	??_gpio_pin_direction_initialize+4,fsr2h
  6697   0018B8  51CD               	movf	(??_gpio_pin_direction_initialize+2)& (0+255),w,b
  6698   0018BA  16DF               	andwf	indf2,f,c
  6699                           
  6700                           ;MCAL_Layer/GPIO/hal_gpio.c: 35:             break;
  6701   0018BC  EFA1  F00C         	goto	l5014
  6702   0018C0                     l5008:
  6703                           
  6704                           ; BSR set to: 0
  6705                           ;MCAL_Layer/GPIO/hal_gpio.c: 37:             (*tris_registers[config->port] |=((uint8)1<
      +                          <config->pin));
  6706   0018C0  5068               	movf	gpio_pin_direction_initialize@config^0,w,c
  6707   0018C2  6ED9               	movwf	fsr2l,c
  6708   0018C4  6ADA               	clrf	fsr2h,c
  6709   0018C6  30DF               	rrcf	223,w,c
  6710   0018C8  32E8               	rrcf	wreg,f,c
  6711   0018CA  32E8               	rrcf	wreg,f,c
  6712   0018CC  0B07               	andlw	7
  6713   0018CE  6FCB               	movwf	??_gpio_pin_direction_initialize& (0+255),b
  6714   0018D0  0E01               	movlw	1
  6715   0018D2  6FCC               	movwf	(??_gpio_pin_direction_initialize+1)& (0+255),b
  6716   0018D4  2BCB               	incf	??_gpio_pin_direction_initialize& (0+255),f,b
  6717   0018D6  EF6F  F00C         	goto	u4374
  6718   0018DA                     u4375:
  6719   0018DA  90D8               	bcf	status,0,c
  6720   0018DC  37CC               	rlcf	(??_gpio_pin_direction_initialize+1)& (0+255),f,b
  6721   0018DE                     u4374:
  6722   0018DE  2FCB               	decfsz	??_gpio_pin_direction_initialize& (0+255),f,b
  6723   0018E0  EF6D  F00C         	goto	u4375
  6724   0018E4  5068               	movf	gpio_pin_direction_initialize@config^0,w,c
  6725   0018E6  6ED9               	movwf	fsr2l,c
  6726   0018E8  6ADA               	clrf	fsr2h,c
  6727   0018EA  50DF               	movf	223,w,c
  6728   0018EC  0B07               	andlw	7
  6729   0018EE  0D02               	mullw	2
  6730   0018F0  50F3               	movf	243,w,c
  6731   0018F2  0F94               	addlw	low _tris_registers
  6732   0018F4  6ED9               	movwf	fsr2l,c
  6733   0018F6  6ADA               	clrf	fsr2h,c
  6734   0018F8  CFDE F0CD          	movff	postinc2,??_gpio_pin_direction_initialize+2
  6735   0018FC  CFDD F0CE          	movff	postdec2,??_gpio_pin_direction_initialize+3
  6736   001900  C0CD  FFD9         	movff	??_gpio_pin_direction_initialize+2,fsr2l
  6737   001904  C0CE  FFDA         	movff	??_gpio_pin_direction_initialize+3,fsr2h
  6738   001908  0100               	movlb	0	; () banked
  6739   00190A  51CC               	movf	(??_gpio_pin_direction_initialize+1)& (0+255),w,b
  6740   00190C  12DF               	iorwf	indf2,f,c
  6741                           
  6742                           ;MCAL_Layer/GPIO/hal_gpio.c: 38:             break;
  6743   00190E  EFA1  F00C         	goto	l5014
  6744   001912                     l5010:
  6745                           
  6746                           ; BSR set to: 0
  6747                           ;MCAL_Layer/GPIO/hal_gpio.c: 40:     }
  6748   001912  EFA1  F00C         	goto	l5014
  6749   001916                     l5012:
  6750                           
  6751                           ; BSR set to: 0
  6752   001916  5068               	movf	gpio_pin_direction_initialize@config^0,w,c
  6753   001918  6ED9               	movwf	fsr2l,c
  6754   00191A  6ADA               	clrf	fsr2h,c
  6755   00191C  BEDF               	btfsc	indf2,7,c
  6756   00191E  EF93  F00C         	goto	u4381
  6757   001922  EF96  F00C         	goto	u4380
  6758   001926                     u4381:
  6759   001926  0E01               	movlw	1
  6760   001928  EF97  F00C         	goto	u4386
  6761   00192C                     u4380:
  6762   00192C  0E00               	movlw	0
  6763   00192E                     u4386:
  6764                           
  6765                           ; Switch size 1, requested type "simple"
  6766                           ; Number of cases is 2, Range of values is 0 to 1
  6767                           ; switch strategies available:
  6768                           ; Name         Instructions Cycles
  6769                           ; simple_byte            7     4 (average)
  6770                           ;	Chosen strategy is simple_byte
  6771   00192E  0A00               	xorlw	0	; case 0
  6772   001930  B4D8               	btfsc	status,2,c
  6773   001932  EF34  F00C         	goto	l5006
  6774   001936  0A01               	xorlw	1	; case 1
  6775   001938  B4D8               	btfsc	status,2,c
  6776   00193A  EF60  F00C         	goto	l5008
  6777   00193E  EF89  F00C         	goto	l5010
  6778   001942                     l5014:
  6779                           
  6780                           ; BSR set to: 0
  6781                           ;MCAL_Layer/GPIO/hal_gpio.c: 41:         retVal = (Std_ReturnType)0x01;
  6782   001942  0E01               	movlw	1
  6783   001944  6E69               	movwf	gpio_pin_direction_initialize@retVal^0,c
  6784   001946                     l211:
  6785                           
  6786                           ;MCAL_Layer/GPIO/hal_gpio.c: 43:     return retVal;
  6787   001946  5069               	movf	gpio_pin_direction_initialize@retVal^0,w,c
  6788   001948  0012               	return		;funcret
  6789   00194A                     __end_of_gpio_pin_direction_initialize:
  6790                           	callstack 0
  6791                           
  6792 ;; *************** function _InterruptManagerHigh *****************
  6793 ;; Defined at:
  6794 ;;		line 25 in file "MCAL_Layer/Interrupt/mcal_interrupt_manager.c"
  6795 ;; Parameters:    Size  Location     Type
  6796 ;;		None
  6797 ;; Auto vars:     Size  Location     Type
  6798 ;;		None
  6799 ;; Return value:  Size  Location     Type
  6800 ;;                  1    wreg      void 
  6801 ;; Registers used:
  6802 ;;		wreg, fsr2l, fsr2h, status,2, status,0, pcl, pclath, pclatu, tosl, prodl, prodh, cstack
  6803 ;; Tracked objects:
  6804 ;;		On entry : 0/0
  6805 ;;		On exit  : 0/0
  6806 ;;		Unchanged: 0/0
  6807 ;; Data sizes:     COMRAM   BANK0   BANK1   BANK2   BANK3   BANK4   BANK5   BANK6   BANK7   BANK8   BANK9  BANK10  BANK1
      +1  BANK12  BANK13  BANK14  BANK15
  6808 ;;      Params:         0       0       0       0       0       0       0       0       0       0       0       0       
      +0       0       0       0       0
  6809 ;;      Locals:         0       0       0       0       0       0       0       0       0       0       0       0       
      +0       0       0       0       0
  6810 ;;      Temps:          6       0       0       0       0       0       0       0       0       0       0       0       
      +0       0       0       0       0
  6811 ;;      Totals:         6       0       0       0       0       0       0       0       0       0       0       0       
      +0       0       0       0       0
  6812 ;;Total ram usage:        6 bytes
  6813 ;; Hardware stack levels used: 1
  6814 ;; Hardware stack levels required when called: 4
  6815 ;; This function calls:
  6816 ;;		_INT0_ISR
  6817 ;;		_INT1_ISR
  6818 ;;		_INT2_ISR
  6819 ;;		_RB4_ISR
  6820 ;;		_RB5_ISR
  6821 ;;		_RB6_ISR
  6822 ;;		_RB7_ISR
  6823 ;;		_TMR0_ISR
  6824 ;; This function is called by:
  6825 ;;		Interrupt level 2
  6826 ;; This function uses a non-reentrant model
  6827 ;;
  6828                           
  6829                           	psect	intcode
  6830   000008                     __pintcode:
  6831                           	callstack 0
  6832   000008                     _InterruptManagerHigh:
  6833                           	callstack 20
  6834                           
  6835                           ;incstack = 0
  6836   000008  826D               	bsf	int$flags,1,c	;set compiler interrupt flag (level 2)
  6837   00000A  ED09  F008         	call	int_func,f	;refresh shadow registers
  6838                           
  6839                           	psect	intcode_body
  6840   001012                     __pintcode_body:
  6841                           	callstack 20
  6842   001012                     int_func:
  6843                           	callstack 20
  6844   001012  0006               	pop		; remove dummy address from shadow register refresh
  6845   001014  CFFA F062          	movff	pclath,??_InterruptManagerHigh
  6846   001018  CFFB F063          	movff	pclatu,??_InterruptManagerHigh+1
  6847   00101C  CFD9 F064          	movff	fsr2l,??_InterruptManagerHigh+2
  6848   001020  CFDA F065          	movff	fsr2h,??_InterruptManagerHigh+3
  6849   001024  CFF3 F066          	movff	prodl,??_InterruptManagerHigh+4
  6850   001028  CFF4 F067          	movff	prodh,??_InterruptManagerHigh+5
  6851   00102C                     
  6852                           ;MCAL_Layer/Interrupt/mcal_interrupt_manager.c: 27:     if((1 == INTCONbits.INT0IE) && (
      +                          1 == INTCONbits.INT0IF)){
  6853   00102C  A8F2               	btfss	242,4,c	;volatile
  6854   00102E  EF1B  F008         	goto	i2u562_41
  6855   001032  EF1D  F008         	goto	i2u562_40
  6856   001036                     i2u562_41:
  6857   001036  EF26  F008         	goto	i2l6130
  6858   00103A                     i2u562_40:
  6859   00103A  A2F2               	btfss	242,1,c	;volatile
  6860   00103C  EF22  F008         	goto	i2u563_41
  6861   001040  EF24  F008         	goto	i2u563_40
  6862   001044                     i2u563_41:
  6863   001044  EF26  F008         	goto	i2l6130
  6864   001048                     i2u563_40:
  6865   001048                     
  6866                           ;MCAL_Layer/Interrupt/mcal_interrupt_manager.c: 28:         INT0_ISR();
  6867   001048  ECFE  F017         	call	_INT0_ISR	;wreg free
  6868   00104C                     i2l6130:
  6869                           
  6870                           ;MCAL_Layer/Interrupt/mcal_interrupt_manager.c: 30:     if((1 == INTCON3bits.INT1IE) && 
      +                          (1 == INTCON3bits.INT1IF)){
  6871   00104C  A6F0               	btfss	240,3,c	;volatile
  6872   00104E  EF2B  F008         	goto	i2u564_41
  6873   001052  EF2D  F008         	goto	i2u564_40
  6874   001056                     i2u564_41:
  6875   001056  EF36  F008         	goto	i2l6136
  6876   00105A                     i2u564_40:
  6877   00105A  A0F0               	btfss	240,0,c	;volatile
  6878   00105C  EF32  F008         	goto	i2u565_41
  6879   001060  EF34  F008         	goto	i2u565_40
  6880   001064                     i2u565_41:
  6881   001064  EF36  F008         	goto	i2l6136
  6882   001068                     i2u565_40:
  6883   001068                     
  6884                           ;MCAL_Layer/Interrupt/mcal_interrupt_manager.c: 31:         INT1_ISR();
  6885   001068  ECE7  F017         	call	_INT1_ISR	;wreg free
  6886   00106C                     i2l6136:
  6887                           
  6888                           ;MCAL_Layer/Interrupt/mcal_interrupt_manager.c: 33:     if((1 == INTCON3bits.INT2IE) && 
      +                          (1 == INTCON3bits.INT2IF)){
  6889   00106C  A8F0               	btfss	240,4,c	;volatile
  6890   00106E  EF3B  F008         	goto	i2u566_41
  6891   001072  EF3D  F008         	goto	i2u566_40
  6892   001076                     i2u566_41:
  6893   001076  EF46  F008         	goto	i2l6142
  6894   00107A                     i2u566_40:
  6895   00107A  A2F0               	btfss	240,1,c	;volatile
  6896   00107C  EF42  F008         	goto	i2u567_41
  6897   001080  EF44  F008         	goto	i2u567_40
  6898   001084                     i2u567_41:
  6899   001084  EF46  F008         	goto	i2l6142
  6900   001088                     i2u567_40:
  6901   001088                     
  6902                           ;MCAL_Layer/Interrupt/mcal_interrupt_manager.c: 34:         INT2_ISR();
  6903   001088  ECD0  F017         	call	_INT2_ISR	;wreg free
  6904   00108C                     i2l6142:
  6905                           
  6906                           ;MCAL_Layer/Interrupt/mcal_interrupt_manager.c: 39:     if((1 == INTCONbits.RBIE) && (1 
      +                          == INTCONbits.RBIF)
  6907   00108C  A6F2               	btfss	242,3,c	;volatile
  6908   00108E  EF4B  F008         	goto	i2u568_41
  6909   001092  EF4D  F008         	goto	i2u568_40
  6910   001096                     i2u568_41:
  6911   001096  EF68  F008         	goto	i2l6154
  6912   00109A                     i2u568_40:
  6913   00109A  A0F2               	btfss	242,0,c	;volatile
  6914   00109C  EF52  F008         	goto	i2u569_41
  6915   0010A0  EF54  F008         	goto	i2u569_40
  6916   0010A4                     i2u569_41:
  6917   0010A4  EF68  F008         	goto	i2l6154
  6918   0010A8                     i2u569_40:
  6919   0010A8  A881               	btfss	129,4,c	;volatile
  6920   0010AA  EF59  F008         	goto	i2u570_41
  6921   0010AE  EF5B  F008         	goto	i2u570_40
  6922   0010B2                     i2u570_41:
  6923   0010B2  EF68  F008         	goto	i2l6154
  6924   0010B6                     i2u570_40:
  6925   0010B6  0445               	decf	_RB4_flag^0,w,c	;volatile
  6926   0010B8  A4D8               	btfss	status,2,c
  6927   0010BA  EF61  F008         	goto	i2u571_41
  6928   0010BE  EF63  F008         	goto	i2u571_40
  6929   0010C2                     i2u571_41:
  6930   0010C2  EF68  F008         	goto	i2l6154
  6931   0010C6                     i2u571_40:
  6932   0010C6                     
  6933                           ;MCAL_Layer/Interrupt/mcal_interrupt_manager.c: 40:             && (PORTBbits.RB4 == GPI
      +                          O_HIGH) && (RB4_flag == 1)){;MCAL_Layer/Interrupt/mcal_interrupt_manager.c: 41:         
      +                          RB4_flag = 0;
  6934   0010C6  0E00               	movlw	0
  6935   0010C8  6E45               	movwf	_RB4_flag^0,c	;volatile
  6936   0010CA                     
  6937                           ;MCAL_Layer/Interrupt/mcal_interrupt_manager.c: 42:         RB4_ISR(0);
  6938   0010CA  0E00               	movlw	0
  6939   0010CC  ECA1  F016         	call	_RB4_ISR
  6940   0010D0                     i2l6154:
  6941                           
  6942                           ;MCAL_Layer/Interrupt/mcal_interrupt_manager.c: 44:     if((1 == INTCONbits.RBIE) && (1 
      +                          == INTCONbits.RBIF)
  6943   0010D0  A6F2               	btfss	242,3,c	;volatile
  6944   0010D2  EF6D  F008         	goto	i2u572_41
  6945   0010D6  EF6F  F008         	goto	i2u572_40
  6946   0010DA                     i2u572_41:
  6947   0010DA  EF8A  F008         	goto	i2l6166
  6948   0010DE                     i2u572_40:
  6949   0010DE  A0F2               	btfss	242,0,c	;volatile
  6950   0010E0  EF74  F008         	goto	i2u573_41
  6951   0010E4  EF76  F008         	goto	i2u573_40
  6952   0010E8                     i2u573_41:
  6953   0010E8  EF8A  F008         	goto	i2l6166
  6954   0010EC                     i2u573_40:
  6955   0010EC  B881               	btfsc	129,4,c	;volatile
  6956   0010EE  EF7B  F008         	goto	i2u574_41
  6957   0010F2  EF7D  F008         	goto	i2u574_40
  6958   0010F6                     i2u574_41:
  6959   0010F6  EF8A  F008         	goto	i2l6166
  6960   0010FA                     i2u574_40:
  6961   0010FA  5045               	movf	_RB4_flag^0,w,c	;volatile
  6962   0010FC  A4D8               	btfss	status,2,c
  6963   0010FE  EF83  F008         	goto	i2u575_41
  6964   001102  EF85  F008         	goto	i2u575_40
  6965   001106                     i2u575_41:
  6966   001106  EF8A  F008         	goto	i2l6166
  6967   00110A                     i2u575_40:
  6968   00110A                     
  6969                           ;MCAL_Layer/Interrupt/mcal_interrupt_manager.c: 45:             && (PORTBbits.RB4 == GPI
      +                          O_LOW) && (RB4_flag == 0)){;MCAL_Layer/Interrupt/mcal_interrupt_manager.c: 46:         R
      +                          B4_flag = 1;
  6970   00110A  0E01               	movlw	1
  6971   00110C  6E45               	movwf	_RB4_flag^0,c	;volatile
  6972   00110E                     
  6973                           ;MCAL_Layer/Interrupt/mcal_interrupt_manager.c: 47:         RB4_ISR(1);
  6974   00110E  0E01               	movlw	1
  6975   001110  ECA1  F016         	call	_RB4_ISR
  6976   001114                     i2l6166:
  6977                           
  6978                           ;MCAL_Layer/Interrupt/mcal_interrupt_manager.c: 49:     if((1 == INTCONbits.RBIE) && (1 
      +                          == INTCONbits.RBIF)
  6979   001114  A6F2               	btfss	242,3,c	;volatile
  6980   001116  EF8F  F008         	goto	i2u576_41
  6981   00111A  EF91  F008         	goto	i2u576_40
  6982   00111E                     i2u576_41:
  6983   00111E  EFAC  F008         	goto	i2l6178
  6984   001122                     i2u576_40:
  6985   001122  A0F2               	btfss	242,0,c	;volatile
  6986   001124  EF96  F008         	goto	i2u577_41
  6987   001128  EF98  F008         	goto	i2u577_40
  6988   00112C                     i2u577_41:
  6989   00112C  EFAC  F008         	goto	i2l6178
  6990   001130                     i2u577_40:
  6991   001130  AA81               	btfss	129,5,c	;volatile
  6992   001132  EF9D  F008         	goto	i2u578_41
  6993   001136  EF9F  F008         	goto	i2u578_40
  6994   00113A                     i2u578_41:
  6995   00113A  EFAC  F008         	goto	i2l6178
  6996   00113E                     i2u578_40:
  6997   00113E  0444               	decf	_RB5_flag^0,w,c	;volatile
  6998   001140  A4D8               	btfss	status,2,c
  6999   001142  EFA5  F008         	goto	i2u579_41
  7000   001146  EFA7  F008         	goto	i2u579_40
  7001   00114A                     i2u579_41:
  7002   00114A  EFAC  F008         	goto	i2l6178
  7003   00114E                     i2u579_40:
  7004   00114E                     
  7005                           ;MCAL_Layer/Interrupt/mcal_interrupt_manager.c: 50:             && (PORTBbits.RB5 == GPI
      +                          O_HIGH) && (RB5_flag == 1)){;MCAL_Layer/Interrupt/mcal_interrupt_manager.c: 51:         
      +                          RB5_flag = 0;
  7006   00114E  0E00               	movlw	0
  7007   001150  6E44               	movwf	_RB5_flag^0,c	;volatile
  7008   001152                     
  7009                           ;MCAL_Layer/Interrupt/mcal_interrupt_manager.c: 52:         RB5_ISR(0);
  7010   001152  0E00               	movlw	0
  7011   001154  EC77  F016         	call	_RB5_ISR
  7012   001158                     i2l6178:
  7013                           
  7014                           ;MCAL_Layer/Interrupt/mcal_interrupt_manager.c: 54:     if((1 == INTCONbits.RBIE) && (1 
      +                          == INTCONbits.RBIF)
  7015   001158  A6F2               	btfss	242,3,c	;volatile
  7016   00115A  EFB1  F008         	goto	i2u580_41
  7017   00115E  EFB3  F008         	goto	i2u580_40
  7018   001162                     i2u580_41:
  7019   001162  EFCE  F008         	goto	i2l6190
  7020   001166                     i2u580_40:
  7021   001166  A0F2               	btfss	242,0,c	;volatile
  7022   001168  EFB8  F008         	goto	i2u581_41
  7023   00116C  EFBA  F008         	goto	i2u581_40
  7024   001170                     i2u581_41:
  7025   001170  EFCE  F008         	goto	i2l6190
  7026   001174                     i2u581_40:
  7027   001174  BA81               	btfsc	129,5,c	;volatile
  7028   001176  EFBF  F008         	goto	i2u582_41
  7029   00117A  EFC1  F008         	goto	i2u582_40
  7030   00117E                     i2u582_41:
  7031   00117E  EFCE  F008         	goto	i2l6190
  7032   001182                     i2u582_40:
  7033   001182  5044               	movf	_RB5_flag^0,w,c	;volatile
  7034   001184  A4D8               	btfss	status,2,c
  7035   001186  EFC7  F008         	goto	i2u583_41
  7036   00118A  EFC9  F008         	goto	i2u583_40
  7037   00118E                     i2u583_41:
  7038   00118E  EFCE  F008         	goto	i2l6190
  7039   001192                     i2u583_40:
  7040   001192                     
  7041                           ;MCAL_Layer/Interrupt/mcal_interrupt_manager.c: 55:             && (PORTBbits.RB5 == GPI
      +                          O_LOW)&& (RB5_flag == 0)){;MCAL_Layer/Interrupt/mcal_interrupt_manager.c: 56:         RB
      +                          5_flag = 1;
  7042   001192  0E01               	movlw	1
  7043   001194  6E44               	movwf	_RB5_flag^0,c	;volatile
  7044   001196                     
  7045                           ;MCAL_Layer/Interrupt/mcal_interrupt_manager.c: 57:         RB5_ISR(1);
  7046   001196  0E01               	movlw	1
  7047   001198  EC77  F016         	call	_RB5_ISR
  7048   00119C                     i2l6190:
  7049                           
  7050                           ;MCAL_Layer/Interrupt/mcal_interrupt_manager.c: 59:     if((1 == INTCONbits.RBIE) && (1 
      +                          == INTCONbits.RBIF)
  7051   00119C  A6F2               	btfss	242,3,c	;volatile
  7052   00119E  EFD3  F008         	goto	i2u584_41
  7053   0011A2  EFD5  F008         	goto	i2u584_40
  7054   0011A6                     i2u584_41:
  7055   0011A6  EFF0  F008         	goto	i2l6202
  7056   0011AA                     i2u584_40:
  7057   0011AA  A0F2               	btfss	242,0,c	;volatile
  7058   0011AC  EFDA  F008         	goto	i2u585_41
  7059   0011B0  EFDC  F008         	goto	i2u585_40
  7060   0011B4                     i2u585_41:
  7061   0011B4  EFF0  F008         	goto	i2l6202
  7062   0011B8                     i2u585_40:
  7063   0011B8  AC81               	btfss	129,6,c	;volatile
  7064   0011BA  EFE1  F008         	goto	i2u586_41
  7065   0011BE  EFE3  F008         	goto	i2u586_40
  7066   0011C2                     i2u586_41:
  7067   0011C2  EFF0  F008         	goto	i2l6202
  7068   0011C6                     i2u586_40:
  7069   0011C6  0443               	decf	_RB6_flag^0,w,c	;volatile
  7070   0011C8  A4D8               	btfss	status,2,c
  7071   0011CA  EFE9  F008         	goto	i2u587_41
  7072   0011CE  EFEB  F008         	goto	i2u587_40
  7073   0011D2                     i2u587_41:
  7074   0011D2  EFF0  F008         	goto	i2l6202
  7075   0011D6                     i2u587_40:
  7076   0011D6                     
  7077                           ;MCAL_Layer/Interrupt/mcal_interrupt_manager.c: 60:             && (PORTBbits.RB6 == GPI
      +                          O_HIGH) && (RB6_flag == 1)){;MCAL_Layer/Interrupt/mcal_interrupt_manager.c: 61:         
      +                          RB6_flag = 0;
  7078   0011D6  0E00               	movlw	0
  7079   0011D8  6E43               	movwf	_RB6_flag^0,c	;volatile
  7080   0011DA                     
  7081                           ;MCAL_Layer/Interrupt/mcal_interrupt_manager.c: 62:         RB6_ISR(0);
  7082   0011DA  0E00               	movlw	0
  7083   0011DC  EC4D  F016         	call	_RB6_ISR
  7084   0011E0                     i2l6202:
  7085                           
  7086                           ;MCAL_Layer/Interrupt/mcal_interrupt_manager.c: 64:     if((1 == INTCONbits.RBIE) && (1 
      +                          == INTCONbits.RBIF)
  7087   0011E0  A6F2               	btfss	242,3,c	;volatile
  7088   0011E2  EFF5  F008         	goto	i2u588_41
  7089   0011E6  EFF7  F008         	goto	i2u588_40
  7090   0011EA                     i2u588_41:
  7091   0011EA  EF12  F009         	goto	i2l6214
  7092   0011EE                     i2u588_40:
  7093   0011EE  A0F2               	btfss	242,0,c	;volatile
  7094   0011F0  EFFC  F008         	goto	i2u589_41
  7095   0011F4  EFFE  F008         	goto	i2u589_40
  7096   0011F8                     i2u589_41:
  7097   0011F8  EF12  F009         	goto	i2l6214
  7098   0011FC                     i2u589_40:
  7099   0011FC  BC81               	btfsc	129,6,c	;volatile
  7100   0011FE  EF03  F009         	goto	i2u590_41
  7101   001202  EF05  F009         	goto	i2u590_40
  7102   001206                     i2u590_41:
  7103   001206  EF12  F009         	goto	i2l6214
  7104   00120A                     i2u590_40:
  7105   00120A  5043               	movf	_RB6_flag^0,w,c	;volatile
  7106   00120C  A4D8               	btfss	status,2,c
  7107   00120E  EF0B  F009         	goto	i2u591_41
  7108   001212  EF0D  F009         	goto	i2u591_40
  7109   001216                     i2u591_41:
  7110   001216  EF12  F009         	goto	i2l6214
  7111   00121A                     i2u591_40:
  7112   00121A                     
  7113                           ;MCAL_Layer/Interrupt/mcal_interrupt_manager.c: 65:             && (PORTBbits.RB6 == GPI
      +                          O_LOW) && (RB6_flag == 0)){;MCAL_Layer/Interrupt/mcal_interrupt_manager.c: 66:         R
      +                          B6_flag = 1;
  7114   00121A  0E01               	movlw	1
  7115   00121C  6E43               	movwf	_RB6_flag^0,c	;volatile
  7116   00121E                     
  7117                           ;MCAL_Layer/Interrupt/mcal_interrupt_manager.c: 67:         RB6_ISR(1);
  7118   00121E  0E01               	movlw	1
  7119   001220  EC4D  F016         	call	_RB6_ISR
  7120   001224                     i2l6214:
  7121                           
  7122                           ;MCAL_Layer/Interrupt/mcal_interrupt_manager.c: 69:     if((1 == INTCONbits.RBIE) && (1 
      +                          == INTCONbits.RBIF)
  7123   001224  A6F2               	btfss	242,3,c	;volatile
  7124   001226  EF17  F009         	goto	i2u592_41
  7125   00122A  EF19  F009         	goto	i2u592_40
  7126   00122E                     i2u592_41:
  7127   00122E  EF34  F009         	goto	i2l6226
  7128   001232                     i2u592_40:
  7129   001232  A0F2               	btfss	242,0,c	;volatile
  7130   001234  EF1E  F009         	goto	i2u593_41
  7131   001238  EF20  F009         	goto	i2u593_40
  7132   00123C                     i2u593_41:
  7133   00123C  EF34  F009         	goto	i2l6226
  7134   001240                     i2u593_40:
  7135   001240  AE81               	btfss	129,7,c	;volatile
  7136   001242  EF25  F009         	goto	i2u594_41
  7137   001246  EF27  F009         	goto	i2u594_40
  7138   00124A                     i2u594_41:
  7139   00124A  EF34  F009         	goto	i2l6226
  7140   00124E                     i2u594_40:
  7141   00124E  0442               	decf	_RB7_flag^0,w,c	;volatile
  7142   001250  A4D8               	btfss	status,2,c
  7143   001252  EF2D  F009         	goto	i2u595_41
  7144   001256  EF2F  F009         	goto	i2u595_40
  7145   00125A                     i2u595_41:
  7146   00125A  EF34  F009         	goto	i2l6226
  7147   00125E                     i2u595_40:
  7148   00125E                     
  7149                           ;MCAL_Layer/Interrupt/mcal_interrupt_manager.c: 70:             && (PORTBbits.RB7 == GPI
      +                          O_HIGH) && (RB7_flag == 1)){;MCAL_Layer/Interrupt/mcal_interrupt_manager.c: 71:         
      +                          RB7_flag = 0;
  7150   00125E  0E00               	movlw	0
  7151   001260  6E42               	movwf	_RB7_flag^0,c	;volatile
  7152   001262                     
  7153                           ;MCAL_Layer/Interrupt/mcal_interrupt_manager.c: 72:         RB7_ISR(0);
  7154   001262  0E00               	movlw	0
  7155   001264  EC23  F016         	call	_RB7_ISR
  7156   001268                     i2l6226:
  7157                           
  7158                           ;MCAL_Layer/Interrupt/mcal_interrupt_manager.c: 74:     if((1 == INTCONbits.RBIE) && (1 
      +                          == INTCONbits.RBIF)
  7159   001268  A6F2               	btfss	242,3,c	;volatile
  7160   00126A  EF39  F009         	goto	i2u596_41
  7161   00126E  EF3B  F009         	goto	i2u596_40
  7162   001272                     i2u596_41:
  7163   001272  EF56  F009         	goto	i2l6238
  7164   001276                     i2u596_40:
  7165   001276  A0F2               	btfss	242,0,c	;volatile
  7166   001278  EF40  F009         	goto	i2u597_41
  7167   00127C  EF42  F009         	goto	i2u597_40
  7168   001280                     i2u597_41:
  7169   001280  EF56  F009         	goto	i2l6238
  7170   001284                     i2u597_40:
  7171   001284  BE81               	btfsc	129,7,c	;volatile
  7172   001286  EF47  F009         	goto	i2u598_41
  7173   00128A  EF49  F009         	goto	i2u598_40
  7174   00128E                     i2u598_41:
  7175   00128E  EF56  F009         	goto	i2l6238
  7176   001292                     i2u598_40:
  7177   001292  5042               	movf	_RB7_flag^0,w,c	;volatile
  7178   001294  A4D8               	btfss	status,2,c
  7179   001296  EF4F  F009         	goto	i2u599_41
  7180   00129A  EF51  F009         	goto	i2u599_40
  7181   00129E                     i2u599_41:
  7182   00129E  EF56  F009         	goto	i2l6238
  7183   0012A2                     i2u599_40:
  7184   0012A2                     
  7185                           ;MCAL_Layer/Interrupt/mcal_interrupt_manager.c: 75:             && (PORTBbits.RB7 == GPI
      +                          O_LOW) && (RB7_flag == 0)){;MCAL_Layer/Interrupt/mcal_interrupt_manager.c: 76:         R
      +                          B7_flag = 1;
  7186   0012A2  0E01               	movlw	1
  7187   0012A4  6E42               	movwf	_RB7_flag^0,c	;volatile
  7188   0012A6                     
  7189                           ;MCAL_Layer/Interrupt/mcal_interrupt_manager.c: 77:         RB7_ISR(1);
  7190   0012A6  0E01               	movlw	1
  7191   0012A8  EC23  F016         	call	_RB7_ISR
  7192   0012AC                     i2l6238:
  7193                           
  7194                           ;MCAL_Layer/Interrupt/mcal_interrupt_manager.c: 84:     if((1 == INTCONbits.TMR0IE) && (
      +                          1 == INTCONbits.TMR0IF)){
  7195   0012AC  AAF2               	btfss	242,5,c	;volatile
  7196   0012AE  EF5B  F009         	goto	i2u600_41
  7197   0012B2  EF5D  F009         	goto	i2u600_40
  7198   0012B6                     i2u600_41:
  7199   0012B6  EF66  F009         	goto	i2l558
  7200   0012BA                     i2u600_40:
  7201   0012BA  A4F2               	btfss	242,2,c	;volatile
  7202   0012BC  EF62  F009         	goto	i2u601_41
  7203   0012C0  EF64  F009         	goto	i2u601_40
  7204   0012C4                     i2u601_41:
  7205   0012C4  EF66  F009         	goto	i2l558
  7206   0012C8                     i2u601_40:
  7207   0012C8                     
  7208                           ;MCAL_Layer/Interrupt/mcal_interrupt_manager.c: 85:         TMR0_ISR();
  7209   0012C8  EC9E  F017         	call	_TMR0_ISR	;wreg free
  7210   0012CC                     i2l558:
  7211   0012CC  C067  FFF4         	movff	??_InterruptManagerHigh+5,prodh
  7212   0012D0  C066  FFF3         	movff	??_InterruptManagerHigh+4,prodl
  7213   0012D4  C065  FFDA         	movff	??_InterruptManagerHigh+3,fsr2h
  7214   0012D8  C064  FFD9         	movff	??_InterruptManagerHigh+2,fsr2l
  7215   0012DC  C063  FFFB         	movff	??_InterruptManagerHigh+1,pclatu
  7216   0012E0  C062  FFFA         	movff	??_InterruptManagerHigh,pclath
  7217   0012E4  926D               	bcf	int$flags,1,c	;clear compiler interrupt flag (level 2)
  7218   0012E6  0011               	retfie		f
  7219   0012E8                     __end_of_InterruptManagerHigh:
  7220                           	callstack 0
  7221                           
  7222 ;; *************** function _TMR0_ISR *****************
  7223 ;; Defined at:
  7224 ;;		line 188 in file "MCAL_Layer/Timer0/hal_timer0.c"
  7225 ;; Parameters:    Size  Location     Type
  7226 ;;		None
  7227 ;; Auto vars:     Size  Location     Type
  7228 ;;		None
  7229 ;; Return value:  Size  Location     Type
  7230 ;;                  1    wreg      void 
  7231 ;; Registers used:
  7232 ;;		wreg, fsr2l, fsr2h, status,2, status,0, pcl, pclath, pclatu, tosl, prodl, prodh, cstack
  7233 ;; Tracked objects:
  7234 ;;		On entry : 0/0
  7235 ;;		On exit  : 0/0
  7236 ;;		Unchanged: 0/0
  7237 ;; Data sizes:     COMRAM   BANK0   BANK1   BANK2   BANK3   BANK4   BANK5   BANK6   BANK7   BANK8   BANK9  BANK10  BANK1
      +1  BANK12  BANK13  BANK14  BANK15
  7238 ;;      Params:         0       0       0       0       0       0       0       0       0       0       0       0       
      +0       0       0       0       0
  7239 ;;      Locals:         0       0       0       0       0       0       0       0       0       0       0       0       
      +0       0       0       0       0
  7240 ;;      Temps:          0       0       0       0       0       0       0       0       0       0       0       0       
      +0       0       0       0       0
  7241 ;;      Totals:         0       0       0       0       0       0       0       0       0       0       0       0       
      +0       0       0       0       0
  7242 ;;Total ram usage:        0 bytes
  7243 ;; Hardware stack levels used: 1
  7244 ;; Hardware stack levels required when called: 3
  7245 ;; This function calls:
  7246 ;;		NULL
  7247 ;;		_TIMER0_IneterruptHandler
  7248 ;; This function is called by:
  7249 ;;		_InterruptManagerHigh
  7250 ;; This function uses a non-reentrant model
  7251 ;;
  7252                           
  7253                           	psect	text51
  7254   002F3C                     __ptext51:
  7255                           	callstack 0
  7256   002F3C                     _TMR0_ISR:
  7257                           	callstack 20
  7258   002F3C                     
  7259                           ;MCAL_Layer/Timer0/hal_timer0.c: 189:     (INTCONbits.TMR0IF = 0);
  7260   002F3C  94F2               	bcf	242,2,c	;volatile
  7261   002F3E                     
  7262                           ;MCAL_Layer/Timer0/hal_timer0.c: 190:     TMR0H = (timer0_preload) >> 8;
  7263   002F3E  5008               	movf	(_timer0_preload+1)^0,w,c	;volatile
  7264   002F40  6ED7               	movwf	215,c	;volatile
  7265   002F42                     
  7266                           ;MCAL_Layer/Timer0/hal_timer0.c: 191:     TMR0L = (uint8)(timer0_preload);
  7267   002F42  C007  FFD6         	movff	_timer0_preload,4054	;volatile
  7268   002F46                     
  7269                           ;MCAL_Layer/Timer0/hal_timer0.c: 192:     if(TMR0_InterruptHandler){
  7270   002F46  5009               	movf	_TMR0_InterruptHandler^0,w,c
  7271   002F48  100A               	iorwf	(_TMR0_InterruptHandler+1)^0,w,c
  7272   002F4A  B4D8               	btfsc	status,2,c
  7273   002F4C  EFAA  F017         	goto	i2u356_41
  7274   002F50  EFAC  F017         	goto	i2u356_40
  7275   002F54                     i2u356_41:
  7276   002F54  EFB8  F017         	goto	i2l626
  7277   002F58                     i2u356_40:
  7278   002F58                     
  7279                           ;MCAL_Layer/Timer0/hal_timer0.c: 193:         TMR0_InterruptHandler();
  7280   002F58  D802               	call	i2u357_48
  7281   002F5A  EFB8  F017         	goto	i2u357_49
  7282   002F5E                     i2u357_48:
  7283   002F5E  0005               	push	
  7284   002F60  6EFA               	movwf	pclath,c
  7285   002F62  5009               	movf	_TMR0_InterruptHandler^0,w,c
  7286   002F64  6EFD               	movwf	tosl,c
  7287   002F66  500A               	movf	(_TMR0_InterruptHandler+1)^0,w,c
  7288   002F68  6EFE               	movwf	tosh,c
  7289   002F6A  6AFF               	clrf	tosu,c
  7290   002F6C  50FA               	movf	pclath,w,c
  7291   002F6E  0012               	return		;indir
  7292   002F70                     i2u357_49:
  7293   002F70                     i2l626:
  7294   002F70  0012               	return		;funcret
  7295   002F72                     __end_of_TMR0_ISR:
  7296                           	callstack 0
  7297                           
  7298 ;; *************** function _TIMER0_IneterruptHandler *****************
  7299 ;; Defined at:
  7300 ;;		line 166 in file "application.c"
  7301 ;; Parameters:    Size  Location     Type
  7302 ;;		None
  7303 ;; Auto vars:     Size  Location     Type
  7304 ;;		None
  7305 ;; Return value:  Size  Location     Type
  7306 ;;                  1    wreg      void 
  7307 ;; Registers used:
  7308 ;;		wreg, fsr2l, fsr2h, status,2, status,0, prodl, prodh, cstack
  7309 ;; Tracked objects:
  7310 ;;		On entry : 0/0
  7311 ;;		On exit  : 0/0
  7312 ;;		Unchanged: 0/0
  7313 ;; Data sizes:     COMRAM   BANK0   BANK1   BANK2   BANK3   BANK4   BANK5   BANK6   BANK7   BANK8   BANK9  BANK10  BANK1
      +1  BANK12  BANK13  BANK14  BANK15
  7314 ;;      Params:         0       0       0       0       0       0       0       0       0       0       0       0       
      +0       0       0       0       0
  7315 ;;      Locals:         0       0       0       0       0       0       0       0       0       0       0       0       
      +0       0       0       0       0
  7316 ;;      Temps:          0       0       0       0       0       0       0       0       0       0       0       0       
      +0       0       0       0       0
  7317 ;;      Totals:         0       0       0       0       0       0       0       0       0       0       0       0       
      +0       0       0       0       0
  7318 ;;Total ram usage:        0 bytes
  7319 ;; Hardware stack levels used: 1
  7320 ;; Hardware stack levels required when called: 2
  7321 ;; This function calls:
  7322 ;;		_gpio_pin_toggle_logic
  7323 ;;		_led_toggle
  7324 ;; This function is called by:
  7325 ;;		_TMR0_ISR
  7326 ;; This function uses a non-reentrant model
  7327 ;;
  7328                           
  7329                           	psect	text52
  7330   00147A                     __ptext52:
  7331                           	callstack 0
  7332   00147A                     _TIMER0_IneterruptHandler:
  7333                           	callstack 20
  7334   00147A                     
  7335                           ;application.c: 167:     if(1 == mode_status){
  7336   00147A  0440               	decf	_mode_status^0,w,c	;volatile
  7337   00147C  A4D8               	btfss	status,2,c
  7338   00147E  EF43  F00A         	goto	i2u303_41
  7339   001482  EF45  F00A         	goto	i2u303_40
  7340   001486                     i2u303_41:
  7341   001486  EF6D  F00A         	goto	i2l4216
  7342   00148A                     i2u303_40:
  7343   00148A                     
  7344                           ;application.c: 168:         seconds++;
  7345   00148A  2A3F               	incf	_seconds^0,f,c	;volatile
  7346   00148C                     
  7347                           ;application.c: 169:         if(60 == seconds){
  7348   00148C  0E3C               	movlw	60
  7349   00148E  183F               	xorwf	_seconds^0,w,c	;volatile
  7350   001490  A4D8               	btfss	status,2,c
  7351   001492  EF4D  F00A         	goto	i2u304_41
  7352   001496  EF4F  F00A         	goto	i2u304_40
  7353   00149A                     i2u304_41:
  7354   00149A  EF52  F00A         	goto	i2l4206
  7355   00149E                     i2u304_40:
  7356   00149E                     
  7357                           ;application.c: 170:             seconds = 0;
  7358   00149E  0E00               	movlw	0
  7359   0014A0  6E3F               	movwf	_seconds^0,c	;volatile
  7360   0014A2                     
  7361                           ;application.c: 171:             minutes++;
  7362   0014A2  2A3E               	incf	_minutes^0,f,c	;volatile
  7363   0014A4                     i2l4206:
  7364                           
  7365                           ;application.c: 173:         if(60 == minutes){
  7366   0014A4  0E3C               	movlw	60
  7367   0014A6  183E               	xorwf	_minutes^0,w,c	;volatile
  7368   0014A8  A4D8               	btfss	status,2,c
  7369   0014AA  EF59  F00A         	goto	i2u305_41
  7370   0014AE  EF5B  F00A         	goto	i2u305_40
  7371   0014B2                     i2u305_41:
  7372   0014B2  EF5E  F00A         	goto	i2l4212
  7373   0014B6                     i2u305_40:
  7374   0014B6                     
  7375                           ;application.c: 174:             minutes = 0;
  7376   0014B6  0E00               	movlw	0
  7377   0014B8  6E3E               	movwf	_minutes^0,c	;volatile
  7378   0014BA                     
  7379                           ;application.c: 175:             hours++;
  7380   0014BA  2A3D               	incf	_hours^0,f,c	;volatile
  7381   0014BC                     i2l4212:
  7382                           
  7383                           ;application.c: 177:         if(99 == hours){
  7384   0014BC  0E63               	movlw	99
  7385   0014BE  183D               	xorwf	_hours^0,w,c	;volatile
  7386   0014C0  A4D8               	btfss	status,2,c
  7387   0014C2  EF65  F00A         	goto	i2u306_41
  7388   0014C6  EF67  F00A         	goto	i2u306_40
  7389   0014CA                     i2u306_41:
  7390   0014CA  EFEA  F00A         	goto	i2l850
  7391   0014CE                     i2u306_40:
  7392   0014CE                     
  7393                           ;application.c: 178:             hours = 0;
  7394   0014CE  0E00               	movlw	0
  7395   0014D0  6E3D               	movwf	_hours^0,c	;volatile
  7396   0014D2  EFEA  F00A         	goto	i2l850
  7397   0014D6                     i2l833:
  7398                           
  7399                           ;application.c: 180:     }
  7400   0014D6  EFEA  F00A         	goto	i2l850
  7401   0014DA                     i2l4216:
  7402   0014DA  0E04               	movlw	4
  7403   0014DC  1840               	xorwf	_mode_status^0,w,c	;volatile
  7404   0014DE  A4D8               	btfss	status,2,c
  7405   0014E0  EF74  F00A         	goto	i2u307_41
  7406   0014E4  EF76  F00A         	goto	i2u307_40
  7407   0014E8                     i2u307_41:
  7408   0014E8  EFBD  F00A         	goto	i2l4242
  7409   0014EC                     i2u307_40:
  7410   0014EC                     
  7411                           ;application.c: 182:             if(0 == alarm_seconds){
  7412   0014EC  5028               	movf	_alarm_seconds^0,w,c	;volatile
  7413   0014EE  A4D8               	btfss	status,2,c
  7414   0014F0  EF7C  F00A         	goto	i2u308_41
  7415   0014F4  EF7E  F00A         	goto	i2u308_40
  7416   0014F8                     i2u308_41:
  7417   0014F8  EFB2  F00A         	goto	i2l4238
  7418   0014FC                     i2u308_40:
  7419   0014FC                     
  7420                           ;application.c: 183:                 if(0 == alarm_minutes){
  7421   0014FC  5029               	movf	_alarm_minutes^0,w,c	;volatile
  7422   0014FE  A4D8               	btfss	status,2,c
  7423   001500  EF84  F00A         	goto	i2u309_41
  7424   001504  EF86  F00A         	goto	i2u309_40
  7425   001508                     i2u309_41:
  7426   001508  EFA5  F00A         	goto	i2l4232
  7427   00150C                     i2u309_40:
  7428   00150C                     
  7429                           ;application.c: 184:                     if(0 == alarm_hours){
  7430   00150C  502A               	movf	_alarm_hours^0,w,c	;volatile
  7431   00150E  A4D8               	btfss	status,2,c
  7432   001510  EF8C  F00A         	goto	i2u310_41
  7433   001514  EF8E  F00A         	goto	i2u310_40
  7434   001518                     i2u310_41:
  7435   001518  EF98  F00A         	goto	i2l4226
  7436   00151C                     i2u310_40:
  7437   00151C                     
  7438                           ;application.c: 185:                         gpio_pin_toggle_logic(&buzzer);
  7439   00151C  0E4B               	movlw	low _buzzer
  7440   00151E  6E56               	movwf	gpio_pin_toggle_logic@config^0,c
  7441   001520  EC51  F012         	call	_gpio_pin_toggle_logic	;wreg free
  7442                           
  7443                           ;application.c: 186:                         led_toggle(&buzzer_led);
  7444   001524  0E4C               	movlw	low _buzzer_led
  7445   001526  6E5B               	movwf	led_toggle@led^0,c
  7446   001528  ECA4  F014         	call	_led_toggle	;wreg free
  7447                           
  7448                           ;application.c: 187:                     }
  7449   00152C  EFEA  F00A         	goto	i2l850
  7450   001530                     i2l4226:
  7451   001530  502A               	movf	_alarm_hours^0,w,c	;volatile
  7452   001532  B4D8               	btfsc	status,2,c
  7453   001534  EF9E  F00A         	goto	i2u311_41
  7454   001538  EFA0  F00A         	goto	i2u311_40
  7455   00153C                     i2u311_41:
  7456   00153C  EF6B  F00A         	goto	i2l833
  7457   001540                     i2u311_40:
  7458   001540                     
  7459                           ;application.c: 189:                         alarm_hours--;
  7460   001540  062A               	decf	_alarm_hours^0,f,c	;volatile
  7461   001542                     
  7462                           ;application.c: 190:                         alarm_minutes = 60;
  7463   001542  0E3C               	movlw	60
  7464   001544  6E29               	movwf	_alarm_minutes^0,c	;volatile
  7465   001546  EFEA  F00A         	goto	i2l850
  7466   00154A                     i2l4232:
  7467   00154A  5029               	movf	_alarm_minutes^0,w,c	;volatile
  7468   00154C  B4D8               	btfsc	status,2,c
  7469   00154E  EFAB  F00A         	goto	i2u312_41
  7470   001552  EFAD  F00A         	goto	i2u312_40
  7471   001556                     i2u312_41:
  7472   001556  EF6B  F00A         	goto	i2l833
  7473   00155A                     i2u312_40:
  7474   00155A                     
  7475                           ;application.c: 194:                     alarm_minutes--;
  7476   00155A  0629               	decf	_alarm_minutes^0,f,c	;volatile
  7477   00155C                     
  7478                           ;application.c: 195:                     alarm_seconds = 59;
  7479   00155C  0E3B               	movlw	59
  7480   00155E  6E28               	movwf	_alarm_seconds^0,c	;volatile
  7481   001560  EFEA  F00A         	goto	i2l850
  7482   001564                     i2l4238:
  7483   001564  5028               	movf	_alarm_seconds^0,w,c	;volatile
  7484   001566  B4D8               	btfsc	status,2,c
  7485   001568  EFB8  F00A         	goto	i2u313_41
  7486   00156C  EFBA  F00A         	goto	i2u313_40
  7487   001570                     i2u313_41:
  7488   001570  EFEA  F00A         	goto	i2l850
  7489   001574                     i2u313_40:
  7490   001574                     
  7491                           ;application.c: 199:                 alarm_seconds--;
  7492   001574  0628               	decf	_alarm_seconds^0,f,c	;volatile
  7493   001576  EFEA  F00A         	goto	i2l850
  7494   00157A                     i2l4242:
  7495   00157A  0E02               	movlw	2
  7496   00157C  1840               	xorwf	_mode_status^0,w,c	;volatile
  7497   00157E  A4D8               	btfss	status,2,c
  7498   001580  EFC4  F00A         	goto	i2u314_41
  7499   001584  EFC6  F00A         	goto	i2u314_40
  7500   001588                     i2u314_41:
  7501   001588  EFEA  F00A         	goto	i2l850
  7502   00158C                     i2u314_40:
  7503   00158C                     
  7504                           ;application.c: 203:         clock_seconds++;
  7505   00158C  2A25               	incf	_clock_seconds^0,f,c	;volatile
  7506   00158E                     
  7507                           ;application.c: 204:         if(60 == clock_seconds){
  7508   00158E  0E3C               	movlw	60
  7509   001590  1825               	xorwf	_clock_seconds^0,w,c	;volatile
  7510   001592  A4D8               	btfss	status,2,c
  7511   001594  EFCE  F00A         	goto	i2u315_41
  7512   001598  EFD0  F00A         	goto	i2u315_40
  7513   00159C                     i2u315_41:
  7514   00159C  EFD3  F00A         	goto	i2l4252
  7515   0015A0                     i2u315_40:
  7516   0015A0                     
  7517                           ;application.c: 205:             clock_seconds = 0;
  7518   0015A0  0E00               	movlw	0
  7519   0015A2  6E25               	movwf	_clock_seconds^0,c	;volatile
  7520   0015A4                     
  7521                           ;application.c: 206:             clock_minutes++;
  7522   0015A4  2A26               	incf	_clock_minutes^0,f,c	;volatile
  7523   0015A6                     i2l4252:
  7524                           
  7525                           ;application.c: 208:         if(60 == clock_minutes){
  7526   0015A6  0E3C               	movlw	60
  7527   0015A8  1826               	xorwf	_clock_minutes^0,w,c	;volatile
  7528   0015AA  A4D8               	btfss	status,2,c
  7529   0015AC  EFDA  F00A         	goto	i2u316_41
  7530   0015B0  EFDC  F00A         	goto	i2u316_40
  7531   0015B4                     i2u316_41:
  7532   0015B4  EFDF  F00A         	goto	i2l4258
  7533   0015B8                     i2u316_40:
  7534   0015B8                     
  7535                           ;application.c: 209:             clock_minutes = 0;
  7536   0015B8  0E00               	movlw	0
  7537   0015BA  6E26               	movwf	_clock_minutes^0,c	;volatile
  7538   0015BC                     
  7539                           ;application.c: 210:             clock_hours++;
  7540   0015BC  2A27               	incf	_clock_hours^0,f,c	;volatile
  7541   0015BE                     i2l4258:
  7542                           
  7543                           ;application.c: 212:         if(24 == clock_hours){
  7544   0015BE  0E18               	movlw	24
  7545   0015C0  1827               	xorwf	_clock_hours^0,w,c	;volatile
  7546   0015C2  A4D8               	btfss	status,2,c
  7547   0015C4  EFE6  F00A         	goto	i2u317_41
  7548   0015C8  EFE8  F00A         	goto	i2u317_40
  7549   0015CC                     i2u317_41:
  7550   0015CC  EFEA  F00A         	goto	i2l850
  7551   0015D0                     i2u317_40:
  7552   0015D0                     
  7553                           ;application.c: 213:             clock_hours = 0;
  7554   0015D0  0E00               	movlw	0
  7555   0015D2  6E27               	movwf	_clock_hours^0,c	;volatile
  7556   0015D4                     i2l850:
  7557   0015D4  0012               	return		;funcret
  7558   0015D6                     __end_of_TIMER0_IneterruptHandler:
  7559                           	callstack 0
  7560                           
  7561 ;; *************** function _led_toggle *****************
  7562 ;; Defined at:
  7563 ;;		line 83 in file "ECU_Layer/LED/ecu_led.c"
  7564 ;; Parameters:    Size  Location     Type
  7565 ;;  led             1    5[COMRAM] PTR const struct .
  7566 ;;		 -> buzzer_led(1), 
  7567 ;; Auto vars:     Size  Location     Type
  7568 ;;  pin_obj         1    7[COMRAM] struct .
  7569 ;;  retVal          1    0        unsigned char 
  7570 ;; Return value:  Size  Location     Type
  7571 ;;                  1    wreg      unsigned char 
  7572 ;; Registers used:
  7573 ;;		wreg, fsr2l, fsr2h, status,2, status,0, prodl, prodh, cstack
  7574 ;; Tracked objects:
  7575 ;;		On entry : 0/0
  7576 ;;		On exit  : 0/0
  7577 ;;		Unchanged: 0/0
  7578 ;; Data sizes:     COMRAM   BANK0   BANK1   BANK2   BANK3   BANK4   BANK5   BANK6   BANK7   BANK8   BANK9  BANK10  BANK1
      +1  BANK12  BANK13  BANK14  BANK15
  7579 ;;      Params:         1       0       0       0       0       0       0       0       0       0       0       0       
      +0       0       0       0       0
  7580 ;;      Locals:         1       0       0       0       0       0       0       0       0       0       0       0       
      +0       0       0       0       0
  7581 ;;      Temps:          1       0       0       0       0       0       0       0       0       0       0       0       
      +0       0       0       0       0
  7582 ;;      Totals:         3       0       0       0       0       0       0       0       0       0       0       0       
      +0       0       0       0       0
  7583 ;;Total ram usage:        3 bytes
  7584 ;; Hardware stack levels used: 1
  7585 ;; Hardware stack levels required when called: 1
  7586 ;; This function calls:
  7587 ;;		_gpio_pin_toggle_logic
  7588 ;; This function is called by:
  7589 ;;		_TIMER0_IneterruptHandler
  7590 ;; This function uses a non-reentrant model
  7591 ;;
  7592                           
  7593                           	psect	text53
  7594   002948                     __ptext53:
  7595                           	callstack 0
  7596   002948                     _led_toggle:
  7597                           	callstack 20
  7598   002948                     
  7599                           ;ECU_Layer/LED/ecu_led.c: 85:     if(((void*)0) == led){
  7600   002948  505B               	movf	led_toggle@led^0,w,c
  7601   00294A  A4D8               	btfss	status,2,c
  7602   00294C  EFAA  F014         	goto	i2u287_41
  7603   002950  EFAC  F014         	goto	i2u287_40
  7604   002954                     i2u287_41:
  7605   002954  EFAE  F014         	goto	i2l105
  7606   002958                     i2u287_40:
  7607   002958                     
  7608                           ;ECU_Layer/LED/ecu_led.c: 87:     }else{
  7609   002958  EFD8  F014         	goto	i2l109
  7610   00295C                     i2l105:
  7611                           
  7612                           ;ECU_Layer/LED/ecu_led.c: 88:         pin_config_t pin_obj = {.port = led->port,
  7613   00295C  C02D  F05D         	movff	led_toggle@F3082,led_toggle@pin_obj
  7614   002960  505B               	movf	led_toggle@led^0,w,c
  7615   002962  6ED9               	movwf	fsr2l,c
  7616   002964  6ADA               	clrf	fsr2h,c
  7617   002966  50DF               	movf	223,w,c
  7618   002968  0B07               	andlw	7
  7619   00296A  6E5C               	movwf	??_led_toggle^0,c
  7620   00296C  505D               	movf	led_toggle@pin_obj^0,w,c
  7621   00296E  185C               	xorwf	??_led_toggle^0,w,c
  7622   002970  0BF8               	andlw	-8
  7623   002972  185C               	xorwf	??_led_toggle^0,w,c
  7624   002974  6E5D               	movwf	led_toggle@pin_obj^0,c
  7625   002976  505B               	movf	led_toggle@led^0,w,c
  7626   002978  6ED9               	movwf	fsr2l,c
  7627   00297A  6ADA               	clrf	fsr2h,c
  7628   00297C  30DF               	rrcf	223,w,c
  7629   00297E  32E8               	rrcf	wreg,f,c
  7630   002980  32E8               	rrcf	wreg,f,c
  7631   002982  0B07               	andlw	7
  7632   002984  6E5C               	movwf	??_led_toggle^0,c
  7633   002986  465C               	rlncf	??_led_toggle^0,f,c
  7634   002988  465C               	rlncf	??_led_toggle^0,f,c
  7635   00298A  465C               	rlncf	??_led_toggle^0,f,c
  7636   00298C  505D               	movf	led_toggle@pin_obj^0,w,c
  7637   00298E  185C               	xorwf	??_led_toggle^0,w,c
  7638   002990  0BC7               	andlw	-57
  7639   002992  185C               	xorwf	??_led_toggle^0,w,c
  7640   002994  6E5D               	movwf	led_toggle@pin_obj^0,c
  7641   002996  505B               	movf	led_toggle@led^0,w,c
  7642   002998  6ED9               	movwf	fsr2l,c
  7643   00299A  6ADA               	clrf	fsr2h,c
  7644   00299C  ACDF               	btfss	indf2,6,c
  7645   00299E  D002               	bra	i2u288_45
  7646   0029A0  8C5D               	bsf	led_toggle@pin_obj^0,6,c
  7647   0029A2  D001               	bra	i2u288_47
  7648   0029A4                     i2u288_45:
  7649   0029A4  9C5D               	bcf	led_toggle@pin_obj^0,6,c
  7650   0029A6                     i2u288_47:
  7651   0029A6  9E5D               	bcf	led_toggle@pin_obj^0,7,c
  7652   0029A8                     
  7653                           ;ECU_Layer/LED/ecu_led.c: 93:         gpio_pin_toggle_logic(&pin_obj);
  7654   0029A8  0E5D               	movlw	low led_toggle@pin_obj
  7655   0029AA  6E56               	movwf	gpio_pin_toggle_logic@config^0,c
  7656   0029AC  EC51  F012         	call	_gpio_pin_toggle_logic	;wreg free
  7657   0029B0                     i2l109:
  7658   0029B0  0012               	return		;funcret
  7659   0029B2                     __end_of_led_toggle:
  7660                           	callstack 0
  7661                           
  7662 ;; *************** function _gpio_pin_toggle_logic *****************
  7663 ;; Defined at:
  7664 ;;		line 125 in file "MCAL_Layer/GPIO/hal_gpio.c"
  7665 ;; Parameters:    Size  Location     Type
  7666 ;;  config          1    0[COMRAM] PTR const struct .
  7667 ;;		 -> buzzer(1), led_toggle@pin_obj(1), 
  7668 ;; Auto vars:     Size  Location     Type
  7669 ;;  retVal          1    0        unsigned char 
  7670 ;; Return value:  Size  Location     Type
  7671 ;;                  1    wreg      unsigned char 
  7672 ;; Registers used:
  7673 ;;		wreg, fsr2l, fsr2h, status,2, status,0, prodl, prodh
  7674 ;; Tracked objects:
  7675 ;;		On entry : 0/0
  7676 ;;		On exit  : 0/0
  7677 ;;		Unchanged: 0/0
  7678 ;; Data sizes:     COMRAM   BANK0   BANK1   BANK2   BANK3   BANK4   BANK5   BANK6   BANK7   BANK8   BANK9  BANK10  BANK1
      +1  BANK12  BANK13  BANK14  BANK15
  7679 ;;      Params:         1       0       0       0       0       0       0       0       0       0       0       0       
      +0       0       0       0       0
  7680 ;;      Locals:         0       0       0       0       0       0       0       0       0       0       0       0       
      +0       0       0       0       0
  7681 ;;      Temps:          4       0       0       0       0       0       0       0       0       0       0       0       
      +0       0       0       0       0
  7682 ;;      Totals:         5       0       0       0       0       0       0       0       0       0       0       0       
      +0       0       0       0       0
  7683 ;;Total ram usage:        5 bytes
  7684 ;; Hardware stack levels used: 1
  7685 ;; This function calls:
  7686 ;;		Nothing
  7687 ;; This function is called by:
  7688 ;;		_led_toggle
  7689 ;;		_TIMER0_IneterruptHandler
  7690 ;; This function uses a non-reentrant model
  7691 ;;
  7692                           
  7693                           	psect	text54
  7694   0024A2                     __ptext54:
  7695                           	callstack 0
  7696   0024A2                     _gpio_pin_toggle_logic:
  7697                           	callstack 20
  7698   0024A2                     
  7699                           ;MCAL_Layer/GPIO/hal_gpio.c: 127:     if((((void*)0) == config) || (config->pin > 8 -1))
  7700   0024A2  5056               	movf	gpio_pin_toggle_logic@config^0,w,c
  7701   0024A4  B4D8               	btfsc	status,2,c
  7702   0024A6  EF57  F012         	goto	i2u237_41
  7703   0024AA  EF59  F012         	goto	i2u237_40
  7704   0024AE                     i2u237_41:
  7705   0024AE  EF69  F012         	goto	i2l3492
  7706   0024B2                     i2u237_40:
  7707   0024B2  5056               	movf	gpio_pin_toggle_logic@config^0,w,c
  7708   0024B4  6ED9               	movwf	fsr2l,c
  7709   0024B6  6ADA               	clrf	fsr2h,c
  7710   0024B8  30DF               	rrcf	223,w,c
  7711   0024BA  32E8               	rrcf	wreg,f,c
  7712   0024BC  32E8               	rrcf	wreg,f,c
  7713   0024BE  0B07               	andlw	7
  7714   0024C0  6E57               	movwf	??_gpio_pin_toggle_logic^0,c
  7715   0024C2  0E07               	movlw	7
  7716   0024C4  6457               	cpfsgt	??_gpio_pin_toggle_logic^0,c
  7717   0024C6  EF67  F012         	goto	i2u238_41
  7718   0024CA  EF69  F012         	goto	i2u238_40
  7719   0024CE                     i2u238_41:
  7720   0024CE  EF6B  F012         	goto	i2l3494
  7721   0024D2                     i2u238_40:
  7722   0024D2                     i2l3492:
  7723                           
  7724                           ;MCAL_Layer/GPIO/hal_gpio.c: 130:     }else{
  7725   0024D2  EF91  F012         	goto	i2l250
  7726   0024D6                     i2l3494:
  7727                           
  7728                           ;MCAL_Layer/GPIO/hal_gpio.c: 131:         (*lat_registers[config->port] ^=((uint8)1<<con
      +                          fig->pin));
  7729   0024D6  5056               	movf	gpio_pin_toggle_logic@config^0,w,c
  7730   0024D8  6ED9               	movwf	fsr2l,c
  7731   0024DA  6ADA               	clrf	fsr2h,c
  7732   0024DC  30DF               	rrcf	223,w,c
  7733   0024DE  32E8               	rrcf	wreg,f,c
  7734   0024E0  32E8               	rrcf	wreg,f,c
  7735   0024E2  0B07               	andlw	7
  7736   0024E4  6E57               	movwf	??_gpio_pin_toggle_logic^0,c
  7737   0024E6  0E01               	movlw	1
  7738   0024E8  6E58               	movwf	(??_gpio_pin_toggle_logic+1)^0,c
  7739   0024EA  2A57               	incf	??_gpio_pin_toggle_logic^0,f,c
  7740   0024EC  EF7A  F012         	goto	i2u239_44
  7741   0024F0                     i2u239_45:
  7742   0024F0  90D8               	bcf	status,0,c
  7743   0024F2  3658               	rlcf	(??_gpio_pin_toggle_logic+1)^0,f,c
  7744   0024F4                     i2u239_44:
  7745   0024F4  2E57               	decfsz	??_gpio_pin_toggle_logic^0,f,c
  7746   0024F6  EF78  F012         	goto	i2u239_45
  7747   0024FA  5056               	movf	gpio_pin_toggle_logic@config^0,w,c
  7748   0024FC  6ED9               	movwf	fsr2l,c
  7749   0024FE  6ADA               	clrf	fsr2h,c
  7750   002500  50DF               	movf	223,w,c
  7751   002502  0B07               	andlw	7
  7752   002504  0D02               	mullw	2
  7753   002506  50F3               	movf	243,w,c
  7754   002508  0F8A               	addlw	low _lat_registers
  7755   00250A  6ED9               	movwf	fsr2l,c
  7756   00250C  6ADA               	clrf	fsr2h,c
  7757   00250E  CFDE F059          	movff	postinc2,??_gpio_pin_toggle_logic+2
  7758   002512  CFDD F05A          	movff	postdec2,??_gpio_pin_toggle_logic+3
  7759   002516  C059  FFD9         	movff	??_gpio_pin_toggle_logic+2,fsr2l
  7760   00251A  C05A  FFDA         	movff	??_gpio_pin_toggle_logic+3,fsr2h
  7761   00251E  5058               	movf	(??_gpio_pin_toggle_logic+1)^0,w,c
  7762   002520  1ADF               	xorwf	indf2,f,c
  7763   002522                     i2l250:
  7764   002522  0012               	return		;funcret
  7765   002524                     __end_of_gpio_pin_toggle_logic:
  7766                           	callstack 0
  7767                           
  7768 ;; *************** function _RB7_ISR *****************
  7769 ;; Defined at:
  7770 ;;		line 123 in file "MCAL_Layer/Interrupt/mcal_external_interrupt.c"
  7771 ;; Parameters:    Size  Location     Type
  7772 ;;  RB7_Source      1    wreg     unsigned char 
  7773 ;; Auto vars:     Size  Location     Type
  7774 ;;  RB7_Source      1   11[COMRAM] unsigned char 
  7775 ;; Return value:  Size  Location     Type
  7776 ;;                  1    wreg      void 
  7777 ;; Registers used:
  7778 ;;		wreg, fsr2l, fsr2h, status,2, status,0, pcl, pclath, pclatu, tosl, prodl, prodh, cstack
  7779 ;; Tracked objects:
  7780 ;;		On entry : 0/0
  7781 ;;		On exit  : 0/0
  7782 ;;		Unchanged: 0/0
  7783 ;; Data sizes:     COMRAM   BANK0   BANK1   BANK2   BANK3   BANK4   BANK5   BANK6   BANK7   BANK8   BANK9  BANK10  BANK1
      +1  BANK12  BANK13  BANK14  BANK15
  7784 ;;      Params:         0       0       0       0       0       0       0       0       0       0       0       0       
      +0       0       0       0       0
  7785 ;;      Locals:         1       0       0       0       0       0       0       0       0       0       0       0       
      +0       0       0       0       0
  7786 ;;      Temps:          0       0       0       0       0       0       0       0       0       0       0       0       
      +0       0       0       0       0
  7787 ;;      Totals:         1       0       0       0       0       0       0       0       0       0       0       0       
      +0       0       0       0       0
  7788 ;;Total ram usage:        1 bytes
  7789 ;; Hardware stack levels used: 1
  7790 ;; Hardware stack levels required when called: 3
  7791 ;; This function calls:
  7792 ;;		NULL
  7793 ;;		_RB0_PauseIneterruptHandler
  7794 ;;		_RB1_ClockIneterruptHandler
  7795 ;; This function is called by:
  7796 ;;		_InterruptManagerHigh
  7797 ;; This function uses a non-reentrant model
  7798 ;;
  7799                           
  7800                           	psect	text55
  7801   002C46                     __ptext55:
  7802                           	callstack 0
  7803   002C46                     _RB7_ISR:
  7804                           	callstack 20
  7805                           
  7806                           ;incstack = 0
  7807                           ;RB7_ISR@RB7_Source stored from wreg
  7808   002C46  6E61               	movwf	RB7_ISR@RB7_Source^0,c
  7809   002C48                     
  7810                           ;MCAL_Layer/Interrupt/mcal_external_interrupt.c: 125:     (INTCONbits.RBIF = 0);
  7811   002C48  90F2               	bcf	242,0,c	;volatile
  7812   002C4A                     
  7813                           ;MCAL_Layer/Interrupt/mcal_external_interrupt.c: 128:     if(0 == RB7_Source){
  7814   002C4A  5061               	movf	RB7_ISR@RB7_Source^0,w,c
  7815   002C4C  A4D8               	btfss	status,2,c
  7816   002C4E  EF2B  F016         	goto	i2u541_41
  7817   002C52  EF2D  F016         	goto	i2u541_40
  7818   002C56                     i2u541_41:
  7819   002C56  EF2F  F016         	goto	i2l5912
  7820   002C5A                     i2u541_40:
  7821   002C5A  EF4C  F016         	goto	i2l380
  7822   002C5E                     i2l5912:
  7823   002C5E  0461               	decf	RB7_ISR@RB7_Source^0,w,c
  7824   002C60  A4D8               	btfss	status,2,c
  7825   002C62  EF35  F016         	goto	i2u542_41
  7826   002C66  EF37  F016         	goto	i2u542_40
  7827   002C6A                     i2u542_41:
  7828   002C6A  EF4C  F016         	goto	i2l380
  7829   002C6E                     i2u542_40:
  7830   002C6E                     
  7831                           ;MCAL_Layer/Interrupt/mcal_external_interrupt.c: 134:         if(RB7_InterruptHandler_LO
      +                          W){
  7832   002C6E  500B               	movf	_RB7_InterruptHandler_LOW^0,w,c
  7833   002C70  100C               	iorwf	(_RB7_InterruptHandler_LOW+1)^0,w,c
  7834   002C72  B4D8               	btfsc	status,2,c
  7835   002C74  EF3E  F016         	goto	i2u543_41
  7836   002C78  EF40  F016         	goto	i2u543_40
  7837   002C7C                     i2u543_41:
  7838   002C7C  EF4C  F016         	goto	i2l380
  7839   002C80                     i2u543_40:
  7840   002C80                     
  7841                           ;MCAL_Layer/Interrupt/mcal_external_interrupt.c: 135:             RB7_InterruptHandler_L
      +                          OW();
  7842   002C80  D802               	call	i2u544_48
  7843   002C82  EF4C  F016         	goto	i2u544_49
  7844   002C86                     i2u544_48:
  7845   002C86  0005               	push	
  7846   002C88  6EFA               	movwf	pclath,c
  7847   002C8A  500B               	movf	_RB7_InterruptHandler_LOW^0,w,c
  7848   002C8C  6EFD               	movwf	tosl,c
  7849   002C8E  500C               	movf	(_RB7_InterruptHandler_LOW+1)^0,w,c
  7850   002C90  6EFE               	movwf	tosh,c
  7851   002C92  6AFF               	clrf	tosu,c
  7852   002C94  50FA               	movf	pclath,w,c
  7853   002C96  0012               	return		;indir
  7854   002C98                     i2u544_49:
  7855   002C98                     i2l380:
  7856   002C98  0012               	return		;funcret
  7857   002C9A                     __end_of_RB7_ISR:
  7858                           	callstack 0
  7859                           
  7860 ;; *************** function _RB6_ISR *****************
  7861 ;; Defined at:
  7862 ;;		line 107 in file "MCAL_Layer/Interrupt/mcal_external_interrupt.c"
  7863 ;; Parameters:    Size  Location     Type
  7864 ;;  RB6_Source      1    wreg     unsigned char 
  7865 ;; Auto vars:     Size  Location     Type
  7866 ;;  RB6_Source      1   11[COMRAM] unsigned char 
  7867 ;; Return value:  Size  Location     Type
  7868 ;;                  1    wreg      void 
  7869 ;; Registers used:
  7870 ;;		wreg, fsr2l, fsr2h, status,2, status,0, pcl, pclath, pclatu, tosl, prodl, prodh, cstack
  7871 ;; Tracked objects:
  7872 ;;		On entry : 0/0
  7873 ;;		On exit  : 0/0
  7874 ;;		Unchanged: 0/0
  7875 ;; Data sizes:     COMRAM   BANK0   BANK1   BANK2   BANK3   BANK4   BANK5   BANK6   BANK7   BANK8   BANK9  BANK10  BANK1
      +1  BANK12  BANK13  BANK14  BANK15
  7876 ;;      Params:         0       0       0       0       0       0       0       0       0       0       0       0       
      +0       0       0       0       0
  7877 ;;      Locals:         1       0       0       0       0       0       0       0       0       0       0       0       
      +0       0       0       0       0
  7878 ;;      Temps:          0       0       0       0       0       0       0       0       0       0       0       0       
      +0       0       0       0       0
  7879 ;;      Totals:         1       0       0       0       0       0       0       0       0       0       0       0       
      +0       0       0       0       0
  7880 ;;Total ram usage:        1 bytes
  7881 ;; Hardware stack levels used: 1
  7882 ;; Hardware stack levels required when called: 3
  7883 ;; This function calls:
  7884 ;;		NULL
  7885 ;;		_RB0_PauseIneterruptHandler
  7886 ;;		_RB1_ClockIneterruptHandler
  7887 ;; This function is called by:
  7888 ;;		_InterruptManagerHigh
  7889 ;; This function uses a non-reentrant model
  7890 ;;
  7891                           
  7892                           	psect	text56
  7893   002C9A                     __ptext56:
  7894                           	callstack 0
  7895   002C9A                     _RB6_ISR:
  7896                           	callstack 20
  7897                           
  7898                           ;incstack = 0
  7899                           ;RB6_ISR@RB6_Source stored from wreg
  7900   002C9A  6E61               	movwf	RB6_ISR@RB6_Source^0,c
  7901   002C9C                     
  7902                           ;MCAL_Layer/Interrupt/mcal_external_interrupt.c: 109:     (INTCONbits.RBIF = 0);
  7903   002C9C  90F2               	bcf	242,0,c	;volatile
  7904   002C9E                     
  7905                           ;MCAL_Layer/Interrupt/mcal_external_interrupt.c: 112:     if(0 == RB6_Source){
  7906   002C9E  5061               	movf	RB6_ISR@RB6_Source^0,w,c
  7907   002CA0  A4D8               	btfss	status,2,c
  7908   002CA2  EF55  F016         	goto	i2u537_41
  7909   002CA6  EF57  F016         	goto	i2u537_40
  7910   002CAA                     i2u537_41:
  7911   002CAA  EF59  F016         	goto	i2l5900
  7912   002CAE                     i2u537_40:
  7913   002CAE  EF76  F016         	goto	i2l372
  7914   002CB2                     i2l5900:
  7915   002CB2  0461               	decf	RB6_ISR@RB6_Source^0,w,c
  7916   002CB4  A4D8               	btfss	status,2,c
  7917   002CB6  EF5F  F016         	goto	i2u538_41
  7918   002CBA  EF61  F016         	goto	i2u538_40
  7919   002CBE                     i2u538_41:
  7920   002CBE  EF76  F016         	goto	i2l372
  7921   002CC2                     i2u538_40:
  7922   002CC2                     
  7923                           ;MCAL_Layer/Interrupt/mcal_external_interrupt.c: 118:         if(RB6_InterruptHandler_LO
      +                          W){
  7924   002CC2  500F               	movf	_RB6_InterruptHandler_LOW^0,w,c
  7925   002CC4  1010               	iorwf	(_RB6_InterruptHandler_LOW+1)^0,w,c
  7926   002CC6  B4D8               	btfsc	status,2,c
  7927   002CC8  EF68  F016         	goto	i2u539_41
  7928   002CCC  EF6A  F016         	goto	i2u539_40
  7929   002CD0                     i2u539_41:
  7930   002CD0  EF76  F016         	goto	i2l372
  7931   002CD4                     i2u539_40:
  7932   002CD4                     
  7933                           ;MCAL_Layer/Interrupt/mcal_external_interrupt.c: 119:             RB6_InterruptHandler_L
      +                          OW();
  7934   002CD4  D802               	call	i2u540_48
  7935   002CD6  EF76  F016         	goto	i2u540_49
  7936   002CDA                     i2u540_48:
  7937   002CDA  0005               	push	
  7938   002CDC  6EFA               	movwf	pclath,c
  7939   002CDE  500F               	movf	_RB6_InterruptHandler_LOW^0,w,c
  7940   002CE0  6EFD               	movwf	tosl,c
  7941   002CE2  5010               	movf	(_RB6_InterruptHandler_LOW+1)^0,w,c
  7942   002CE4  6EFE               	movwf	tosh,c
  7943   002CE6  6AFF               	clrf	tosu,c
  7944   002CE8  50FA               	movf	pclath,w,c
  7945   002CEA  0012               	return		;indir
  7946   002CEC                     i2u540_49:
  7947   002CEC                     i2l372:
  7948   002CEC  0012               	return		;funcret
  7949   002CEE                     __end_of_RB6_ISR:
  7950                           	callstack 0
  7951                           
  7952 ;; *************** function _RB5_ISR *****************
  7953 ;; Defined at:
  7954 ;;		line 91 in file "MCAL_Layer/Interrupt/mcal_external_interrupt.c"
  7955 ;; Parameters:    Size  Location     Type
  7956 ;;  RB5_Source      1    wreg     unsigned char 
  7957 ;; Auto vars:     Size  Location     Type
  7958 ;;  RB5_Source      1   11[COMRAM] unsigned char 
  7959 ;; Return value:  Size  Location     Type
  7960 ;;                  1    wreg      void 
  7961 ;; Registers used:
  7962 ;;		wreg, fsr2l, fsr2h, status,2, status,0, pcl, pclath, pclatu, tosl, prodl, prodh, cstack
  7963 ;; Tracked objects:
  7964 ;;		On entry : 0/0
  7965 ;;		On exit  : 0/0
  7966 ;;		Unchanged: 0/0
  7967 ;; Data sizes:     COMRAM   BANK0   BANK1   BANK2   BANK3   BANK4   BANK5   BANK6   BANK7   BANK8   BANK9  BANK10  BANK1
      +1  BANK12  BANK13  BANK14  BANK15
  7968 ;;      Params:         0       0       0       0       0       0       0       0       0       0       0       0       
      +0       0       0       0       0
  7969 ;;      Locals:         1       0       0       0       0       0       0       0       0       0       0       0       
      +0       0       0       0       0
  7970 ;;      Temps:          0       0       0       0       0       0       0       0       0       0       0       0       
      +0       0       0       0       0
  7971 ;;      Totals:         1       0       0       0       0       0       0       0       0       0       0       0       
      +0       0       0       0       0
  7972 ;;Total ram usage:        1 bytes
  7973 ;; Hardware stack levels used: 1
  7974 ;; Hardware stack levels required when called: 3
  7975 ;; This function calls:
  7976 ;;		NULL
  7977 ;;		_RB0_PauseIneterruptHandler
  7978 ;;		_RB1_ClockIneterruptHandler
  7979 ;; This function is called by:
  7980 ;;		_InterruptManagerHigh
  7981 ;; This function uses a non-reentrant model
  7982 ;;
  7983                           
  7984                           	psect	text57
  7985   002CEE                     __ptext57:
  7986                           	callstack 0
  7987   002CEE                     _RB5_ISR:
  7988                           	callstack 20
  7989                           
  7990                           ;incstack = 0
  7991                           ;RB5_ISR@RB5_Source stored from wreg
  7992   002CEE  6E61               	movwf	RB5_ISR@RB5_Source^0,c
  7993   002CF0                     
  7994                           ;MCAL_Layer/Interrupt/mcal_external_interrupt.c: 93:     (INTCONbits.RBIF = 0);
  7995   002CF0  90F2               	bcf	242,0,c	;volatile
  7996   002CF2                     
  7997                           ;MCAL_Layer/Interrupt/mcal_external_interrupt.c: 96:     if(0 == RB5_Source){
  7998   002CF2  5061               	movf	RB5_ISR@RB5_Source^0,w,c
  7999   002CF4  A4D8               	btfss	status,2,c
  8000   002CF6  EF7F  F016         	goto	i2u533_41
  8001   002CFA  EF81  F016         	goto	i2u533_40
  8002   002CFE                     i2u533_41:
  8003   002CFE  EF83  F016         	goto	i2l5888
  8004   002D02                     i2u533_40:
  8005   002D02  EFA0  F016         	goto	i2l364
  8006   002D06                     i2l5888:
  8007   002D06  0461               	decf	RB5_ISR@RB5_Source^0,w,c
  8008   002D08  A4D8               	btfss	status,2,c
  8009   002D0A  EF89  F016         	goto	i2u534_41
  8010   002D0E  EF8B  F016         	goto	i2u534_40
  8011   002D12                     i2u534_41:
  8012   002D12  EFA0  F016         	goto	i2l364
  8013   002D16                     i2u534_40:
  8014   002D16                     
  8015                           ;MCAL_Layer/Interrupt/mcal_external_interrupt.c: 102:         if(RB5_InterruptHandler_LO
      +                          W){
  8016   002D16  5013               	movf	_RB5_InterruptHandler_LOW^0,w,c
  8017   002D18  1014               	iorwf	(_RB5_InterruptHandler_LOW+1)^0,w,c
  8018   002D1A  B4D8               	btfsc	status,2,c
  8019   002D1C  EF92  F016         	goto	i2u535_41
  8020   002D20  EF94  F016         	goto	i2u535_40
  8021   002D24                     i2u535_41:
  8022   002D24  EFA0  F016         	goto	i2l364
  8023   002D28                     i2u535_40:
  8024   002D28                     
  8025                           ;MCAL_Layer/Interrupt/mcal_external_interrupt.c: 103:             RB5_InterruptHandler_L
      +                          OW();
  8026   002D28  D802               	call	i2u536_48
  8027   002D2A  EFA0  F016         	goto	i2u536_49
  8028   002D2E                     i2u536_48:
  8029   002D2E  0005               	push	
  8030   002D30  6EFA               	movwf	pclath,c
  8031   002D32  5013               	movf	_RB5_InterruptHandler_LOW^0,w,c
  8032   002D34  6EFD               	movwf	tosl,c
  8033   002D36  5014               	movf	(_RB5_InterruptHandler_LOW+1)^0,w,c
  8034   002D38  6EFE               	movwf	tosh,c
  8035   002D3A  6AFF               	clrf	tosu,c
  8036   002D3C  50FA               	movf	pclath,w,c
  8037   002D3E  0012               	return		;indir
  8038   002D40                     i2u536_49:
  8039   002D40                     i2l364:
  8040   002D40  0012               	return		;funcret
  8041   002D42                     __end_of_RB5_ISR:
  8042                           	callstack 0
  8043                           
  8044 ;; *************** function _RB4_ISR *****************
  8045 ;; Defined at:
  8046 ;;		line 75 in file "MCAL_Layer/Interrupt/mcal_external_interrupt.c"
  8047 ;; Parameters:    Size  Location     Type
  8048 ;;  RB4_Source      1    wreg     unsigned char 
  8049 ;; Auto vars:     Size  Location     Type
  8050 ;;  RB4_Source      1   11[COMRAM] unsigned char 
  8051 ;; Return value:  Size  Location     Type
  8052 ;;                  1    wreg      void 
  8053 ;; Registers used:
  8054 ;;		wreg, fsr2l, fsr2h, status,2, status,0, pcl, pclath, pclatu, tosl, prodl, prodh, cstack
  8055 ;; Tracked objects:
  8056 ;;		On entry : 0/0
  8057 ;;		On exit  : 0/0
  8058 ;;		Unchanged: 0/0
  8059 ;; Data sizes:     COMRAM   BANK0   BANK1   BANK2   BANK3   BANK4   BANK5   BANK6   BANK7   BANK8   BANK9  BANK10  BANK1
      +1  BANK12  BANK13  BANK14  BANK15
  8060 ;;      Params:         0       0       0       0       0       0       0       0       0       0       0       0       
      +0       0       0       0       0
  8061 ;;      Locals:         1       0       0       0       0       0       0       0       0       0       0       0       
      +0       0       0       0       0
  8062 ;;      Temps:          0       0       0       0       0       0       0       0       0       0       0       0       
      +0       0       0       0       0
  8063 ;;      Totals:         1       0       0       0       0       0       0       0       0       0       0       0       
      +0       0       0       0       0
  8064 ;;Total ram usage:        1 bytes
  8065 ;; Hardware stack levels used: 1
  8066 ;; Hardware stack levels required when called: 3
  8067 ;; This function calls:
  8068 ;;		NULL
  8069 ;;		_RB0_PauseIneterruptHandler
  8070 ;;		_RB1_ClockIneterruptHandler
  8071 ;; This function is called by:
  8072 ;;		_InterruptManagerHigh
  8073 ;; This function uses a non-reentrant model
  8074 ;;
  8075                           
  8076                           	psect	text58
  8077   002D42                     __ptext58:
  8078                           	callstack 0
  8079   002D42                     _RB4_ISR:
  8080                           	callstack 20
  8081                           
  8082                           ;incstack = 0
  8083                           ;RB4_ISR@RB4_Source stored from wreg
  8084   002D42  6E61               	movwf	RB4_ISR@RB4_Source^0,c
  8085   002D44                     
  8086                           ;MCAL_Layer/Interrupt/mcal_external_interrupt.c: 77:     (INTCONbits.RBIF = 0);
  8087   002D44  90F2               	bcf	242,0,c	;volatile
  8088   002D46                     
  8089                           ;MCAL_Layer/Interrupt/mcal_external_interrupt.c: 80:     if(0 == RB4_Source){
  8090   002D46  5061               	movf	RB4_ISR@RB4_Source^0,w,c
  8091   002D48  A4D8               	btfss	status,2,c
  8092   002D4A  EFA9  F016         	goto	i2u529_41
  8093   002D4E  EFAB  F016         	goto	i2u529_40
  8094   002D52                     i2u529_41:
  8095   002D52  EFAD  F016         	goto	i2l5876
  8096   002D56                     i2u529_40:
  8097   002D56  EFCA  F016         	goto	i2l356
  8098   002D5A                     i2l5876:
  8099   002D5A  0461               	decf	RB4_ISR@RB4_Source^0,w,c
  8100   002D5C  A4D8               	btfss	status,2,c
  8101   002D5E  EFB3  F016         	goto	i2u530_41
  8102   002D62  EFB5  F016         	goto	i2u530_40
  8103   002D66                     i2u530_41:
  8104   002D66  EFCA  F016         	goto	i2l356
  8105   002D6A                     i2u530_40:
  8106   002D6A                     
  8107                           ;MCAL_Layer/Interrupt/mcal_external_interrupt.c: 86:         if(RB4_InterruptHandler_LOW
      +                          ){
  8108   002D6A  5017               	movf	_RB4_InterruptHandler_LOW^0,w,c
  8109   002D6C  1018               	iorwf	(_RB4_InterruptHandler_LOW+1)^0,w,c
  8110   002D6E  B4D8               	btfsc	status,2,c
  8111   002D70  EFBC  F016         	goto	i2u531_41
  8112   002D74  EFBE  F016         	goto	i2u531_40
  8113   002D78                     i2u531_41:
  8114   002D78  EFCA  F016         	goto	i2l356
  8115   002D7C                     i2u531_40:
  8116   002D7C                     
  8117                           ;MCAL_Layer/Interrupt/mcal_external_interrupt.c: 87:             RB4_InterruptHandler_LO
      +                          W();
  8118   002D7C  D802               	call	i2u532_48
  8119   002D7E  EFCA  F016         	goto	i2u532_49
  8120   002D82                     i2u532_48:
  8121   002D82  0005               	push	
  8122   002D84  6EFA               	movwf	pclath,c
  8123   002D86  5017               	movf	_RB4_InterruptHandler_LOW^0,w,c
  8124   002D88  6EFD               	movwf	tosl,c
  8125   002D8A  5018               	movf	(_RB4_InterruptHandler_LOW+1)^0,w,c
  8126   002D8C  6EFE               	movwf	tosh,c
  8127   002D8E  6AFF               	clrf	tosu,c
  8128   002D90  50FA               	movf	pclath,w,c
  8129   002D92  0012               	return		;indir
  8130   002D94                     i2u532_49:
  8131   002D94                     i2l356:
  8132   002D94  0012               	return		;funcret
  8133   002D96                     __end_of_RB4_ISR:
  8134                           	callstack 0
  8135                           
  8136 ;; *************** function _RB0_PauseIneterruptHandler *****************
  8137 ;; Defined at:
  8138 ;;		line 224 in file "application.c"
  8139 ;; Parameters:    Size  Location     Type
  8140 ;;		None
  8141 ;; Auto vars:     Size  Location     Type
  8142 ;;  retVal          1    0        unsigned char 
  8143 ;; Return value:  Size  Location     Type
  8144 ;;                  1    wreg      void 
  8145 ;; Registers used:
  8146 ;;		wreg, fsr2l, fsr2h, status,2, status,0, cstack
  8147 ;; Tracked objects:
  8148 ;;		On entry : 0/0
  8149 ;;		On exit  : 0/0
  8150 ;;		Unchanged: 0/0
  8151 ;; Data sizes:     COMRAM   BANK0   BANK1   BANK2   BANK3   BANK4   BANK5   BANK6   BANK7   BANK8   BANK9  BANK10  BANK1
      +1  BANK12  BANK13  BANK14  BANK15
  8152 ;;      Params:         0       0       0       0       0       0       0       0       0       0       0       0       
      +0       0       0       0       0
  8153 ;;      Locals:         0       0       0       0       0       0       0       0       0       0       0       0       
      +0       0       0       0       0
  8154 ;;      Temps:          0       0       0       0       0       0       0       0       0       0       0       0       
      +0       0       0       0       0
  8155 ;;      Totals:         0       0       0       0       0       0       0       0       0       0       0       0       
      +0       0       0       0       0
  8156 ;;Total ram usage:        0 bytes
  8157 ;; Hardware stack levels used: 1
  8158 ;; Hardware stack levels required when called: 1
  8159 ;; This function calls:
  8160 ;;		_Data_EEPROM_Read_Byte
  8161 ;;		_Data_EEPROM_Write_Byte
  8162 ;; This function is called by:
  8163 ;;		_RB4_ISR
  8164 ;;		_RB5_ISR
  8165 ;;		_RB6_ISR
  8166 ;;		_RB7_ISR
  8167 ;; This function uses a non-reentrant model
  8168 ;;
  8169                           
  8170                           	psect	text59
  8171   001E42                     __ptext59:
  8172                           	callstack 0
  8173   001E42                     _RB0_PauseIneterruptHandler:
  8174                           	callstack 21
  8175   001E42                     
  8176                           ;application.c: 226:     if(1 == resume_flag){
  8177   001E42  0441               	decf	_resume_flag^0,w,c	;volatile
  8178   001E44  A4D8               	btfss	status,2,c
  8179   001E46  EF27  F00F         	goto	i2u318_41
  8180   001E4A  EF29  F00F         	goto	i2u318_40
  8181   001E4E                     i2u318_41:
  8182   001E4E  EF5F  F00F         	goto	i2l4282
  8183   001E52                     i2u318_40:
  8184   001E52                     
  8185                           ;application.c: 227:         resume_flag = 0;
  8186   001E52  0E00               	movlw	0
  8187   001E54  6E41               	movwf	_resume_flag^0,c	;volatile
  8188   001E56  0E00               	movlw	0
  8189   001E58  6E57               	movwf	(Data_EEPROM_Write_Byte@bADD+1)^0,c
  8190   001E5A  0E00               	movlw	0
  8191   001E5C  6E56               	movwf	Data_EEPROM_Write_Byte@bADD^0,c
  8192   001E5E  C03D  F058         	movff	_hours,Data_EEPROM_Write_Byte@bData	;volatile
  8193   001E62  EC5C  F017         	call	_Data_EEPROM_Write_Byte	;wreg free
  8194   001E66  0E00               	movlw	0
  8195   001E68  6E57               	movwf	(Data_EEPROM_Write_Byte@bADD+1)^0,c
  8196   001E6A  0E01               	movlw	1
  8197   001E6C  6E56               	movwf	Data_EEPROM_Write_Byte@bADD^0,c
  8198   001E6E  C03E  F058         	movff	_minutes,Data_EEPROM_Write_Byte@bData	;volatile
  8199   001E72  EC5C  F017         	call	_Data_EEPROM_Write_Byte	;wreg free
  8200   001E76  0E00               	movlw	0
  8201   001E78  6E57               	movwf	(Data_EEPROM_Write_Byte@bADD+1)^0,c
  8202   001E7A  0E02               	movlw	2
  8203   001E7C  6E56               	movwf	Data_EEPROM_Write_Byte@bADD^0,c
  8204   001E7E  C03F  F058         	movff	_seconds,Data_EEPROM_Write_Byte@bData	;volatile
  8205   001E82  EC5C  F017         	call	_Data_EEPROM_Write_Byte	;wreg free
  8206   001E86  0E00               	movlw	0
  8207   001E88  6E57               	movwf	(Data_EEPROM_Read_Byte@bADD+1)^0,c
  8208   001E8A  0E00               	movlw	0
  8209   001E8C  6E56               	movwf	Data_EEPROM_Read_Byte@bADD^0,c
  8210   001E8E  0E3C               	movlw	low _paused_hours
  8211   001E90  6E58               	movwf	Data_EEPROM_Read_Byte@bData^0,c
  8212   001E92  EC7F  F017         	call	_Data_EEPROM_Read_Byte	;wreg free
  8213   001E96  0E00               	movlw	0
  8214   001E98  6E57               	movwf	(Data_EEPROM_Read_Byte@bADD+1)^0,c
  8215   001E9A  0E01               	movlw	1
  8216   001E9C  6E56               	movwf	Data_EEPROM_Read_Byte@bADD^0,c
  8217   001E9E  0E3B               	movlw	low _paused_minutes
  8218   001EA0  6E58               	movwf	Data_EEPROM_Read_Byte@bData^0,c
  8219   001EA2  EC7F  F017         	call	_Data_EEPROM_Read_Byte	;wreg free
  8220   001EA6  0E00               	movlw	0
  8221   001EA8  6E57               	movwf	(Data_EEPROM_Read_Byte@bADD+1)^0,c
  8222   001EAA  0E02               	movlw	2
  8223   001EAC  6E56               	movwf	Data_EEPROM_Read_Byte@bADD^0,c
  8224   001EAE  0E3A               	movlw	low _paused_seconds
  8225   001EB0  6E58               	movwf	Data_EEPROM_Read_Byte@bData^0,c
  8226   001EB2  EC7F  F017         	call	_Data_EEPROM_Read_Byte	;wreg free
  8227   001EB6                     
  8228                           ;application.c: 234:         pause_flag = 1;
  8229   001EB6  0E01               	movlw	1
  8230   001EB8  6E2C               	movwf	_pause_flag^0,c	;volatile
  8231                           
  8232                           ;application.c: 235:     }
  8233   001EBA  EF83  F00F         	goto	i2l859
  8234   001EBE                     i2l4282:
  8235   001EBE  042C               	decf	_pause_flag^0,w,c	;volatile
  8236   001EC0  A4D8               	btfss	status,2,c
  8237   001EC2  EF65  F00F         	goto	i2u319_41
  8238   001EC6  EF67  F00F         	goto	i2u319_40
  8239   001ECA                     i2u319_41:
  8240   001ECA  EF83  F00F         	goto	i2l859
  8241   001ECE                     i2u319_40:
  8242   001ECE                     
  8243                           ;application.c: 237:         pause_flag = 0;
  8244   001ECE  0E00               	movlw	0
  8245   001ED0  6E2C               	movwf	_pause_flag^0,c	;volatile
  8246                           
  8247                           ;application.c: 238:         resume_flag = 1;
  8248   001ED2  0E01               	movlw	1
  8249   001ED4  6E41               	movwf	_resume_flag^0,c	;volatile
  8250   001ED6  0E00               	movlw	0
  8251   001ED8  6E57               	movwf	(Data_EEPROM_Read_Byte@bADD+1)^0,c
  8252   001EDA  0E00               	movlw	0
  8253   001EDC  6E56               	movwf	Data_EEPROM_Read_Byte@bADD^0,c
  8254   001EDE  0E3D               	movlw	low _hours
  8255   001EE0  6E58               	movwf	Data_EEPROM_Read_Byte@bData^0,c
  8256   001EE2  EC7F  F017         	call	_Data_EEPROM_Read_Byte	;wreg free
  8257   001EE6  0E00               	movlw	0
  8258   001EE8  6E57               	movwf	(Data_EEPROM_Read_Byte@bADD+1)^0,c
  8259   001EEA  0E01               	movlw	1
  8260   001EEC  6E56               	movwf	Data_EEPROM_Read_Byte@bADD^0,c
  8261   001EEE  0E3E               	movlw	low _minutes
  8262   001EF0  6E58               	movwf	Data_EEPROM_Read_Byte@bData^0,c
  8263   001EF2  EC7F  F017         	call	_Data_EEPROM_Read_Byte	;wreg free
  8264   001EF6  0E00               	movlw	0
  8265   001EF8  6E57               	movwf	(Data_EEPROM_Read_Byte@bADD+1)^0,c
  8266   001EFA  0E02               	movlw	2
  8267   001EFC  6E56               	movwf	Data_EEPROM_Read_Byte@bADD^0,c
  8268   001EFE  0E3F               	movlw	low _seconds
  8269   001F00  6E58               	movwf	Data_EEPROM_Read_Byte@bData^0,c
  8270   001F02  EC7F  F017         	call	_Data_EEPROM_Read_Byte	;wreg free
  8271   001F06                     i2l859:
  8272   001F06  0012               	return		;funcret
  8273   001F08                     __end_of_RB0_PauseIneterruptHandler:
  8274                           	callstack 0
  8275                           
  8276 ;; *************** function _RB1_ClockIneterruptHandler *****************
  8277 ;; Defined at:
  8278 ;;		line 262 in file "application.c"
  8279 ;; Parameters:    Size  Location     Type
  8280 ;;		None
  8281 ;; Auto vars:     Size  Location     Type
  8282 ;;  retVal          1    0        unsigned char 
  8283 ;; Return value:  Size  Location     Type
  8284 ;;                  1    wreg      void 
  8285 ;; Registers used:
  8286 ;;		wreg, fsr2l, fsr2h, status,2, status,0, prodl, prodh, cstack
  8287 ;; Tracked objects:
  8288 ;;		On entry : 0/0
  8289 ;;		On exit  : 0/0
  8290 ;;		Unchanged: 0/0
  8291 ;; Data sizes:     COMRAM   BANK0   BANK1   BANK2   BANK3   BANK4   BANK5   BANK6   BANK7   BANK8   BANK9  BANK10  BANK1
      +1  BANK12  BANK13  BANK14  BANK15
  8292 ;;      Params:         0       0       0       0       0       0       0       0       0       0       0       0       
      +0       0       0       0       0
  8293 ;;      Locals:         0       0       0       0       0       0       0       0       0       0       0       0       
      +0       0       0       0       0
  8294 ;;      Temps:          0       0       0       0       0       0       0       0       0       0       0       0       
      +0       0       0       0       0
  8295 ;;      Totals:         0       0       0       0       0       0       0       0       0       0       0       0       
      +0       0       0       0       0
  8296 ;;Total ram usage:        0 bytes
  8297 ;; Hardware stack levels used: 1
  8298 ;; Hardware stack levels required when called: 2
  8299 ;; This function calls:
  8300 ;;		_led_turn_off
  8301 ;;		_led_turn_on
  8302 ;; This function is called by:
  8303 ;;		_RB4_ISR
  8304 ;;		_RB5_ISR
  8305 ;;		_RB6_ISR
  8306 ;;		_RB7_ISR
  8307 ;; This function uses a non-reentrant model
  8308 ;;
  8309                           
  8310                           	psect	text60
  8311   00315A                     __ptext60:
  8312                           	callstack 0
  8313   00315A                     _RB1_ClockIneterruptHandler:
  8314                           	callstack 20
  8315   00315A                     
  8316                           ;application.c: 264:     mode_status = 2;
  8317   00315A  0E02               	movlw	2
  8318   00315C  6E40               	movwf	_mode_status^0,c	;volatile
  8319   00315E  0E4D               	movlw	low _clock_led
  8320   003160  6E5D               	movwf	led_turn_on@led^0,c
  8321   003162  EC4B  F013         	call	_led_turn_on	;wreg free
  8322   003166  0E4E               	movlw	low _timer_led
  8323   003168  6E5D               	movwf	led_turn_off@led^0,c
  8324   00316A  EC87  F013         	call	_led_turn_off	;wreg free
  8325   00316E  0E4F               	movlw	low _stopwatch_led
  8326   003170  6E5D               	movwf	led_turn_off@led^0,c
  8327   003172  EC87  F013         	call	_led_turn_off	;wreg free
  8328   003176  0012               	return		;funcret
  8329   003178                     __end_of_RB1_ClockIneterruptHandler:
  8330                           	callstack 0
  8331                           
  8332 ;; *************** function _Data_EEPROM_Write_Byte *****************
  8333 ;; Defined at:
  8334 ;;		line 20 in file "MCAL_Layer/EEPROM/hal_eeprom.c"
  8335 ;; Parameters:    Size  Location     Type
  8336 ;;  bADD            2    0[COMRAM] unsigned short 
  8337 ;;  bData           1    2[COMRAM] unsigned char 
  8338 ;; Auto vars:     Size  Location     Type
  8339 ;;  retVal          1    0        unsigned char 
  8340 ;;  General_Inte    1    3[COMRAM] unsigned char 
  8341 ;; Return value:  Size  Location     Type
  8342 ;;                  1    wreg      unsigned char 
  8343 ;; Registers used:
  8344 ;;		wreg, status,2, status,0
  8345 ;; Tracked objects:
  8346 ;;		On entry : 0/0
  8347 ;;		On exit  : 0/0
  8348 ;;		Unchanged: 0/0
  8349 ;; Data sizes:     COMRAM   BANK0   BANK1   BANK2   BANK3   BANK4   BANK5   BANK6   BANK7   BANK8   BANK9  BANK10  BANK1
      +1  BANK12  BANK13  BANK14  BANK15
  8350 ;;      Params:         3       0       0       0       0       0       0       0       0       0       0       0       
      +0       0       0       0       0
  8351 ;;      Locals:         1       0       0       0       0       0       0       0       0       0       0       0       
      +0       0       0       0       0
  8352 ;;      Temps:          0       0       0       0       0       0       0       0       0       0       0       0       
      +0       0       0       0       0
  8353 ;;      Totals:         4       0       0       0       0       0       0       0       0       0       0       0       
      +0       0       0       0       0
  8354 ;;Total ram usage:        4 bytes
  8355 ;; Hardware stack levels used: 1
  8356 ;; This function calls:
  8357 ;;		Nothing
  8358 ;; This function is called by:
  8359 ;;		_RB0_PauseIneterruptHandler
  8360 ;; This function uses a non-reentrant model
  8361 ;;
  8362                           
  8363                           	psect	text61
  8364   002EB8                     __ptext61:
  8365                           	callstack 0
  8366   002EB8                     _Data_EEPROM_Write_Byte:
  8367                           	callstack 21
  8368   002EB8                     
  8369                           ;MCAL_Layer/EEPROM/hal_eeprom.c: 23:     uint8 General_Interrupt_Status = INTCONbits.GIE
      +                          ;
  8370   002EB8  0E00               	movlw	0
  8371   002EBA  BEF2               	btfsc	242,7,c	;volatile
  8372   002EBC  0E01               	movlw	1
  8373   002EBE  6E59               	movwf	Data_EEPROM_Write_Byte@General_Interrupt_Status^0,c
  8374   002EC0                     
  8375                           ;MCAL_Layer/EEPROM/hal_eeprom.c: 25:     EEADRH = (uint8)(bADD >> 8) & 0x03;
  8376   002EC0  5057               	movf	(Data_EEPROM_Write_Byte@bADD+1)^0,w,c
  8377   002EC2  0B03               	andlw	3
  8378   002EC4  6EAA               	movwf	170,c	;volatile
  8379   002EC6                     
  8380                           ;MCAL_Layer/EEPROM/hal_eeprom.c: 26:     EEADR = (uint8)(bADD & 0xFF);
  8381   002EC6  C056  FFA9         	movff	Data_EEPROM_Write_Byte@bADD,4009	;volatile
  8382   002ECA                     
  8383                           ;MCAL_Layer/EEPROM/hal_eeprom.c: 28:     EEDATA = bData;
  8384   002ECA  C058  FFA8         	movff	Data_EEPROM_Write_Byte@bData,4008	;volatile
  8385   002ECE                     
  8386                           ;MCAL_Layer/EEPROM/hal_eeprom.c: 30:     EECON1bits.EEPGD = 0;
  8387   002ECE  9EA6               	bcf	166,7,c	;volsfr
  8388   002ED0                     
  8389                           ;MCAL_Layer/EEPROM/hal_eeprom.c: 31:     EECON1bits.CFGS = 0;
  8390   002ED0  9CA6               	bcf	166,6,c	;volsfr
  8391   002ED2                     
  8392                           ;MCAL_Layer/EEPROM/hal_eeprom.c: 33:     EECON1bits.WREN = 1;
  8393   002ED2  84A6               	bsf	166,2,c	;volsfr
  8394   002ED4                     
  8395                           ;MCAL_Layer/EEPROM/hal_eeprom.c: 35:     (INTCONbits.GIE = 0);
  8396   002ED4  9EF2               	bcf	242,7,c	;volatile
  8397   002ED6                     
  8398                           ;MCAL_Layer/EEPROM/hal_eeprom.c: 37:     EECON2 = 0x55;
  8399   002ED6  0E55               	movlw	85
  8400   002ED8  6EA7               	movwf	167,c	;volsfr
  8401   002EDA                     
  8402                           ;MCAL_Layer/EEPROM/hal_eeprom.c: 38:     EECON2 = 0xAA;
  8403   002EDA  0EAA               	movlw	170
  8404   002EDC  6EA7               	movwf	167,c	;volsfr
  8405   002EDE                     
  8406                           ;MCAL_Layer/EEPROM/hal_eeprom.c: 40:     EECON1bits.WR = 1;
  8407   002EDE  82A6               	bsf	166,1,c	;volsfr
  8408   002EE0                     i2l161:
  8409   002EE0  B2A6               	btfsc	166,1,c	;volsfr
  8410   002EE2  EF75  F017         	goto	i2u289_41
  8411   002EE6  EF77  F017         	goto	i2u289_40
  8412   002EEA                     i2u289_41:
  8413   002EEA  EF70  F017         	goto	i2l161
  8414   002EEE                     i2u289_40:
  8415   002EEE                     
  8416                           ;MCAL_Layer/EEPROM/hal_eeprom.c: 44:      EECON1bits.WREN = 0;
  8417   002EEE  94A6               	bcf	166,2,c	;volsfr
  8418                           
  8419                           ;MCAL_Layer/EEPROM/hal_eeprom.c: 46:      INTCONbits.GIE = General_Interrupt_Status;
  8420   002EF0  B059               	btfsc	Data_EEPROM_Write_Byte@General_Interrupt_Status^0,0,c
  8421   002EF2  D002               	bra	i2u290_45
  8422   002EF4  9EF2               	bcf	242,7,c	;volatile
  8423   002EF6  D001               	bra	i2u290_46
  8424   002EF8                     i2u290_45:
  8425   002EF8  8EF2               	bsf	242,7,c	;volatile
  8426   002EFA                     i2u290_46:
  8427   002EFA                     
  8428                           ;MCAL_Layer/EEPROM/hal_eeprom.c: 48:     return retVal;
  8429   002EFA  0E01               	movlw	1
  8430   002EFC  0012               	return		;funcret
  8431   002EFE                     __end_of_Data_EEPROM_Write_Byte:
  8432                           	callstack 0
  8433                           
  8434 ;; *************** function _Data_EEPROM_Read_Byte *****************
  8435 ;; Defined at:
  8436 ;;		line 58 in file "MCAL_Layer/EEPROM/hal_eeprom.c"
  8437 ;; Parameters:    Size  Location     Type
  8438 ;;  bADD            2    0[COMRAM] unsigned short 
  8439 ;;  bData           1    2[COMRAM] PTR unsigned char 
  8440 ;;		 -> paused_seconds(1), paused_minutes(1), paused_hours(1), seconds(1), 
  8441 ;;		 -> minutes(1), hours(1), 
  8442 ;; Auto vars:     Size  Location     Type
  8443 ;;  retVal          1    3[COMRAM] unsigned char 
  8444 ;; Return value:  Size  Location     Type
  8445 ;;                  1    wreg      unsigned char 
  8446 ;; Registers used:
  8447 ;;		wreg, fsr2l, fsr2h, status,2, status,0
  8448 ;; Tracked objects:
  8449 ;;		On entry : 0/0
  8450 ;;		On exit  : 0/0
  8451 ;;		Unchanged: 0/0
  8452 ;; Data sizes:     COMRAM   BANK0   BANK1   BANK2   BANK3   BANK4   BANK5   BANK6   BANK7   BANK8   BANK9  BANK10  BANK1
      +1  BANK12  BANK13  BANK14  BANK15
  8453 ;;      Params:         3       0       0       0       0       0       0       0       0       0       0       0       
      +0       0       0       0       0
  8454 ;;      Locals:         1       0       0       0       0       0       0       0       0       0       0       0       
      +0       0       0       0       0
  8455 ;;      Temps:          0       0       0       0       0       0       0       0       0       0       0       0       
      +0       0       0       0       0
  8456 ;;      Totals:         4       0       0       0       0       0       0       0       0       0       0       0       
      +0       0       0       0       0
  8457 ;;Total ram usage:        4 bytes
  8458 ;; Hardware stack levels used: 1
  8459 ;; This function calls:
  8460 ;;		Nothing
  8461 ;; This function is called by:
  8462 ;;		_RB0_PauseIneterruptHandler
  8463 ;; This function uses a non-reentrant model
  8464 ;;
  8465                           
  8466                           	psect	text62
  8467   002EFE                     __ptext62:
  8468                           	callstack 0
  8469   002EFE                     _Data_EEPROM_Read_Byte:
  8470                           	callstack 21
  8471   002EFE                     
  8472                           ;MCAL_Layer/EEPROM/hal_eeprom.c: 60:     if(((void*)0) == bData){
  8473   002EFE  5058               	movf	Data_EEPROM_Read_Byte@bData^0,w,c
  8474   002F00  A4D8               	btfss	status,2,c
  8475   002F02  EF85  F017         	goto	i2u291_41
  8476   002F06  EF87  F017         	goto	i2u291_40
  8477   002F0A                     i2u291_41:
  8478   002F0A  EF8B  F017         	goto	i2l3918
  8479   002F0E                     i2u291_40:
  8480   002F0E                     
  8481                           ;MCAL_Layer/EEPROM/hal_eeprom.c: 61:        retVal = (Std_ReturnType)0x00;
  8482   002F0E  0E00               	movlw	0
  8483   002F10  6E59               	movwf	Data_EEPROM_Read_Byte@retVal^0,c
  8484                           
  8485                           ;MCAL_Layer/EEPROM/hal_eeprom.c: 62:     }
  8486   002F12  EF9C  F017         	goto	i2l3936
  8487   002F16                     i2l3918:
  8488                           
  8489                           ;MCAL_Layer/EEPROM/hal_eeprom.c: 65:         EEADRH = (uint8)(bADD >> 8) & 0x03;
  8490   002F16  5057               	movf	(Data_EEPROM_Read_Byte@bADD+1)^0,w,c
  8491   002F18  0B03               	andlw	3
  8492   002F1A  6EAA               	movwf	170,c	;volatile
  8493   002F1C                     
  8494                           ;MCAL_Layer/EEPROM/hal_eeprom.c: 66:         EEADR = (uint8)(bADD & 0xFF);
  8495   002F1C  C056  FFA9         	movff	Data_EEPROM_Read_Byte@bADD,4009	;volatile
  8496   002F20                     
  8497                           ;MCAL_Layer/EEPROM/hal_eeprom.c: 68:         EECON1bits.EEPGD = 0;
  8498   002F20  9EA6               	bcf	166,7,c	;volsfr
  8499   002F22                     
  8500                           ;MCAL_Layer/EEPROM/hal_eeprom.c: 69:         EECON1bits.CFGS = 0;
  8501   002F22  9CA6               	bcf	166,6,c	;volsfr
  8502   002F24                     
  8503                           ;MCAL_Layer/EEPROM/hal_eeprom.c: 71:         EECON1bits.RD = 1;
  8504   002F24  80A6               	bsf	166,0,c	;volsfr
  8505   002F26                     
  8506                           ;MCAL_Layer/EEPROM/hal_eeprom.c: 73:         __nop();
  8507   002F26  0000               	nop	
  8508   002F28                     
  8509                           ;MCAL_Layer/EEPROM/hal_eeprom.c: 74:         __nop();
  8510   002F28  0000               	nop	
  8511   002F2A                     
  8512                           ;MCAL_Layer/EEPROM/hal_eeprom.c: 76:         *bData = EEDATA;
  8513   002F2A  5058               	movf	Data_EEPROM_Read_Byte@bData^0,w,c
  8514   002F2C  6ED9               	movwf	fsr2l,c
  8515   002F2E  6ADA               	clrf	fsr2h,c
  8516   002F30  CFA8 FFDF          	movff	4008,indf2	;volatile
  8517   002F34                     
  8518                           ;MCAL_Layer/EEPROM/hal_eeprom.c: 77:         retVal = (Std_ReturnType)0x01;
  8519   002F34  0E01               	movlw	1
  8520   002F36  6E59               	movwf	Data_EEPROM_Read_Byte@retVal^0,c
  8521   002F38                     i2l3936:
  8522                           
  8523                           ;MCAL_Layer/EEPROM/hal_eeprom.c: 79:     return retVal;
  8524   002F38  5059               	movf	Data_EEPROM_Read_Byte@retVal^0,w,c
  8525   002F3A  0012               	return		;funcret
  8526   002F3C                     __end_of_Data_EEPROM_Read_Byte:
  8527                           	callstack 0
  8528                           
  8529 ;; *************** function _INT2_ISR *****************
  8530 ;; Defined at:
  8531 ;;		line 64 in file "MCAL_Layer/Interrupt/mcal_external_interrupt.c"
  8532 ;; Parameters:    Size  Location     Type
  8533 ;;		None
  8534 ;; Auto vars:     Size  Location     Type
  8535 ;;		None
  8536 ;; Return value:  Size  Location     Type
  8537 ;;                  1    wreg      void 
  8538 ;; Registers used:
  8539 ;;		wreg, fsr2l, fsr2h, status,2, status,0, pcl, pclath, pclatu, tosl, prodl, prodh, cstack
  8540 ;; Tracked objects:
  8541 ;;		On entry : 0/0
  8542 ;;		On exit  : 0/0
  8543 ;;		Unchanged: 0/0
  8544 ;; Data sizes:     COMRAM   BANK0   BANK1   BANK2   BANK3   BANK4   BANK5   BANK6   BANK7   BANK8   BANK9  BANK10  BANK1
      +1  BANK12  BANK13  BANK14  BANK15
  8545 ;;      Params:         0       0       0       0       0       0       0       0       0       0       0       0       
      +0       0       0       0       0
  8546 ;;      Locals:         0       0       0       0       0       0       0       0       0       0       0       0       
      +0       0       0       0       0
  8547 ;;      Temps:          0       0       0       0       0       0       0       0       0       0       0       0       
      +0       0       0       0       0
  8548 ;;      Totals:         0       0       0       0       0       0       0       0       0       0       0       0       
      +0       0       0       0       0
  8549 ;;Total ram usage:        0 bytes
  8550 ;; Hardware stack levels used: 1
  8551 ;; Hardware stack levels required when called: 3
  8552 ;; This function calls:
  8553 ;;		NULL
  8554 ;;		_INT0_ResetIneterruptHandler
  8555 ;;		_INT1_CountUpIneterruptHandler
  8556 ;;		_INT2_CountDownIneterruptHandler
  8557 ;; This function is called by:
  8558 ;;		_InterruptManagerHigh
  8559 ;; This function uses a non-reentrant model
  8560 ;;
  8561                           
  8562                           	psect	text63
  8563   002FA0                     __ptext63:
  8564                           	callstack 0
  8565   002FA0                     _INT2_ISR:
  8566                           	callstack 20
  8567   002FA0                     
  8568                           ;MCAL_Layer/Interrupt/mcal_external_interrupt.c: 66:     (INTCON3bits.INT2IF = 0);
  8569   002FA0  92F0               	bcf	240,1,c	;volatile
  8570   002FA2                     
  8571                           ;MCAL_Layer/Interrupt/mcal_external_interrupt.c: 70:     if(INT2_InterruptHandler){
  8572   002FA2  501B               	movf	_INT2_InterruptHandler^0,w,c
  8573   002FA4  101C               	iorwf	(_INT2_InterruptHandler+1)^0,w,c
  8574   002FA6  B4D8               	btfsc	status,2,c
  8575   002FA8  EFD8  F017         	goto	i2u527_41
  8576   002FAC  EFDA  F017         	goto	i2u527_40
  8577   002FB0                     i2u527_41:
  8578   002FB0  EFE6  F017         	goto	i2l348
  8579   002FB4                     i2u527_40:
  8580   002FB4                     
  8581                           ;MCAL_Layer/Interrupt/mcal_external_interrupt.c: 71:         INT2_InterruptHandler();
  8582   002FB4  D802               	call	i2u528_48
  8583   002FB6  EFE6  F017         	goto	i2u528_49
  8584   002FBA                     i2u528_48:
  8585   002FBA  0005               	push	
  8586   002FBC  6EFA               	movwf	pclath,c
  8587   002FBE  501B               	movf	_INT2_InterruptHandler^0,w,c
  8588   002FC0  6EFD               	movwf	tosl,c
  8589   002FC2  501C               	movf	(_INT2_InterruptHandler+1)^0,w,c
  8590   002FC4  6EFE               	movwf	tosh,c
  8591   002FC6  6AFF               	clrf	tosu,c
  8592   002FC8  50FA               	movf	pclath,w,c
  8593   002FCA  0012               	return		;indir
  8594   002FCC                     i2u528_49:
  8595   002FCC                     i2l348:
  8596   002FCC  0012               	return		;funcret
  8597   002FCE                     __end_of_INT2_ISR:
  8598                           	callstack 0
  8599                           
  8600 ;; *************** function _INT1_ISR *****************
  8601 ;; Defined at:
  8602 ;;		line 54 in file "MCAL_Layer/Interrupt/mcal_external_interrupt.c"
  8603 ;; Parameters:    Size  Location     Type
  8604 ;;		None
  8605 ;; Auto vars:     Size  Location     Type
  8606 ;;		None
  8607 ;; Return value:  Size  Location     Type
  8608 ;;                  1    wreg      void 
  8609 ;; Registers used:
  8610 ;;		wreg, fsr2l, fsr2h, status,2, status,0, pcl, pclath, pclatu, tosl, prodl, prodh, cstack
  8611 ;; Tracked objects:
  8612 ;;		On entry : 0/0
  8613 ;;		On exit  : 0/0
  8614 ;;		Unchanged: 0/0
  8615 ;; Data sizes:     COMRAM   BANK0   BANK1   BANK2   BANK3   BANK4   BANK5   BANK6   BANK7   BANK8   BANK9  BANK10  BANK1
      +1  BANK12  BANK13  BANK14  BANK15
  8616 ;;      Params:         0       0       0       0       0       0       0       0       0       0       0       0       
      +0       0       0       0       0
  8617 ;;      Locals:         0       0       0       0       0       0       0       0       0       0       0       0       
      +0       0       0       0       0
  8618 ;;      Temps:          0       0       0       0       0       0       0       0       0       0       0       0       
      +0       0       0       0       0
  8619 ;;      Totals:         0       0       0       0       0       0       0       0       0       0       0       0       
      +0       0       0       0       0
  8620 ;;Total ram usage:        0 bytes
  8621 ;; Hardware stack levels used: 1
  8622 ;; Hardware stack levels required when called: 3
  8623 ;; This function calls:
  8624 ;;		NULL
  8625 ;;		_INT0_ResetIneterruptHandler
  8626 ;;		_INT1_CountUpIneterruptHandler
  8627 ;;		_INT2_CountDownIneterruptHandler
  8628 ;; This function is called by:
  8629 ;;		_InterruptManagerHigh
  8630 ;; This function uses a non-reentrant model
  8631 ;;
  8632                           
  8633                           	psect	text64
  8634   002FCE                     __ptext64:
  8635                           	callstack 0
  8636   002FCE                     _INT1_ISR:
  8637                           	callstack 20
  8638   002FCE                     
  8639                           ;MCAL_Layer/Interrupt/mcal_external_interrupt.c: 56:     (INTCON3bits.INT1IF = 0);
  8640   002FCE  90F0               	bcf	240,0,c	;volatile
  8641   002FD0                     
  8642                           ;MCAL_Layer/Interrupt/mcal_external_interrupt.c: 60:     if(INT1_InterruptHandler){
  8643   002FD0  501D               	movf	_INT1_InterruptHandler^0,w,c
  8644   002FD2  101E               	iorwf	(_INT1_InterruptHandler+1)^0,w,c
  8645   002FD4  B4D8               	btfsc	status,2,c
  8646   002FD6  EFEF  F017         	goto	i2u525_41
  8647   002FDA  EFF1  F017         	goto	i2u525_40
  8648   002FDE                     i2u525_41:
  8649   002FDE  EFFD  F017         	goto	i2l344
  8650   002FE2                     i2u525_40:
  8651   002FE2                     
  8652                           ;MCAL_Layer/Interrupt/mcal_external_interrupt.c: 61:         INT1_InterruptHandler();
  8653   002FE2  D802               	call	i2u526_48
  8654   002FE4  EFFD  F017         	goto	i2u526_49
  8655   002FE8                     i2u526_48:
  8656   002FE8  0005               	push	
  8657   002FEA  6EFA               	movwf	pclath,c
  8658   002FEC  501D               	movf	_INT1_InterruptHandler^0,w,c
  8659   002FEE  6EFD               	movwf	tosl,c
  8660   002FF0  501E               	movf	(_INT1_InterruptHandler+1)^0,w,c
  8661   002FF2  6EFE               	movwf	tosh,c
  8662   002FF4  6AFF               	clrf	tosu,c
  8663   002FF6  50FA               	movf	pclath,w,c
  8664   002FF8  0012               	return		;indir
  8665   002FFA                     i2u526_49:
  8666   002FFA                     i2l344:
  8667   002FFA  0012               	return		;funcret
  8668   002FFC                     __end_of_INT1_ISR:
  8669                           	callstack 0
  8670                           
  8671 ;; *************** function _INT0_ISR *****************
  8672 ;; Defined at:
  8673 ;;		line 44 in file "MCAL_Layer/Interrupt/mcal_external_interrupt.c"
  8674 ;; Parameters:    Size  Location     Type
  8675 ;;		None
  8676 ;; Auto vars:     Size  Location     Type
  8677 ;;		None
  8678 ;; Return value:  Size  Location     Type
  8679 ;;                  1    wreg      void 
  8680 ;; Registers used:
  8681 ;;		wreg, fsr2l, fsr2h, status,2, status,0, pcl, pclath, pclatu, tosl, prodl, prodh, cstack
  8682 ;; Tracked objects:
  8683 ;;		On entry : 0/0
  8684 ;;		On exit  : 0/0
  8685 ;;		Unchanged: 0/0
  8686 ;; Data sizes:     COMRAM   BANK0   BANK1   BANK2   BANK3   BANK4   BANK5   BANK6   BANK7   BANK8   BANK9  BANK10  BANK1
      +1  BANK12  BANK13  BANK14  BANK15
  8687 ;;      Params:         0       0       0       0       0       0       0       0       0       0       0       0       
      +0       0       0       0       0
  8688 ;;      Locals:         0       0       0       0       0       0       0       0       0       0       0       0       
      +0       0       0       0       0
  8689 ;;      Temps:          0       0       0       0       0       0       0       0       0       0       0       0       
      +0       0       0       0       0
  8690 ;;      Totals:         0       0       0       0       0       0       0       0       0       0       0       0       
      +0       0       0       0       0
  8691 ;;Total ram usage:        0 bytes
  8692 ;; Hardware stack levels used: 1
  8693 ;; Hardware stack levels required when called: 3
  8694 ;; This function calls:
  8695 ;;		NULL
  8696 ;;		_INT0_ResetIneterruptHandler
  8697 ;;		_INT1_CountUpIneterruptHandler
  8698 ;;		_INT2_CountDownIneterruptHandler
  8699 ;; This function is called by:
  8700 ;;		_InterruptManagerHigh
  8701 ;; This function uses a non-reentrant model
  8702 ;;
  8703                           
  8704                           	psect	text65
  8705   002FFC                     __ptext65:
  8706                           	callstack 0
  8707   002FFC                     _INT0_ISR:
  8708                           	callstack 20
  8709   002FFC                     
  8710                           ;MCAL_Layer/Interrupt/mcal_external_interrupt.c: 46:     (INTCONbits.INT0IF = 0);
  8711   002FFC  92F2               	bcf	242,1,c	;volatile
  8712   002FFE                     
  8713                           ;MCAL_Layer/Interrupt/mcal_external_interrupt.c: 50:     if(INT0_InterruptHandler){
  8714   002FFE  501F               	movf	_INT0_InterruptHandler^0,w,c
  8715   003000  1020               	iorwf	(_INT0_InterruptHandler+1)^0,w,c
  8716   003002  B4D8               	btfsc	status,2,c
  8717   003004  EF06  F018         	goto	i2u523_41
  8718   003008  EF08  F018         	goto	i2u523_40
  8719   00300C                     i2u523_41:
  8720   00300C  EF14  F018         	goto	i2l340
  8721   003010                     i2u523_40:
  8722   003010                     
  8723                           ;MCAL_Layer/Interrupt/mcal_external_interrupt.c: 51:         INT0_InterruptHandler();
  8724   003010  D802               	call	i2u524_48
  8725   003012  EF14  F018         	goto	i2u524_49
  8726   003016                     i2u524_48:
  8727   003016  0005               	push	
  8728   003018  6EFA               	movwf	pclath,c
  8729   00301A  501F               	movf	_INT0_InterruptHandler^0,w,c
  8730   00301C  6EFD               	movwf	tosl,c
  8731   00301E  5020               	movf	(_INT0_InterruptHandler+1)^0,w,c
  8732   003020  6EFE               	movwf	tosh,c
  8733   003022  6AFF               	clrf	tosu,c
  8734   003024  50FA               	movf	pclath,w,c
  8735   003026  0012               	return		;indir
  8736   003028                     i2u524_49:
  8737   003028                     i2l340:
  8738   003028  0012               	return		;funcret
  8739   00302A                     __end_of_INT0_ISR:
  8740                           	callstack 0
  8741                           
  8742 ;; *************** function _INT1_CountUpIneterruptHandler *****************
  8743 ;; Defined at:
  8744 ;;		line 245 in file "application.c"
  8745 ;; Parameters:    Size  Location     Type
  8746 ;;		None
  8747 ;; Auto vars:     Size  Location     Type
  8748 ;;  retVal          1    0        unsigned char 
  8749 ;; Return value:  Size  Location     Type
  8750 ;;                  1    wreg      void 
  8751 ;; Registers used:
  8752 ;;		wreg, fsr2l, fsr2h, status,2, status,0, prodl, prodh, cstack
  8753 ;; Tracked objects:
  8754 ;;		On entry : 0/0
  8755 ;;		On exit  : 0/0
  8756 ;;		Unchanged: 0/0
  8757 ;; Data sizes:     COMRAM   BANK0   BANK1   BANK2   BANK3   BANK4   BANK5   BANK6   BANK7   BANK8   BANK9  BANK10  BANK1
      +1  BANK12  BANK13  BANK14  BANK15
  8758 ;;      Params:         0       0       0       0       0       0       0       0       0       0       0       0       
      +0       0       0       0       0
  8759 ;;      Locals:         0       0       0       0       0       0       0       0       0       0       0       0       
      +0       0       0       0       0
  8760 ;;      Temps:          0       0       0       0       0       0       0       0       0       0       0       0       
      +0       0       0       0       0
  8761 ;;      Totals:         0       0       0       0       0       0       0       0       0       0       0       0       
      +0       0       0       0       0
  8762 ;;Total ram usage:        0 bytes
  8763 ;; Hardware stack levels used: 1
  8764 ;; Hardware stack levels required when called: 2
  8765 ;; This function calls:
  8766 ;;		_led_turn_off
  8767 ;;		_led_turn_on
  8768 ;; This function is called by:
  8769 ;;		_INT0_ISR
  8770 ;;		_INT1_ISR
  8771 ;;		_INT2_ISR
  8772 ;; This function uses a non-reentrant model
  8773 ;;
  8774                           
  8775                           	psect	text66
  8776   003178                     __ptext66:
  8777                           	callstack 0
  8778   003178                     _INT1_CountUpIneterruptHandler:
  8779                           	callstack 20
  8780   003178                     
  8781                           ;application.c: 247:     mode_status = 1;
  8782   003178  0E01               	movlw	1
  8783   00317A  6E40               	movwf	_mode_status^0,c	;volatile
  8784   00317C  0E4F               	movlw	low _stopwatch_led
  8785   00317E  6E5D               	movwf	led_turn_on@led^0,c
  8786   003180  EC4B  F013         	call	_led_turn_on	;wreg free
  8787   003184  0E4E               	movlw	low _timer_led
  8788   003186  6E5D               	movwf	led_turn_off@led^0,c
  8789   003188  EC87  F013         	call	_led_turn_off	;wreg free
  8790   00318C  0E4D               	movlw	low _clock_led
  8791   00318E  6E5D               	movwf	led_turn_off@led^0,c
  8792   003190  EC87  F013         	call	_led_turn_off	;wreg free
  8793   003194  0012               	return		;funcret
  8794   003196                     __end_of_INT1_CountUpIneterruptHandler:
  8795                           	callstack 0
  8796                           
  8797 ;; *************** function _INT0_ResetIneterruptHandler *****************
  8798 ;; Defined at:
  8799 ;;		line 218 in file "application.c"
  8800 ;; Parameters:    Size  Location     Type
  8801 ;;		None
  8802 ;; Auto vars:     Size  Location     Type
  8803 ;;		None
  8804 ;; Return value:  Size  Location     Type
  8805 ;;                  1    wreg      void 
  8806 ;; Registers used:
  8807 ;;		wreg, status,2
  8808 ;; Tracked objects:
  8809 ;;		On entry : 0/0
  8810 ;;		On exit  : 0/0
  8811 ;;		Unchanged: 0/0
  8812 ;; Data sizes:     COMRAM   BANK0   BANK1   BANK2   BANK3   BANK4   BANK5   BANK6   BANK7   BANK8   BANK9  BANK10  BANK1
      +1  BANK12  BANK13  BANK14  BANK15
  8813 ;;      Params:         0       0       0       0       0       0       0       0       0       0       0       0       
      +0       0       0       0       0
  8814 ;;      Locals:         0       0       0       0       0       0       0       0       0       0       0       0       
      +0       0       0       0       0
  8815 ;;      Temps:          0       0       0       0       0       0       0       0       0       0       0       0       
      +0       0       0       0       0
  8816 ;;      Totals:         0       0       0       0       0       0       0       0       0       0       0       0       
      +0       0       0       0       0
  8817 ;;Total ram usage:        0 bytes
  8818 ;; Hardware stack levels used: 1
  8819 ;; This function calls:
  8820 ;;		Nothing
  8821 ;; This function is called by:
  8822 ;;		_INT0_ISR
  8823 ;;		_INT1_ISR
  8824 ;;		_INT2_ISR
  8825 ;; This function uses a non-reentrant model
  8826 ;;
  8827                           
  8828                           	psect	text67
  8829   00325A                     __ptext67:
  8830                           	callstack 0
  8831   00325A                     _INT0_ResetIneterruptHandler:
  8832                           	callstack 22
  8833   00325A                     
  8834                           ;application.c: 219:     hours = 0;
  8835   00325A  0E00               	movlw	0
  8836   00325C  6E3D               	movwf	_hours^0,c	;volatile
  8837                           
  8838                           ;application.c: 220:     minutes = 0;
  8839   00325E  0E00               	movlw	0
  8840   003260  6E3E               	movwf	_minutes^0,c	;volatile
  8841                           
  8842                           ;application.c: 221:     seconds = 0;
  8843   003262  0E00               	movlw	0
  8844   003264  6E3F               	movwf	_seconds^0,c	;volatile
  8845   003266  0012               	return		;funcret
  8846   003268                     __end_of_INT0_ResetIneterruptHandler:
  8847                           	callstack 0
  8848                           
  8849 ;; *************** function _INT2_CountDownIneterruptHandler *****************
  8850 ;; Defined at:
  8851 ;;		line 253 in file "application.c"
  8852 ;; Parameters:    Size  Location     Type
  8853 ;;		None
  8854 ;; Auto vars:     Size  Location     Type
  8855 ;;  retVal          1    0        unsigned char 
  8856 ;; Return value:  Size  Location     Type
  8857 ;;                  1    wreg      void 
  8858 ;; Registers used:
  8859 ;;		wreg, fsr2l, fsr2h, status,2, status,0, prodl, prodh, cstack
  8860 ;; Tracked objects:
  8861 ;;		On entry : 0/0
  8862 ;;		On exit  : 0/0
  8863 ;;		Unchanged: 0/0
  8864 ;; Data sizes:     COMRAM   BANK0   BANK1   BANK2   BANK3   BANK4   BANK5   BANK6   BANK7   BANK8   BANK9  BANK10  BANK1
      +1  BANK12  BANK13  BANK14  BANK15
  8865 ;;      Params:         0       0       0       0       0       0       0       0       0       0       0       0       
      +0       0       0       0       0
  8866 ;;      Locals:         0       0       0       0       0       0       0       0       0       0       0       0       
      +0       0       0       0       0
  8867 ;;      Temps:          0       0       0       0       0       0       0       0       0       0       0       0       
      +0       0       0       0       0
  8868 ;;      Totals:         0       0       0       0       0       0       0       0       0       0       0       0       
      +0       0       0       0       0
  8869 ;;Total ram usage:        0 bytes
  8870 ;; Hardware stack levels used: 1
  8871 ;; Hardware stack levels required when called: 2
  8872 ;; This function calls:
  8873 ;;		_led_turn_off
  8874 ;;		_led_turn_on
  8875 ;; This function is called by:
  8876 ;;		_INT0_ISR
  8877 ;;		_INT1_ISR
  8878 ;;		_INT2_ISR
  8879 ;; This function uses a non-reentrant model
  8880 ;;
  8881                           
  8882                           	psect	text68
  8883   003196                     __ptext68:
  8884                           	callstack 0
  8885   003196                     _INT2_CountDownIneterruptHandler:
  8886                           	callstack 20
  8887   003196                     
  8888                           ;application.c: 255:     mode_status = 0;
  8889   003196  0E00               	movlw	0
  8890   003198  6E40               	movwf	_mode_status^0,c	;volatile
  8891   00319A  0E4E               	movlw	low _timer_led
  8892   00319C  6E5D               	movwf	led_turn_on@led^0,c
  8893   00319E  EC4B  F013         	call	_led_turn_on	;wreg free
  8894   0031A2  0E4F               	movlw	low _stopwatch_led
  8895   0031A4  6E5D               	movwf	led_turn_off@led^0,c
  8896   0031A6  EC87  F013         	call	_led_turn_off	;wreg free
  8897   0031AA  0E4D               	movlw	low _clock_led
  8898   0031AC  6E5D               	movwf	led_turn_off@led^0,c
  8899   0031AE  EC87  F013         	call	_led_turn_off	;wreg free
  8900   0031B2  0012               	return		;funcret
  8901   0031B4                     __end_of_INT2_CountDownIneterruptHandler:
  8902                           	callstack 0
  8903                           
  8904 ;; *************** function _led_turn_on *****************
  8905 ;; Defined at:
  8906 ;;		line 39 in file "ECU_Layer/LED/ecu_led.c"
  8907 ;; Parameters:    Size  Location     Type
  8908 ;;  led             1    7[COMRAM] PTR const struct .
  8909 ;;		 -> clock_led(1), timer_led(1), stopwatch_led(1), 
  8910 ;; Auto vars:     Size  Location     Type
  8911 ;;  pin_obj         1   10[COMRAM] struct .
  8912 ;;  retVal          1    9[COMRAM] unsigned char 
  8913 ;; Return value:  Size  Location     Type
  8914 ;;                  1    wreg      unsigned char 
  8915 ;; Registers used:
  8916 ;;		wreg, fsr2l, fsr2h, status,2, status,0, prodl, prodh, cstack
  8917 ;; Tracked objects:
  8918 ;;		On entry : 0/0
  8919 ;;		On exit  : 0/0
  8920 ;;		Unchanged: 0/0
  8921 ;; Data sizes:     COMRAM   BANK0   BANK1   BANK2   BANK3   BANK4   BANK5   BANK6   BANK7   BANK8   BANK9  BANK10  BANK1
      +1  BANK12  BANK13  BANK14  BANK15
  8922 ;;      Params:         1       0       0       0       0       0       0       0       0       0       0       0       
      +0       0       0       0       0
  8923 ;;      Locals:         2       0       0       0       0       0       0       0       0       0       0       0       
      +0       0       0       0       0
  8924 ;;      Temps:          1       0       0       0       0       0       0       0       0       0       0       0       
      +0       0       0       0       0
  8925 ;;      Totals:         4       0       0       0       0       0       0       0       0       0       0       0       
      +0       0       0       0       0
  8926 ;;Total ram usage:        4 bytes
  8927 ;; Hardware stack levels used: 1
  8928 ;; Hardware stack levels required when called: 1
  8929 ;; This function calls:
  8930 ;;		i2_gpio_pin_write_logic
  8931 ;; This function is called by:
  8932 ;;		_INT1_CountUpIneterruptHandler
  8933 ;;		_INT2_CountDownIneterruptHandler
  8934 ;;		_RB1_ClockIneterruptHandler
  8935 ;; This function uses a non-reentrant model
  8936 ;;
  8937                           
  8938                           	psect	text69
  8939   002696                     __ptext69:
  8940                           	callstack 0
  8941   002696                     _led_turn_on:
  8942                           	callstack 20
  8943   002696                     
  8944                           ;ECU_Layer/LED/ecu_led.c: 41:     if(((void*)0) == led){
  8945   002696  505D               	movf	led_turn_on@led^0,w,c
  8946   002698  A4D8               	btfss	status,2,c
  8947   00269A  EF51  F013         	goto	i2u494_41
  8948   00269E  EF53  F013         	goto	i2u494_40
  8949   0026A2                     i2u494_41:
  8950   0026A2  EF57  F013         	goto	i2l91
  8951   0026A6                     i2u494_40:
  8952   0026A6                     
  8953                           ;ECU_Layer/LED/ecu_led.c: 42:         retVal = (Std_ReturnType)0x00;
  8954   0026A6  0E00               	movlw	0
  8955   0026A8  6E5F               	movwf	led_turn_on@retVal^0,c
  8956                           
  8957                           ;ECU_Layer/LED/ecu_led.c: 43:     }else{
  8958   0026AA  EF85  F013         	goto	i2l5440
  8959   0026AE                     i2l91:
  8960                           
  8961                           ;ECU_Layer/LED/ecu_led.c: 44:         pin_config_t pin_obj = {.port = led->port,
  8962   0026AE  C02F  F060         	movff	led_turn_on@F3072,led_turn_on@pin_obj
  8963   0026B2  505D               	movf	led_turn_on@led^0,w,c
  8964   0026B4  6ED9               	movwf	fsr2l,c
  8965   0026B6  6ADA               	clrf	fsr2h,c
  8966   0026B8  50DF               	movf	223,w,c
  8967   0026BA  0B07               	andlw	7
  8968   0026BC  6E5E               	movwf	??_led_turn_on^0,c
  8969   0026BE  5060               	movf	led_turn_on@pin_obj^0,w,c
  8970   0026C0  185E               	xorwf	??_led_turn_on^0,w,c
  8971   0026C2  0BF8               	andlw	-8
  8972   0026C4  185E               	xorwf	??_led_turn_on^0,w,c
  8973   0026C6  6E60               	movwf	led_turn_on@pin_obj^0,c
  8974   0026C8  505D               	movf	led_turn_on@led^0,w,c
  8975   0026CA  6ED9               	movwf	fsr2l,c
  8976   0026CC  6ADA               	clrf	fsr2h,c
  8977   0026CE  30DF               	rrcf	223,w,c
  8978   0026D0  32E8               	rrcf	wreg,f,c
  8979   0026D2  32E8               	rrcf	wreg,f,c
  8980   0026D4  0B07               	andlw	7
  8981   0026D6  6E5E               	movwf	??_led_turn_on^0,c
  8982   0026D8  465E               	rlncf	??_led_turn_on^0,f,c
  8983   0026DA  465E               	rlncf	??_led_turn_on^0,f,c
  8984   0026DC  465E               	rlncf	??_led_turn_on^0,f,c
  8985   0026DE  5060               	movf	led_turn_on@pin_obj^0,w,c
  8986   0026E0  185E               	xorwf	??_led_turn_on^0,w,c
  8987   0026E2  0BC7               	andlw	-57
  8988   0026E4  185E               	xorwf	??_led_turn_on^0,w,c
  8989   0026E6  6E60               	movwf	led_turn_on@pin_obj^0,c
  8990   0026E8  505D               	movf	led_turn_on@led^0,w,c
  8991   0026EA  6ED9               	movwf	fsr2l,c
  8992   0026EC  6ADA               	clrf	fsr2h,c
  8993   0026EE  ACDF               	btfss	indf2,6,c
  8994   0026F0  D002               	bra	i2u495_45
  8995   0026F2  8C60               	bsf	led_turn_on@pin_obj^0,6,c
  8996   0026F4  D001               	bra	i2u495_47
  8997   0026F6                     i2u495_45:
  8998   0026F6  9C60               	bcf	led_turn_on@pin_obj^0,6,c
  8999   0026F8                     i2u495_47:
  9000   0026F8  9E60               	bcf	led_turn_on@pin_obj^0,7,c
  9001   0026FA                     
  9002                           ;ECU_Layer/LED/ecu_led.c: 49:         gpio_pin_write_logic(&pin_obj , GPIO_HIGH);
  9003   0026FA  0E60               	movlw	low led_turn_on@pin_obj
  9004   0026FC  6E56               	movwf	i2gpio_pin_write_logic@config^0,c
  9005   0026FE  0E01               	movlw	1
  9006   002700  6E57               	movwf	i2gpio_pin_write_logic@logic_status^0,c
  9007   002702  ECBC  F00D         	call	i2_gpio_pin_write_logic	;wreg free
  9008   002706                     
  9009                           ;ECU_Layer/LED/ecu_led.c: 50:         retVal = (Std_ReturnType)0x01;
  9010   002706  0E01               	movlw	1
  9011   002708  6E5F               	movwf	led_turn_on@retVal^0,c
  9012   00270A                     i2l5440:
  9013                           
  9014                           ;ECU_Layer/LED/ecu_led.c: 52:     return retVal;
  9015   00270A  505F               	movf	led_turn_on@retVal^0,w,c
  9016   00270C  0012               	return		;funcret
  9017   00270E                     __end_of_led_turn_on:
  9018                           	callstack 0
  9019                           
  9020 ;; *************** function _led_turn_off *****************
  9021 ;; Defined at:
  9022 ;;		line 61 in file "ECU_Layer/LED/ecu_led.c"
  9023 ;; Parameters:    Size  Location     Type
  9024 ;;  led             1    7[COMRAM] PTR const struct .
  9025 ;;		 -> clock_led(1), timer_led(1), stopwatch_led(1), 
  9026 ;; Auto vars:     Size  Location     Type
  9027 ;;  pin_obj         1   10[COMRAM] struct .
  9028 ;;  retVal          1    9[COMRAM] unsigned char 
  9029 ;; Return value:  Size  Location     Type
  9030 ;;                  1    wreg      unsigned char 
  9031 ;; Registers used:
  9032 ;;		wreg, fsr2l, fsr2h, status,2, status,0, prodl, prodh, cstack
  9033 ;; Tracked objects:
  9034 ;;		On entry : 0/0
  9035 ;;		On exit  : 0/0
  9036 ;;		Unchanged: 0/0
  9037 ;; Data sizes:     COMRAM   BANK0   BANK1   BANK2   BANK3   BANK4   BANK5   BANK6   BANK7   BANK8   BANK9  BANK10  BANK1
      +1  BANK12  BANK13  BANK14  BANK15
  9038 ;;      Params:         1       0       0       0       0       0       0       0       0       0       0       0       
      +0       0       0       0       0
  9039 ;;      Locals:         2       0       0       0       0       0       0       0       0       0       0       0       
      +0       0       0       0       0
  9040 ;;      Temps:          1       0       0       0       0       0       0       0       0       0       0       0       
      +0       0       0       0       0
  9041 ;;      Totals:         4       0       0       0       0       0       0       0       0       0       0       0       
      +0       0       0       0       0
  9042 ;;Total ram usage:        4 bytes
  9043 ;; Hardware stack levels used: 1
  9044 ;; Hardware stack levels required when called: 1
  9045 ;; This function calls:
  9046 ;;		i2_gpio_pin_write_logic
  9047 ;; This function is called by:
  9048 ;;		_INT1_CountUpIneterruptHandler
  9049 ;;		_INT2_CountDownIneterruptHandler
  9050 ;;		_RB1_ClockIneterruptHandler
  9051 ;; This function uses a non-reentrant model
  9052 ;;
  9053                           
  9054                           	psect	text70
  9055   00270E                     __ptext70:
  9056                           	callstack 0
  9057   00270E                     _led_turn_off:
  9058                           	callstack 20
  9059   00270E                     
  9060                           ;ECU_Layer/LED/ecu_led.c: 63:     if(((void*)0) == led){
  9061   00270E  505D               	movf	led_turn_off@led^0,w,c
  9062   002710  A4D8               	btfss	status,2,c
  9063   002712  EF8D  F013         	goto	i2u496_41
  9064   002716  EF8F  F013         	goto	i2u496_40
  9065   00271A                     i2u496_41:
  9066   00271A  EF93  F013         	goto	i2l98
  9067   00271E                     i2u496_40:
  9068   00271E                     
  9069                           ;ECU_Layer/LED/ecu_led.c: 64:         retVal = (Std_ReturnType)0x00;
  9070   00271E  0E00               	movlw	0
  9071   002720  6E5F               	movwf	led_turn_off@retVal^0,c
  9072                           
  9073                           ;ECU_Layer/LED/ecu_led.c: 65:     }else{
  9074   002722  EFC1  F013         	goto	i2l5458
  9075   002726                     i2l98:
  9076                           
  9077                           ;ECU_Layer/LED/ecu_led.c: 66:         pin_config_t pin_obj = {.port = led->port,
  9078   002726  C02E  F060         	movff	led_turn_off@F3077,led_turn_off@pin_obj
  9079   00272A  505D               	movf	led_turn_off@led^0,w,c
  9080   00272C  6ED9               	movwf	fsr2l,c
  9081   00272E  6ADA               	clrf	fsr2h,c
  9082   002730  50DF               	movf	223,w,c
  9083   002732  0B07               	andlw	7
  9084   002734  6E5E               	movwf	??_led_turn_off^0,c
  9085   002736  5060               	movf	led_turn_off@pin_obj^0,w,c
  9086   002738  185E               	xorwf	??_led_turn_off^0,w,c
  9087   00273A  0BF8               	andlw	-8
  9088   00273C  185E               	xorwf	??_led_turn_off^0,w,c
  9089   00273E  6E60               	movwf	led_turn_off@pin_obj^0,c
  9090   002740  505D               	movf	led_turn_off@led^0,w,c
  9091   002742  6ED9               	movwf	fsr2l,c
  9092   002744  6ADA               	clrf	fsr2h,c
  9093   002746  30DF               	rrcf	223,w,c
  9094   002748  32E8               	rrcf	wreg,f,c
  9095   00274A  32E8               	rrcf	wreg,f,c
  9096   00274C  0B07               	andlw	7
  9097   00274E  6E5E               	movwf	??_led_turn_off^0,c
  9098   002750  465E               	rlncf	??_led_turn_off^0,f,c
  9099   002752  465E               	rlncf	??_led_turn_off^0,f,c
  9100   002754  465E               	rlncf	??_led_turn_off^0,f,c
  9101   002756  5060               	movf	led_turn_off@pin_obj^0,w,c
  9102   002758  185E               	xorwf	??_led_turn_off^0,w,c
  9103   00275A  0BC7               	andlw	-57
  9104   00275C  185E               	xorwf	??_led_turn_off^0,w,c
  9105   00275E  6E60               	movwf	led_turn_off@pin_obj^0,c
  9106   002760  505D               	movf	led_turn_off@led^0,w,c
  9107   002762  6ED9               	movwf	fsr2l,c
  9108   002764  6ADA               	clrf	fsr2h,c
  9109   002766  ACDF               	btfss	indf2,6,c
  9110   002768  D002               	bra	i2u497_45
  9111   00276A  8C60               	bsf	led_turn_off@pin_obj^0,6,c
  9112   00276C  D001               	bra	i2u497_47
  9113   00276E                     i2u497_45:
  9114   00276E  9C60               	bcf	led_turn_off@pin_obj^0,6,c
  9115   002770                     i2u497_47:
  9116   002770  9E60               	bcf	led_turn_off@pin_obj^0,7,c
  9117   002772                     
  9118                           ;ECU_Layer/LED/ecu_led.c: 71:         gpio_pin_write_logic(&pin_obj , GPIO_LOW);
  9119   002772  0E60               	movlw	low led_turn_off@pin_obj
  9120   002774  6E56               	movwf	i2gpio_pin_write_logic@config^0,c
  9121   002776  0E00               	movlw	0
  9122   002778  6E57               	movwf	i2gpio_pin_write_logic@logic_status^0,c
  9123   00277A  ECBC  F00D         	call	i2_gpio_pin_write_logic	;wreg free
  9124   00277E                     
  9125                           ;ECU_Layer/LED/ecu_led.c: 72:         retVal = (Std_ReturnType)0x01;
  9126   00277E  0E01               	movlw	1
  9127   002780  6E5F               	movwf	led_turn_off@retVal^0,c
  9128   002782                     i2l5458:
  9129                           
  9130                           ;ECU_Layer/LED/ecu_led.c: 74:     return retVal;
  9131   002782  505F               	movf	led_turn_off@retVal^0,w,c
  9132   002784  0012               	return		;funcret
  9133   002786                     __end_of_led_turn_off:
  9134                           	callstack 0
  9135                           
  9136 ;; *************** function i2_gpio_pin_write_logic *****************
  9137 ;; Defined at:
  9138 ;;		line 76 in file "MCAL_Layer/GPIO/hal_gpio.c"
  9139 ;; Parameters:    Size  Location     Type
  9140 ;;  config          1    0[COMRAM] PTR const struct .
  9141 ;;		 -> buzzer(1), clock_mode_int(6), pause_resume_int(6), count_down_int(6), 
  9142 ;;		 -> count_up_int(6), reset_int(6), seg_enable_6(1), seg_enable_5(1), 
  9143 ;;		 -> seg_enable_4(1), seg_enable_3(1), seg_enable_2(1), seg_enable_1(1), 
  9144 ;;		 -> keypad(8), seven_segment(5), led_turn_off@pin_obj(1), led_turn_on@pin_obj(1), 
  9145 ;;		 -> led_initialize@pin_obj(1), 
  9146 ;;  logic_status    1    1[COMRAM] enum E2986
  9147 ;; Auto vars:     Size  Location     Type
  9148 ;;  retVal          1    0        unsigned char 
  9149 ;; Return value:  Size  Location     Type
  9150 ;;                  1    wreg      unsigned char 
  9151 ;; Registers used:
  9152 ;;		wreg, fsr2l, fsr2h, status,2, status,0, prodl, prodh
  9153 ;; Tracked objects:
  9154 ;;		On entry : 0/0
  9155 ;;		On exit  : 0/0
  9156 ;;		Unchanged: 0/0
  9157 ;; Data sizes:     COMRAM   BANK0   BANK1   BANK2   BANK3   BANK4   BANK5   BANK6   BANK7   BANK8   BANK9  BANK10  BANK1
      +1  BANK12  BANK13  BANK14  BANK15
  9158 ;;      Params:         2       0       0       0       0       0       0       0       0       0       0       0       
      +0       0       0       0       0
  9159 ;;      Locals:         0       0       0       0       0       0       0       0       0       0       0       0       
      +0       0       0       0       0
  9160 ;;      Temps:          5       0       0       0       0       0       0       0       0       0       0       0       
      +0       0       0       0       0
  9161 ;;      Totals:         7       0       0       0       0       0       0       0       0       0       0       0       
      +0       0       0       0       0
  9162 ;;Total ram usage:        7 bytes
  9163 ;; Hardware stack levels used: 1
  9164 ;; This function calls:
  9165 ;;		Nothing
  9166 ;; This function is called by:
  9167 ;;		_led_turn_on
  9168 ;;		_led_turn_off
  9169 ;; This function uses a non-reentrant model
  9170 ;;
  9171                           
  9172                           	psect	text71
  9173   001B78                     __ptext71:
  9174                           	callstack 0
  9175   001B78                     i2_gpio_pin_write_logic:
  9176                           	callstack 20
  9177   001B78                     
  9178                           ;MCAL_Layer/GPIO/hal_gpio.c: 78:     if((((void*)0) == config) || (config->pin > 8 -1))
  9179   001B78  5056               	movf	i2gpio_pin_write_logic@config^0,w,c
  9180   001B7A  B4D8               	btfsc	status,2,c
  9181   001B7C  EFC2  F00D         	goto	i2u478_41
  9182   001B80  EFC4  F00D         	goto	i2u478_40
  9183   001B84                     i2u478_41:
  9184   001B84  EFD4  F00D         	goto	i2l5316
  9185   001B88                     i2u478_40:
  9186   001B88  5056               	movf	i2gpio_pin_write_logic@config^0,w,c
  9187   001B8A  6ED9               	movwf	fsr2l,c
  9188   001B8C  6ADA               	clrf	fsr2h,c
  9189   001B8E  30DF               	rrcf	223,w,c
  9190   001B90  32E8               	rrcf	wreg,f,c
  9191   001B92  32E8               	rrcf	wreg,f,c
  9192   001B94  0B07               	andlw	7
  9193   001B96  6E58               	movwf	??i2_gpio_pin_write_logic^0,c
  9194   001B98  0E07               	movlw	7
  9195   001B9A  6458               	cpfsgt	??i2_gpio_pin_write_logic^0,c
  9196   001B9C  EFD2  F00D         	goto	i2u479_41
  9197   001BA0  EFD4  F00D         	goto	i2u479_40
  9198   001BA4                     i2u479_41:
  9199   001BA4  EF2B  F00E         	goto	i2l5324
  9200   001BA8                     i2u479_40:
  9201   001BA8                     i2l5316:
  9202                           
  9203                           ;MCAL_Layer/GPIO/hal_gpio.c: 81:     }else{
  9204   001BA8  EF40  F00E         	goto	i2l236
  9205   001BAC                     i2l5318:
  9206                           
  9207                           ;MCAL_Layer/GPIO/hal_gpio.c: 84:                 (*lat_registers[config->port] &=~(((uin
      +                          t8)1<<config->pin)));
  9208   001BAC  5056               	movf	i2gpio_pin_write_logic@config^0,w,c
  9209   001BAE  6ED9               	movwf	fsr2l,c
  9210   001BB0  6ADA               	clrf	fsr2h,c
  9211   001BB2  30DF               	rrcf	223,w,c
  9212   001BB4  32E8               	rrcf	wreg,f,c
  9213   001BB6  32E8               	rrcf	wreg,f,c
  9214   001BB8  0B07               	andlw	7
  9215   001BBA  6E58               	movwf	??i2_gpio_pin_write_logic^0,c
  9216   001BBC  0E01               	movlw	1
  9217   001BBE  6E59               	movwf	(??i2_gpio_pin_write_logic+1)^0,c
  9218   001BC0  2A58               	incf	??i2_gpio_pin_write_logic^0,f,c
  9219   001BC2  EFE5  F00D         	goto	i2u480_44
  9220   001BC6                     i2u480_45:
  9221   001BC6  90D8               	bcf	status,0,c
  9222   001BC8  3659               	rlcf	(??i2_gpio_pin_write_logic+1)^0,f,c
  9223   001BCA                     i2u480_44:
  9224   001BCA  2E58               	decfsz	??i2_gpio_pin_write_logic^0,f,c
  9225   001BCC  EFE3  F00D         	goto	i2u480_45
  9226   001BD0  5059               	movf	(??i2_gpio_pin_write_logic+1)^0,w,c
  9227   001BD2  0AFF               	xorlw	255
  9228   001BD4  6E5A               	movwf	(??i2_gpio_pin_write_logic+2)^0,c
  9229   001BD6  5056               	movf	i2gpio_pin_write_logic@config^0,w,c
  9230   001BD8  6ED9               	movwf	fsr2l,c
  9231   001BDA  6ADA               	clrf	fsr2h,c
  9232   001BDC  50DF               	movf	223,w,c
  9233   001BDE  0B07               	andlw	7
  9234   001BE0  0D02               	mullw	2
  9235   001BE2  50F3               	movf	243,w,c
  9236   001BE4  0F8A               	addlw	low _lat_registers
  9237   001BE6  6ED9               	movwf	fsr2l,c
  9238   001BE8  6ADA               	clrf	fsr2h,c
  9239   001BEA  CFDE F05B          	movff	postinc2,??i2_gpio_pin_write_logic+3
  9240   001BEE  CFDD F05C          	movff	postdec2,??i2_gpio_pin_write_logic+4
  9241   001BF2  C05B  FFD9         	movff	??i2_gpio_pin_write_logic+3,fsr2l
  9242   001BF6  C05C  FFDA         	movff	??i2_gpio_pin_write_logic+4,fsr2h
  9243   001BFA  505A               	movf	(??i2_gpio_pin_write_logic+2)^0,w,c
  9244   001BFC  16DF               	andwf	indf2,f,c
  9245                           
  9246                           ;MCAL_Layer/GPIO/hal_gpio.c: 85:                 break;
  9247   001BFE  EF40  F00E         	goto	i2l5326
  9248   001C02                     i2l5320:
  9249                           
  9250                           ;MCAL_Layer/GPIO/hal_gpio.c: 87:                 (*lat_registers[config->port] |=((uint8
      +                          )1<<config->pin));
  9251   001C02  5056               	movf	i2gpio_pin_write_logic@config^0,w,c
  9252   001C04  6ED9               	movwf	fsr2l,c
  9253   001C06  6ADA               	clrf	fsr2h,c
  9254   001C08  30DF               	rrcf	223,w,c
  9255   001C0A  32E8               	rrcf	wreg,f,c
  9256   001C0C  32E8               	rrcf	wreg,f,c
  9257   001C0E  0B07               	andlw	7
  9258   001C10  6E58               	movwf	??i2_gpio_pin_write_logic^0,c
  9259   001C12  0E01               	movlw	1
  9260   001C14  6E59               	movwf	(??i2_gpio_pin_write_logic+1)^0,c
  9261   001C16  2A58               	incf	??i2_gpio_pin_write_logic^0,f,c
  9262   001C18  EF10  F00E         	goto	i2u481_44
  9263   001C1C                     i2u481_45:
  9264   001C1C  90D8               	bcf	status,0,c
  9265   001C1E  3659               	rlcf	(??i2_gpio_pin_write_logic+1)^0,f,c
  9266   001C20                     i2u481_44:
  9267   001C20  2E58               	decfsz	??i2_gpio_pin_write_logic^0,f,c
  9268   001C22  EF0E  F00E         	goto	i2u481_45
  9269   001C26  5056               	movf	i2gpio_pin_write_logic@config^0,w,c
  9270   001C28  6ED9               	movwf	fsr2l,c
  9271   001C2A  6ADA               	clrf	fsr2h,c
  9272   001C2C  50DF               	movf	223,w,c
  9273   001C2E  0B07               	andlw	7
  9274   001C30  0D02               	mullw	2
  9275   001C32  50F3               	movf	243,w,c
  9276   001C34  0F8A               	addlw	low _lat_registers
  9277   001C36  6ED9               	movwf	fsr2l,c
  9278   001C38  6ADA               	clrf	fsr2h,c
  9279   001C3A  CFDE F05A          	movff	postinc2,??i2_gpio_pin_write_logic+2
  9280   001C3E  CFDD F05B          	movff	postdec2,??i2_gpio_pin_write_logic+3
  9281   001C42  C05A  FFD9         	movff	??i2_gpio_pin_write_logic+2,fsr2l
  9282   001C46  C05B  FFDA         	movff	??i2_gpio_pin_write_logic+3,fsr2h
  9283   001C4A  5059               	movf	(??i2_gpio_pin_write_logic+1)^0,w,c
  9284   001C4C  12DF               	iorwf	indf2,f,c
  9285                           
  9286                           ;MCAL_Layer/GPIO/hal_gpio.c: 88:                 break;
  9287   001C4E  EF40  F00E         	goto	i2l5326
  9288   001C52                     i2l5322:
  9289                           
  9290                           ;MCAL_Layer/GPIO/hal_gpio.c: 90:         }
  9291   001C52  EF40  F00E         	goto	i2l5326
  9292   001C56                     i2l5324:
  9293   001C56  5057               	movf	i2gpio_pin_write_logic@logic_status^0,w,c
  9294   001C58  6E58               	movwf	??i2_gpio_pin_write_logic^0,c
  9295   001C5A  6A59               	clrf	(??i2_gpio_pin_write_logic+1)^0,c
  9296                           
  9297                           ; Switch on 2 bytes has been partitioned into a top level switch of size 1, and 1 sub-sw
      +                          itches
  9298                           ; Switch size 1, requested type "simple"
  9299                           ; Number of cases is 1, Range of values is 0 to 0
  9300                           ; switch strategies available:
  9301                           ; Name         Instructions Cycles
  9302                           ; simple_byte            4     3 (average)
  9303                           ;	Chosen strategy is simple_byte
  9304   001C5C  5059               	movf	(??i2_gpio_pin_write_logic+1)^0,w,c
  9305   001C5E  0A00               	xorlw	0	; case 0
  9306   001C60  B4D8               	btfsc	status,2,c
  9307   001C62  EF35  F00E         	goto	i2l6496
  9308   001C66  EF29  F00E         	goto	i2l5322
  9309   001C6A                     i2l6496:
  9310                           
  9311                           ; Switch size 1, requested type "simple"
  9312                           ; Number of cases is 2, Range of values is 0 to 1
  9313                           ; switch strategies available:
  9314                           ; Name         Instructions Cycles
  9315                           ; simple_byte            7     4 (average)
  9316                           ;	Chosen strategy is simple_byte
  9317   001C6A  5058               	movf	??i2_gpio_pin_write_logic^0,w,c
  9318   001C6C  0A00               	xorlw	0	; case 0
  9319   001C6E  B4D8               	btfsc	status,2,c
  9320   001C70  EFD6  F00D         	goto	i2l5318
  9321   001C74  0A01               	xorlw	1	; case 1
  9322   001C76  B4D8               	btfsc	status,2,c
  9323   001C78  EF01  F00E         	goto	i2l5320
  9324   001C7C  EF29  F00E         	goto	i2l5322
  9325   001C80                     i2l5326:
  9326   001C80                     i2l236:
  9327   001C80  0012               	return		;funcret
  9328   001C82                     __end_ofi2_gpio_pin_write_logic:
  9329                           	callstack 0
  9330                           
  9331                           	psect	rparam
  9332   000000                     
  9333                           	psect	temp
  9334   00006D                     btemp:
  9335                           	callstack 0
  9336   00006D                     	ds	1
  9337   000000                     int$flags	set	btemp
  9338   000000                     wtemp8	set	btemp+1
  9339   000000                     ttemp5	set	btemp+1
  9340   000000                     ttemp6	set	btemp+4
  9341   000000                     ttemp7	set	btemp+8
  9342                           
  9343                           	psect	config
  9344                           
  9345                           ; Padding undefined space
  9346   300000                     	org	3145728
  9347   300000  FF                 	db	255
  9348                           
  9349                           ;Config register CONFIG1H @ 0x300001
  9350                           ;	Oscillator Selection bits
  9351                           ;	OSC = HS, HS oscillator
  9352                           ;	Fail-Safe Clock Monitor Enable bit
  9353                           ;	FCMEN = ON, Fail-Safe Clock Monitor enabled
  9354                           ;	Internal/External Oscillator Switchover bit
  9355                           ;	IESO = ON, Oscillator Switchover mode enabled
  9356   300001                     	org	3145729
  9357   300001  C2                 	db	194
  9358                           
  9359                           ;Config register CONFIG2L @ 0x300002
  9360                           ;	Power-up Timer Enable bit
  9361                           ;	PWRT = ON, PWRT enabled
  9362                           ;	Brown-out Reset Enable bits
  9363                           ;	BOREN = OFF, Brown-out Reset disabled in hardware and software
  9364                           ;	Brown Out Reset Voltage bits
  9365                           ;	BORV = 1, 
  9366   300002                     	org	3145730
  9367   300002  08                 	db	8
  9368                           
  9369                           ;Config register CONFIG2H @ 0x300003
  9370                           ;	Watchdog Timer Enable bit
  9371                           ;	WDT = OFF, WDT disabled (control is placed on the SWDTEN bit)
  9372                           ;	Watchdog Timer Postscale Select bits
  9373                           ;	WDTPS = 32768, 1:32768
  9374   300003                     	org	3145731
  9375   300003  1E                 	db	30
  9376                           
  9377                           ; Padding undefined space
  9378   300004                     	org	3145732
  9379   300004  FF                 	db	255
  9380                           
  9381                           ;Config register CONFIG3H @ 0x300005
  9382                           ;	CCP2 MUX bit
  9383                           ;	CCP2MX = PORTC, CCP2 input/output is multiplexed with RC1
  9384                           ;	PORTB A/D Enable bit
  9385                           ;	PBADEN = OFF, PORTB<4:0> pins are configured as digital I/O on Reset
  9386                           ;	Low-Power Timer1 Oscillator Enable bit
  9387                           ;	LPT1OSC = OFF, Timer1 configured for higher power operation
  9388                           ;	MCLR Pin Enable bit
  9389                           ;	MCLRE = ON, MCLR pin enabled; RE3 input pin disabled
  9390   300005                     	org	3145733
  9391   300005  81                 	db	129
  9392                           
  9393                           ;Config register CONFIG4L @ 0x300006
  9394                           ;	Stack Full/Underflow Reset Enable bit
  9395                           ;	STVREN = ON, Stack full/underflow will cause Reset
  9396                           ;	Single-Supply ICSP Enable bit
  9397                           ;	LVP = OFF, Single-Supply ICSP disabled
  9398                           ;	Extended Instruction Set Enable bit
  9399                           ;	XINST = OFF, Instruction set extension and Indexed Addressing mode disabled (Legacy mo
      +                          de)
  9400                           ;	Background Debugger Enable bit
  9401                           ;	DEBUG = 0x1, unprogrammed default
  9402   300006                     	org	3145734
  9403   300006  81                 	db	129
  9404                           
  9405                           ; Padding undefined space
  9406   300007                     	org	3145735
  9407   300007  FF                 	db	255
  9408                           
  9409                           ;Config register CONFIG5L @ 0x300008
  9410                           ;	Code Protection bit
  9411                           ;	CP0 = OFF, Block 0 (000800-003FFFh) not code-protected
  9412                           ;	Code Protection bit
  9413                           ;	CP1 = OFF, Block 1 (004000-007FFFh) not code-protected
  9414                           ;	Code Protection bit
  9415                           ;	CP2 = OFF, Block 2 (008000-00BFFFh) not code-protected
  9416                           ;	Code Protection bit
  9417                           ;	CP3 = OFF, Block 3 (00C000-00FFFFh) not code-protected
  9418   300008                     	org	3145736
  9419   300008  0F                 	db	15
  9420                           
  9421                           ;Config register CONFIG5H @ 0x300009
  9422                           ;	Boot Block Code Protection bit
  9423                           ;	CPB = OFF, Boot block (000000-0007FFh) not code-protected
  9424                           ;	Data EEPROM Code Protection bit
  9425                           ;	CPD = OFF, Data EEPROM not code-protected
  9426   300009                     	org	3145737
  9427   300009  C0                 	db	192
  9428                           
  9429                           ;Config register CONFIG6L @ 0x30000A
  9430                           ;	Write Protection bit
  9431                           ;	WRT0 = OFF, Block 0 (000800-003FFFh) not write-protected
  9432                           ;	Write Protection bit
  9433                           ;	WRT1 = OFF, Block 1 (004000-007FFFh) not write-protected
  9434                           ;	Write Protection bit
  9435                           ;	WRT2 = OFF, Block 2 (008000-00BFFFh) not write-protected
  9436                           ;	Write Protection bit
  9437                           ;	WRT3 = OFF, Block 3 (00C000-00FFFFh) not write-protected
  9438   30000A                     	org	3145738
  9439   30000A  0F                 	db	15
  9440                           
  9441                           ;Config register CONFIG6H @ 0x30000B
  9442                           ;	Configuration Register Write Protection bit
  9443                           ;	WRTC = OFF, Configuration registers (300000-3000FFh) not write-protected
  9444                           ;	Boot Block Write Protection bit
  9445                           ;	WRTB = OFF, Boot Block (000000-0007FFh) not write-protected
  9446                           ;	Data EEPROM Write Protection bit
  9447                           ;	WRTD = OFF, Data EEPROM not write-protected
  9448   30000B                     	org	3145739
  9449   30000B  E0                 	db	224
  9450                           
  9451                           ;Config register CONFIG7L @ 0x30000C
  9452                           ;	Table Read Protection bit
  9453                           ;	EBTR0 = OFF, Block 0 (000800-003FFFh) not protected from table reads executed in other
      +                           blocks
  9454                           ;	Table Read Protection bit
  9455                           ;	EBTR1 = OFF, Block 1 (004000-007FFFh) not protected from table reads executed in other
      +                           blocks
  9456                           ;	Table Read Protection bit
  9457                           ;	EBTR2 = OFF, Block 2 (008000-00BFFFh) not protected from table reads executed in other
      +                           blocks
  9458                           ;	Table Read Protection bit
  9459                           ;	EBTR3 = OFF, Block 3 (00C000-00FFFFh) not protected from table reads executed in other
      +                           blocks
  9460   30000C                     	org	3145740
  9461   30000C  0F                 	db	15
  9462                           
  9463                           ;Config register CONFIG7H @ 0x30000D
  9464                           ;	Boot Block Table Read Protection bit
  9465                           ;	EBTRB = OFF, Boot Block (000000-0007FFh) not protected from table reads executed in ot
      +                          her blocks
  9466   30000D                     	org	3145741
  9467   30000D  40                 	db	64
  9468                           tosu	equ	0xFFF
  9469                           tosh	equ	0xFFE
  9470                           tosl	equ	0xFFD
  9471                           stkptr	equ	0xFFC
  9472                           pclatu	equ	0xFFB
  9473                           pclath	equ	0xFFA
  9474                           pcl	equ	0xFF9
  9475                           tblptru	equ	0xFF8
  9476                           tblptrh	equ	0xFF7
  9477                           tblptrl	equ	0xFF6
  9478                           tablat	equ	0xFF5
  9479                           prodh	equ	0xFF4
  9480                           prodl	equ	0xFF3
  9481                           indf0	equ	0xFEF
  9482                           postinc0	equ	0xFEE
  9483                           postdec0	equ	0xFED
  9484                           preinc0	equ	0xFEC
  9485                           plusw0	equ	0xFEB
  9486                           fsr0h	equ	0xFEA
  9487                           fsr0l	equ	0xFE9
  9488                           wreg	equ	0xFE8
  9489                           indf1	equ	0xFE7
  9490                           postinc1	equ	0xFE6
  9491                           postdec1	equ	0xFE5
  9492                           preinc1	equ	0xFE4
  9493                           plusw1	equ	0xFE3
  9494                           fsr1h	equ	0xFE2
  9495                           fsr1l	equ	0xFE1
  9496                           bsr	equ	0xFE0
  9497                           indf2	equ	0xFDF
  9498                           postinc2	equ	0xFDE
  9499                           postdec2	equ	0xFDD
  9500                           preinc2	equ	0xFDC
  9501                           plusw2	equ	0xFDB
  9502                           fsr2h	equ	0xFDA
  9503                           fsr2l	equ	0xFD9
  9504                           status	equ	0xFD8

Data Sizes:
    Strings     0
    Constant    16
    Data        97
    BSS         63
    Persistent  2
    Stack       0

Auto Spaces:
    Space          Size  Autos    Used
    COMRAM          126     21     108
    BANK0           128     14      89
    BANK1           256      0       0
    BANK2           256      0       0
    BANK3           256      0       0
    BANK4           256      0       0
    BANK5           256      0       0
    BANK6           256      0       0
    BANK7           256      0       0
    BANK8           256      0       0
    BANK9           256      0       0
    BANK10          256      0       0
    BANK11          256      0       0
    BANK12          256      0       0
    BANK13          256      0       0
    BANK14          256      0       0
    BANK15          128      0       0

Pointer List with Targets:

    clock_mode_int$EXT_InterruptHandler_HIGH	PTR FTN()void  size(2) Largest target is 1
		 -> NULL(), 

    clock_mode_int$EXT_InterruptHandler_LOW	PTR FTN()void  size(2) Largest target is 1
		 -> RB0_PauseIneterruptHandler(), RB1_ClockIneterruptHandler(), 

    count_down_int$EXT_InterruptHandler	PTR FTN()void  size(2) Largest target is 1
		 -> INT0_ResetIneterruptHandler(), INT1_CountUpIneterruptHandler(), INT2_CountDownIneterruptHandler(), 

    count_up_int$EXT_InterruptHandler	PTR FTN()void  size(2) Largest target is 1
		 -> INT0_ResetIneterruptHandler(), INT1_CountUpIneterruptHandler(), INT2_CountDownIneterruptHandler(), 

    Data_EEPROM_Read_Byte@bData	PTR unsigned char  size(1) Largest target is 1
		 -> hours(COMRAM[1]), minutes(COMRAM[1]), paused_hours(COMRAM[1]), paused_minutes(COMRAM[1]), 
		 -> paused_seconds(COMRAM[1]), seconds(COMRAM[1]), 

    gpio_pin_direction_initialize@config	PTR const struct . size(1) Largest target is 8
		 -> buzzer(COMRAM[1]), clock_mode_int(BANK0[6]), count_down_int(BANK0[6]), count_up_int(BANK0[6]), 
		 -> keypad(BANK0[8]), keypad$keypad_columns_pins(BANK0[4]), keypad$keypad_rows_pins(BANK0[4]), led_initialize@pin_obj(BANK0[1]), 
		 -> pause_resume_int(BANK0[6]), reset_int(BANK0[6]), seg_enable_1(COMRAM[1]), seg_enable_2(COMRAM[1]), 
		 -> seg_enable_3(COMRAM[1]), seg_enable_4(COMRAM[1]), seg_enable_5(COMRAM[1]), seg_enable_6(COMRAM[1]), 
		 -> seven_segment(COMRAM[5]), seven_segment$segment_pin(COMRAM[4]), 

    gpio_pin_initialize@config	PTR const struct . size(1) Largest target is 8
		 -> buzzer(COMRAM[1]), clock_mode_int(BANK0[6]), count_down_int(BANK0[6]), count_up_int(BANK0[6]), 
		 -> keypad(BANK0[8]), keypad$keypad_rows_pins(BANK0[4]), led_initialize@pin_obj(BANK0[1]), pause_resume_int(BANK0[6]), 
		 -> reset_int(BANK0[6]), seg_enable_1(COMRAM[1]), seg_enable_2(COMRAM[1]), seg_enable_3(COMRAM[1]), 
		 -> seg_enable_4(COMRAM[1]), seg_enable_5(COMRAM[1]), seg_enable_6(COMRAM[1]), seven_segment(COMRAM[5]), 
		 -> seven_segment$segment_pin(COMRAM[4]), 

    gpio_pin_read_logic@config	PTR const struct . size(1) Largest target is 8
		 -> keypad(BANK0[8]), keypad$keypad_columns_pins(BANK0[4]), 

    gpio_pin_read_logic@logic_status	PTR enum E2986 size(1) Largest target is 1
		 -> button_read_state@logic_status(COMRAM[1]), keypad_get_value@column_logic(BANK0[1]), 

    gpio_pin_toggle_logic@config	PTR const struct . size(1) Largest target is 1
		 -> buzzer(COMRAM[1]), led_toggle@pin_obj(COMRAM[1]), 

    gpio_pin_write_logic@config	PTR const struct . size(1) Largest target is 8
		 -> buzzer(COMRAM[1]), clock_mode_int(BANK0[6]), count_down_int(BANK0[6]), count_up_int(BANK0[6]), 
		 -> keypad(BANK0[8]), keypad$keypad_rows_pins(BANK0[4]), led_initialize@pin_obj(BANK0[1]), led_turn_off@pin_obj(COMRAM[1]), 
		 -> led_turn_on@pin_obj(COMRAM[1]), pause_resume_int(BANK0[6]), reset_int(BANK0[6]), seg_enable_1(COMRAM[1]), 
		 -> seg_enable_2(COMRAM[1]), seg_enable_3(COMRAM[1]), seg_enable_4(COMRAM[1]), seg_enable_5(COMRAM[1]), 
		 -> seg_enable_6(COMRAM[1]), seven_segment(COMRAM[5]), seven_segment$segment_pin(COMRAM[4]), 

    INT0_InterruptHandler	PTR FTN()void  size(2) Largest target is 1
		 -> INT0_ResetIneterruptHandler(), INT1_CountUpIneterruptHandler(), INT2_CountDownIneterruptHandler(), NULL(), 

    INT0_SetInterruptHandler@InterruptHandler	PTR FTN()PTR void  size(2) Largest target is 1
		 -> INT0_ResetIneterruptHandler(), INT1_CountUpIneterruptHandler(), INT2_CountDownIneterruptHandler(), 

    INT1_InterruptHandler	PTR FTN()void  size(2) Largest target is 1
		 -> INT0_ResetIneterruptHandler(), INT1_CountUpIneterruptHandler(), INT2_CountDownIneterruptHandler(), NULL(), 

    INT1_SetInterruptHandler@InterruptHandler	PTR FTN()PTR void  size(2) Largest target is 1
		 -> INT0_ResetIneterruptHandler(), INT1_CountUpIneterruptHandler(), INT2_CountDownIneterruptHandler(), 

    INT2_InterruptHandler	PTR FTN()void  size(2) Largest target is 1
		 -> INT0_ResetIneterruptHandler(), INT1_CountUpIneterruptHandler(), INT2_CountDownIneterruptHandler(), NULL(), 

    INT2_SetInterruptHandler@InterruptHandler	PTR FTN()PTR void  size(2) Largest target is 1
		 -> INT0_ResetIneterruptHandler(), INT1_CountUpIneterruptHandler(), INT2_CountDownIneterruptHandler(), 

    Interrupt_INTx_Clear_Flag@int_obj	PTR const struct . size(1) Largest target is 6
		 -> count_down_int(BANK0[6]), count_up_int(BANK0[6]), reset_int(BANK0[6]), 

    Interrupt_INTx_Clear_Flag@int_obj$EXT_InterruptHandler	PTR FTN()void  size(2) Largest target is 1
		 -> INT0_ResetIneterruptHandler(), INT1_CountUpIneterruptHandler(), INT2_CountDownIneterruptHandler(), 

    Interrupt_INTx_Disable@int_obj	PTR const struct . size(1) Largest target is 6
		 -> count_down_int(BANK0[6]), count_up_int(BANK0[6]), reset_int(BANK0[6]), 

    Interrupt_INTx_Disable@int_obj$EXT_InterruptHandler	PTR FTN()void  size(2) Largest target is 1
		 -> INT0_ResetIneterruptHandler(), INT1_CountUpIneterruptHandler(), INT2_CountDownIneterruptHandler(), 

    Interrupt_INTx_Edge_Init@int_obj	PTR const struct . size(1) Largest target is 6
		 -> count_down_int(BANK0[6]), count_up_int(BANK0[6]), reset_int(BANK0[6]), 

    Interrupt_INTx_Edge_Init@int_obj$EXT_InterruptHandler	PTR FTN()void  size(2) Largest target is 1
		 -> INT0_ResetIneterruptHandler(), INT1_CountUpIneterruptHandler(), INT2_CountDownIneterruptHandler(), 

    Interrupt_INTx_Enable@int_obj	PTR const struct . size(1) Largest target is 6
		 -> count_down_int(BANK0[6]), count_up_int(BANK0[6]), reset_int(BANK0[6]), 

    Interrupt_INTx_Enable@int_obj$EXT_InterruptHandler	PTR FTN()void  size(2) Largest target is 1
		 -> INT0_ResetIneterruptHandler(), INT1_CountUpIneterruptHandler(), INT2_CountDownIneterruptHandler(), 

    Interrupt_INTx_Init@int_obj	PTR const struct . size(1) Largest target is 6
		 -> count_down_int(BANK0[6]), count_up_int(BANK0[6]), reset_int(BANK0[6]), 

    Interrupt_INTx_Pin_Init@int_obj	PTR const struct . size(1) Largest target is 6
		 -> count_down_int(BANK0[6]), count_up_int(BANK0[6]), reset_int(BANK0[6]), 

    Interrupt_INTx_Pin_Init@int_obj$EXT_InterruptHandler	PTR FTN()void  size(2) Largest target is 1
		 -> INT0_ResetIneterruptHandler(), INT1_CountUpIneterruptHandler(), INT2_CountDownIneterruptHandler(), 

    Interrupt_INTx_SetInterruptHandler@int_obj	PTR const struct . size(1) Largest target is 6
		 -> count_down_int(BANK0[6]), count_up_int(BANK0[6]), reset_int(BANK0[6]), 

    Interrupt_INTx_SetInterruptHandler@int_obj$EXT_InterruptHandler	PTR FTN()void  size(2) Largest target is 1
		 -> INT0_ResetIneterruptHandler(), INT1_CountUpIneterruptHandler(), INT2_CountDownIneterruptHandler(), 

    Interrupt_RBx_Disable@int_obj	PTR const struct . size(1) Largest target is 6
		 -> clock_mode_int(BANK0[6]), pause_resume_int(BANK0[6]), 

    Interrupt_RBx_Enable@int_obj	PTR const struct . size(1) Largest target is 6
		 -> clock_mode_int(BANK0[6]), pause_resume_int(BANK0[6]), 

    Interrupt_RBx_Init@int_obj	PTR const struct . size(1) Largest target is 6
		 -> clock_mode_int(BANK0[6]), pause_resume_int(BANK0[6]), 

    Interrupt_RBx_Init@int_obj$EXT_InterruptHandler_HIGH	PTR FTN()void  size(2) Largest target is 1
		 -> NULL(), 

    Interrupt_RBx_Init@int_obj$EXT_InterruptHandler_LOW	PTR FTN()void  size(2) Largest target is 1
		 -> RB0_PauseIneterruptHandler(), RB1_ClockIneterruptHandler(), 

    Interrupt_RBx_Pin_Init@int_obj	PTR const struct . size(1) Largest target is 6
		 -> clock_mode_int(BANK0[6]), pause_resume_int(BANK0[6]), 

    Interrupt_RBx_Pin_Init@int_obj$EXT_InterruptHandler_HIGH	PTR FTN()void  size(2) Largest target is 1
		 -> NULL(), 

    Interrupt_RBx_Pin_Init@int_obj$EXT_InterruptHandler_LOW	PTR FTN()void  size(2) Largest target is 1
		 -> RB0_PauseIneterruptHandler(), RB1_ClockIneterruptHandler(), 

    Interrupt_RBx_Priority_Init@int_obj	PTR const struct . size(1) Largest target is 6
		 -> clock_mode_int(BANK0[6]), pause_resume_int(BANK0[6]), 

    keypad_get_value@pad	PTR const struct . size(1) Largest target is 8
		 -> keypad(BANK0[8]), 

    keypad_get_value@value	PTR unsigned char  size(1) Largest target is 1
		 -> keypad_value(COMRAM[1]), 

    keypad_initialize@pad	PTR const struct . size(1) Largest target is 8
		 -> keypad(BANK0[8]), 

    lat_registers	PTR volatile unsigned char [5] size(2) Largest target is 1
		 -> LATA(BITBIGSFRlllll[1]), LATB(BITBIGSFRllllh[1]), LATC(BITBIGSFRllllh[1]), LATD(BITBIGSFRllllh[1]), 
		 -> LATE(BITBIGSFRllllh[1]), 

    led_initialize@led	PTR const struct . size(1) Largest target is 1
		 -> buzzer_led(COMRAM[1]), clock_led(COMRAM[1]), stopwatch_led(COMRAM[1]), timer_led(COMRAM[1]), 

    led_toggle@led	PTR const struct . size(1) Largest target is 1
		 -> buzzer_led(COMRAM[1]), 

    led_turn_off@led	PTR const struct . size(1) Largest target is 1
		 -> clock_led(COMRAM[1]), stopwatch_led(COMRAM[1]), timer_led(COMRAM[1]), 

    led_turn_on@led	PTR const struct . size(1) Largest target is 1
		 -> clock_led(COMRAM[1]), stopwatch_led(COMRAM[1]), timer_led(COMRAM[1]), 

    pause_resume_int$EXT_InterruptHandler_HIGH	PTR FTN()void  size(2) Largest target is 1
		 -> NULL(), 

    pause_resume_int$EXT_InterruptHandler_LOW	PTR FTN()void  size(2) Largest target is 1
		 -> RB0_PauseIneterruptHandler(), RB1_ClockIneterruptHandler(), 

    port_registers	PTR volatile unsigned char [5] size(2) Largest target is 1
		 -> PORTA(BITBIGSFRlllll[1]), PORTB(BITBIGSFRlllll[1]), PORTC(BITBIGSFRlllll[1]), PORTD(BITBIGSFRlllll[1]), 
		 -> PORTE(BITBIGSFRlllll[1]), 

    ptr	PTR unsigned char  size(2) Largest target is 4
		 -> pRTCArray(COMRAM[4]), time(COMRAM[4]), NULL(NULL[0]), 

    RB4_InterruptHandler_HIGH	PTR FTN()void  size(2) Largest target is 1
		 -> NULL(), 

    RB4_InterruptHandler_LOW	PTR FTN()void  size(2) Largest target is 1
		 -> RB0_PauseIneterruptHandler(), RB1_ClockIneterruptHandler(), NULL(), 

    RB5_InterruptHandler_HIGH	PTR FTN()void  size(2) Largest target is 1
		 -> NULL(), 

    RB5_InterruptHandler_LOW	PTR FTN()void  size(2) Largest target is 1
		 -> RB0_PauseIneterruptHandler(), RB1_ClockIneterruptHandler(), NULL(), 

    RB6_InterruptHandler_HIGH	PTR FTN()void  size(2) Largest target is 1
		 -> NULL(), 

    RB6_InterruptHandler_LOW	PTR FTN()void  size(2) Largest target is 1
		 -> RB0_PauseIneterruptHandler(), RB1_ClockIneterruptHandler(), NULL(), 

    RB7_InterruptHandler_HIGH	PTR FTN()void  size(2) Largest target is 1
		 -> NULL(), 

    RB7_InterruptHandler_LOW	PTR FTN()void  size(2) Largest target is 1
		 -> RB0_PauseIneterruptHandler(), RB1_ClockIneterruptHandler(), NULL(), 

    Read_Bytes_From_DS1307_RTC@pData	PTR unsigned char  size(1) Largest target is 4
		 -> pRTCArray(COMRAM[4]), 

    reset_int$EXT_InterruptHandler	PTR FTN()void  size(2) Largest target is 1
		 -> INT0_ResetIneterruptHandler(), INT1_CountUpIneterruptHandler(), INT2_CountDownIneterruptHandler(), 

    S1152$TMR0_InterruptHandler	PTR FTN()void  size(2) Largest target is 1
		 -> TIMER0_IneterruptHandler(), 

    S676$EXT_InterruptHandler	PTR FTN()void  size(2) Largest target is 1
		 -> INT0_ResetIneterruptHandler(), INT1_CountUpIneterruptHandler(), INT2_CountDownIneterruptHandler(), 

    S714$EXT_InterruptHandler_HIGH	PTR FTN()void  size(2) Largest target is 1
		 -> NULL(), 

    S714$EXT_InterruptHandler_LOW	PTR FTN()void  size(2) Largest target is 1
		 -> RB0_PauseIneterruptHandler(), RB1_ClockIneterruptHandler(), 

    seven_segment_initialize@segment	PTR const struct . size(1) Largest target is 5
		 -> seven_segment(COMRAM[5]), 

    seven_segment_write_number@segment	PTR const struct . size(1) Largest target is 5
		 -> seven_segment(COMRAM[5]), 

    sp__Get_DS1307_RTC_Date	PTR unsigned char  size(1) Largest target is 4
		 -> pRTCArray(COMRAM[4]), 

    sp__Get_DS1307_RTC_Time	PTR unsigned char  size(1) Largest target is 4
		 -> pRTCArray(COMRAM[4]), 

    sp_INT0_SetInterruptHandler@InterruptHandler	PTR void  size(2) Largest target is 0

    sp_INT1_SetInterruptHandler@InterruptHandler	PTR void  size(2) Largest target is 0

    sp_INT2_SetInterruptHandler@InterruptHandler	PTR void  size(2) Largest target is 0

    timer$TMR0_InterruptHandler	PTR FTN()void  size(2) Largest target is 1
		 -> TIMER0_IneterruptHandler(), 

    Timer0_Init@timer0	PTR const struct . size(1) Largest target is 7
		 -> timer(BANK0[7]), 

    Timer0_Init@timer0$TMR0_InterruptHandler	PTR FTN()void  size(2) Largest target is 1
		 -> TIMER0_IneterruptHandler(), 

    Timer0_Mode_Select@timer0	PTR const struct . size(1) Largest target is 7
		 -> timer(BANK0[7]), 

    Timer0_Mode_Select@timer0$TMR0_InterruptHandler	PTR FTN()void  size(2) Largest target is 1
		 -> TIMER0_IneterruptHandler(), 

    Timer0_Prescaler_Config@timer0	PTR const struct . size(1) Largest target is 7
		 -> timer(BANK0[7]), 

    Timer0_Prescaler_Config@timer0$TMR0_InterruptHandler	PTR FTN()void  size(2) Largest target is 1
		 -> TIMER0_IneterruptHandler(), 

    Timer0_Register_Size_Config@timer0	PTR const struct . size(1) Largest target is 7
		 -> timer(BANK0[7]), 

    Timer0_Register_Size_Config@timer0$TMR0_InterruptHandler	PTR FTN()void  size(2) Largest target is 1
		 -> TIMER0_IneterruptHandler(), 

    TMR0_InterruptHandler	PTR FTN()void  size(2) Largest target is 1
		 -> TIMER0_IneterruptHandler(), NULL(), 

    tris_registers	PTR volatile unsigned char [5] size(2) Largest target is 1
		 -> TRISA(BITBIGSFRlllll[1]), TRISB(BITBIGSFRlllhl[1]), TRISC(BITBIGSFRlllhl[1]), TRISD(BITBIGSFRlllhl[1]), 
		 -> TRISE(BITBIGSFRlllhl[1]), 


Critical Paths under _main in COMRAM

    _seven_seg_display->_gpio_pin_write_logic
    _seconds_display->_gpio_pin_write_logic
    _minutes_display->_gpio_pin_write_logic
    _keypad_get_value->_gpio_pin_read_logic
    _keypad_get_value->_gpio_pin_write_logic
    _hours_display->_gpio_pin_write_logic
    _seven_segment_write_number->_gpio_pin_write_logic
    _get_rtc_time->_Get_DS1307_RTC_Time
    _Read_Bytes_From_DS1307_RTC->_I2C_Write_Byte
    _mcal_layer_initialize->_Timer0_Init
    _Timer0_Init->_Timer0_Prescaler_Config
    _Interrupt_INTx_Init->_Interrupt_INTx_Clear_Flag
    _Interrupt_INTx_Init->_Interrupt_INTx_Disable
    _Interrupt_INTx_Init->_Interrupt_INTx_Edge_Init
    _Interrupt_INTx_Init->_Interrupt_INTx_Enable
    _Interrupt_INTx_SetInterruptHandler->_INT0_SetInterruptHandler
    _Interrupt_INTx_SetInterruptHandler->_INT1_SetInterruptHandler
    _Interrupt_INTx_SetInterruptHandler->_INT2_SetInterruptHandler
    _gpio_pin_initialize->_gpio_pin_write_logic

Critical Paths under _InterruptManagerHigh in COMRAM

    _InterruptManagerHigh->_RB4_ISR
    _InterruptManagerHigh->_RB5_ISR
    _InterruptManagerHigh->_RB6_ISR
    _InterruptManagerHigh->_RB7_ISR
    _TIMER0_IneterruptHandler->_led_toggle
    _led_toggle->_gpio_pin_toggle_logic
    _RB1_ClockIneterruptHandler->_led_turn_off
    _RB1_ClockIneterruptHandler->_led_turn_on
    _RB0_PauseIneterruptHandler->_Data_EEPROM_Read_Byte
    _RB0_PauseIneterruptHandler->_Data_EEPROM_Write_Byte
    _INT2_CountDownIneterruptHandler->_led_turn_off
    _INT2_CountDownIneterruptHandler->_led_turn_on
    _INT1_CountUpIneterruptHandler->_led_turn_off
    _INT1_CountUpIneterruptHandler->_led_turn_on
    _led_turn_on->i2_gpio_pin_write_logic
    _led_turn_off->i2_gpio_pin_write_logic

Critical Paths under _main in BANK0

    _main->_seven_seg_display
    _seven_seg_display->_seven_segment_write_number
    _set_alarm->_keypad_get_value
    _seconds_display->_seven_segment_write_number
    _minutes_display->_seven_segment_write_number
    _keypad_get_value->_gpio_pin_write_logic
    _hours_display->_seven_segment_write_number
    _seven_segment_write_number->___awdiv
    _get_rtc_time->_Get_DS1307_RTC_Time
    _Get_DS1307_RTC_Time->_Read_Bytes_From_DS1307_RTC
    _mcal_layer_initialize->_Interrupt_INTx_Init
    _mcal_layer_initialize->_Interrupt_RBx_Init
    _Interrupt_RBx_Init->_Interrupt_RBx_Pin_Init
    _Interrupt_RBx_Pin_Init->_gpio_pin_initialize
    _Interrupt_INTx_Init->_Interrupt_INTx_Pin_Init
    _Interrupt_INTx_Pin_Init->_gpio_pin_initialize
    _ecu_layer_initialize->_keypad_initialize
    _ecu_layer_initialize->_led_initialize
    _seven_segment_initialize->_gpio_pin_initialize
    _led_initialize->_gpio_pin_initialize
    _keypad_initialize->_gpio_pin_initialize
    _gpio_pin_initialize->_gpio_pin_direction_initialize
    _gpio_pin_initialize->_gpio_pin_write_logic

Critical Paths under _InterruptManagerHigh in BANK0

    None.

Critical Paths under _main in BANK1

    None.

Critical Paths under _InterruptManagerHigh in BANK1

    None.

Critical Paths under _main in BANK2

    None.

Critical Paths under _InterruptManagerHigh in BANK2

    None.

Critical Paths under _main in BANK3

    None.

Critical Paths under _InterruptManagerHigh in BANK3

    None.

Critical Paths under _main in BANK4

    None.

Critical Paths under _InterruptManagerHigh in BANK4

    None.

Critical Paths under _main in BANK5

    None.

Critical Paths under _InterruptManagerHigh in BANK5

    None.

Critical Paths under _main in BANK6

    None.

Critical Paths under _InterruptManagerHigh in BANK6

    None.

Critical Paths under _main in BANK7

    None.

Critical Paths under _InterruptManagerHigh in BANK7

    None.

Critical Paths under _main in BANK8

    None.

Critical Paths under _InterruptManagerHigh in BANK8

    None.

Critical Paths under _main in BANK9

    None.

Critical Paths under _InterruptManagerHigh in BANK9

    None.

Critical Paths under _main in BANK10

    None.

Critical Paths under _InterruptManagerHigh in BANK10

    None.

Critical Paths under _main in BANK11

    None.

Critical Paths under _InterruptManagerHigh in BANK11

    None.

Critical Paths under _main in BANK12

    None.

Critical Paths under _InterruptManagerHigh in BANK12

    None.

Critical Paths under _main in BANK13

    None.

Critical Paths under _InterruptManagerHigh in BANK13

    None.

Critical Paths under _main in BANK14

    None.

Critical Paths under _InterruptManagerHigh in BANK14

    None.

Critical Paths under _main in BANK15

    None.

Critical Paths under _InterruptManagerHigh in BANK15

    None.

Call Graph Tables:

 ---------------------------------------------------------------------------------
 (Depth) Function   	        Calls       Base Space   Used Autos Params    Refs
 ---------------------------------------------------------------------------------
 (0) _main                                                 1     1      0  136593
             _application_initialize
                       _get_rtc_time
                          _set_alarm
                  _seven_seg_display
 ---------------------------------------------------------------------------------
 (1) _seven_seg_display                                    4     2      2   20083
                                             11 BANK0      3     1      2
                            ___awdiv
                            ___awmod
               _gpio_pin_write_logic
         _seven_segment_write_number
 ---------------------------------------------------------------------------------
 (2) ___awmod                                              6     2      4    2233
                                             18 COMRAM     2     2      0
                                              0 BANK0      4     0      4
 ---------------------------------------------------------------------------------
 (2) ___awdiv                                              8     4      4    2245
                                              0 BANK0      8     4      4
 ---------------------------------------------------------------------------------
 (1) _set_alarm                                            1     1      0   51858
                      _hours_display
                   _keypad_get_value
                    _minutes_display
                    _seconds_display
 ---------------------------------------------------------------------------------
 (2) _seconds_display                                      1     1      0   14666
               _gpio_pin_write_logic
         _seven_segment_write_number
 ---------------------------------------------------------------------------------
 (2) _minutes_display                                      1     1      0   14663
               _gpio_pin_write_logic
         _seven_segment_write_number
 ---------------------------------------------------------------------------------
 (2) _keypad_get_value                                     8     6      2    7857
                                              5 BANK0      8     6      2
                _gpio_pin_read_logic
               _gpio_pin_write_logic
 ---------------------------------------------------------------------------------
 (3) _gpio_pin_read_logic                                  7     5      2     586
                                             18 COMRAM     3     1      2
                                              0 BANK0      4     4      0
 ---------------------------------------------------------------------------------
 (2) _hours_display                                        1     1      0   14660
               _gpio_pin_write_logic
         _seven_segment_write_number
 ---------------------------------------------------------------------------------
 (2) _seven_segment_write_number                           3     1      2    8582
                                              8 BANK0      3     1      2
                            ___awdiv (ARG)
                            ___awmod (ARG)
               _gpio_pin_write_logic
 ---------------------------------------------------------------------------------
 (1) _get_rtc_time                                         1     1      0     574
                                              7 BANK0      1     1      0
                _Get_DS1307_RTC_Time
                            _InitI2C
 ---------------------------------------------------------------------------------
 (2) _InitI2C                                              0     0      0       0
 ---------------------------------------------------------------------------------
 (2) _Get_DS1307_RTC_Time                                  3     1      2     574
                                             19 COMRAM     2     0      2
                                              6 BANK0      1     1      0
         _Read_Bytes_From_DS1307_RTC
 ---------------------------------------------------------------------------------
 (3) _Read_Bytes_From_DS1307_RTC                           6     3      3     574
                                              0 BANK0      6     3      3
                        _I2C_ReStart
                      _I2C_Read_Byte
                       _I2C_Send_ACK
                      _I2C_Send_NACK
                          _I2C_Start
                           _I2C_Stop
                     _I2C_Write_Byte
 ---------------------------------------------------------------------------------
 (4) _I2C_Write_Byte                                       1     1      0      22
                                             18 COMRAM     1     1      0
 ---------------------------------------------------------------------------------
 (4) _I2C_Stop                                             0     0      0       0
 ---------------------------------------------------------------------------------
 (4) _I2C_Start                                            0     0      0       0
 ---------------------------------------------------------------------------------
 (4) _I2C_Send_NACK                                        0     0      0       0
 ---------------------------------------------------------------------------------
 (4) _I2C_Send_ACK                                         0     0      0       0
 ---------------------------------------------------------------------------------
 (4) _I2C_Read_Byte                                        0     0      0       0
 ---------------------------------------------------------------------------------
 (4) _I2C_ReStart                                          0     0      0       0
 ---------------------------------------------------------------------------------
 (1) _application_initialize                               1     1      0   64075
               _ecu_layer_initialize
              _mcal_layer_initialize
 ---------------------------------------------------------------------------------
 (2) _mcal_layer_initialize                                1     1      0   29585
                _Interrupt_INTx_Init
                 _Interrupt_RBx_Init
                        _Timer0_Init
                _gpio_pin_initialize
 ---------------------------------------------------------------------------------
 (3) _Timer0_Init                                          4     3      1    1020
                                             20 COMRAM     1     0      1
                                              0 BANK0      3     3      0
                 _Timer0_Mode_Select
            _Timer0_Prescaler_Config
        _Timer0_Register_Size_Config
 ---------------------------------------------------------------------------------
 (4) _Timer0_Register_Size_Config                          1     0      1     183
                                             18 COMRAM     1     0      1
 ---------------------------------------------------------------------------------
 (4) _Timer0_Prescaler_Config                              2     1      1     214
                                             18 COMRAM     2     1      1
 ---------------------------------------------------------------------------------
 (4) _Timer0_Mode_Select                                   1     0      1     245
                                             18 COMRAM     1     0      1
 ---------------------------------------------------------------------------------
 (3) _Interrupt_RBx_Init                                   2     1      1    9575
                                             10 BANK0      2     1      1
              _Interrupt_RBx_Disable
               _Interrupt_RBx_Enable
             _Interrupt_RBx_Pin_Init
        _Interrupt_RBx_Priority_Init
 ---------------------------------------------------------------------------------
 (4) _Interrupt_RBx_Priority_Init                          2     1      1     161
                                             18 COMRAM     2     1      1
 ---------------------------------------------------------------------------------
 (4) _Interrupt_RBx_Pin_Init                               2     1      1    8336
                                              8 BANK0      2     1      1
                _gpio_pin_initialize
 ---------------------------------------------------------------------------------
 (4) _Interrupt_RBx_Enable                                 2     1      1     161
                                             18 COMRAM     2     1      1
 ---------------------------------------------------------------------------------
 (4) _Interrupt_RBx_Disable                                2     1      1     251
                                             18 COMRAM     2     1      1
 ---------------------------------------------------------------------------------
 (3) _Interrupt_INTx_Init                                  2     1      1   10825
                                             10 BANK0      2     1      1
          _Interrupt_INTx_Clear_Flag
             _Interrupt_INTx_Disable
           _Interrupt_INTx_Edge_Init
              _Interrupt_INTx_Enable
            _Interrupt_INTx_Pin_Init
 _Interrupt_INTx_SetInterruptHandler
 ---------------------------------------------------------------------------------
 (4) _Interrupt_INTx_SetInterruptHandler                   4     3      1     870
                                              0 BANK0      4     3      1
           _INT0_SetInterruptHandler
           _INT1_SetInterruptHandler
           _INT2_SetInterruptHandler
 ---------------------------------------------------------------------------------
 (5) _INT2_SetInterruptHandler                             3     1      2     192
                                             18 COMRAM     3     1      2
 ---------------------------------------------------------------------------------
 (5) _INT1_SetInterruptHandler                             3     1      2     192
                                             18 COMRAM     3     1      2
 ---------------------------------------------------------------------------------
 (5) _INT0_SetInterruptHandler                             3     1      2     192
                                             18 COMRAM     3     1      2
 ---------------------------------------------------------------------------------
 (4) _Interrupt_INTx_Pin_Init                              2     1      1    8333
                                              8 BANK0      2     1      1
                _gpio_pin_initialize
 ---------------------------------------------------------------------------------
 (4) _Interrupt_INTx_Enable                                4     3      1     201
                                             18 COMRAM     3     2      1
                                              0 BANK0      1     1      0
 ---------------------------------------------------------------------------------
 (4) _Interrupt_INTx_Edge_Init                             4     3      1     387
                                             18 COMRAM     3     2      1
                                              0 BANK0      1     1      0
 ---------------------------------------------------------------------------------
 (4) _Interrupt_INTx_Disable                               4     3      1     291
                                             18 COMRAM     3     2      1
                                              0 BANK0      1     1      0
 ---------------------------------------------------------------------------------
 (4) _Interrupt_INTx_Clear_Flag                            4     3      1     201
                                             18 COMRAM     3     2      1
                                              0 BANK0      1     1      0
 ---------------------------------------------------------------------------------
 (2) _ecu_layer_initialize                                 1     1      0   34487
                _gpio_pin_initialize
                  _keypad_initialize
                     _led_initialize
           _seven_segment_initialize
 ---------------------------------------------------------------------------------
 (3) _seven_segment_initialize                             2     1      1    8438
                                              8 BANK0      2     1      1
                _gpio_pin_initialize
 ---------------------------------------------------------------------------------
 (3) _led_initialize                                       4     3      1    8765
                                              8 BANK0      4     3      1
                _gpio_pin_initialize
 ---------------------------------------------------------------------------------
 (3) _keypad_initialize                                    4     3      1    9104
                                              8 BANK0      4     3      1
      _gpio_pin_direction_initialize
                _gpio_pin_initialize
 ---------------------------------------------------------------------------------
 (3) _gpio_pin_initialize                                  3     2      1    8141
                                              5 BANK0      3     2      1
      _gpio_pin_direction_initialize
               _gpio_pin_write_logic
 ---------------------------------------------------------------------------------
 (3) _gpio_pin_write_logic                                 8     6      2    6060
                                             18 COMRAM     3     1      2
                                              0 BANK0      5     5      0
 ---------------------------------------------------------------------------------
 (4) _gpio_pin_direction_initialize                        7     6      1     530
                                             18 COMRAM     2     1      1
                                              0 BANK0      5     5      0
 ---------------------------------------------------------------------------------
 Estimated maximum stack depth 5
 ---------------------------------------------------------------------------------
 (Depth) Function   	        Calls       Base Space   Used Autos Params    Refs
 ---------------------------------------------------------------------------------
 (7) _InterruptManagerHigh                                 6     6      0   27905
                                             12 COMRAM     6     6      0
                           _INT0_ISR
                           _INT1_ISR
                           _INT2_ISR
                            _RB4_ISR
                            _RB5_ISR
                            _RB6_ISR
                            _RB7_ISR
                           _TMR0_ISR
 ---------------------------------------------------------------------------------
 (8) _TMR0_ISR                                             0     0      0     701
                                NULL *
           _TIMER0_IneterruptHandler *
 ---------------------------------------------------------------------------------
 (9) _TIMER0_IneterruptHandler                             0     0      0     701
              _gpio_pin_toggle_logic
                         _led_toggle
 ---------------------------------------------------------------------------------
 (10) _led_toggle                                          4     3      1     452
                                              5 COMRAM     3     2      1
              _gpio_pin_toggle_logic
 ---------------------------------------------------------------------------------
 (11) _gpio_pin_toggle_logic                               6     5      1     249
                                              0 COMRAM     5     4      1
 ---------------------------------------------------------------------------------
 (8) _RB7_ISR                                              1     1      0    3720
                                             11 COMRAM     1     1      0
                                NULL *
         _RB0_PauseIneterruptHandler *
         _RB1_ClockIneterruptHandler *
 ---------------------------------------------------------------------------------
 (8) _RB6_ISR                                              1     1      0    3720
                                             11 COMRAM     1     1      0
                                NULL *
         _RB0_PauseIneterruptHandler *
         _RB1_ClockIneterruptHandler *
 ---------------------------------------------------------------------------------
 (8) _RB5_ISR                                              1     1      0    3720
                                             11 COMRAM     1     1      0
                                NULL *
         _RB0_PauseIneterruptHandler *
         _RB1_ClockIneterruptHandler *
 ---------------------------------------------------------------------------------
 (8) _RB4_ISR                                              1     1      0    3720
                                             11 COMRAM     1     1      0
                                NULL *
         _RB0_PauseIneterruptHandler *
         _RB1_ClockIneterruptHandler *
 ---------------------------------------------------------------------------------
 (9) _RB1_ClockIneterruptHandler                           1     1      0    2054
                       _led_turn_off
                        _led_turn_on
 ---------------------------------------------------------------------------------
 (9) _RB0_PauseIneterruptHandler                           1     1      0    1604
              _Data_EEPROM_Read_Byte
             _Data_EEPROM_Write_Byte
 ---------------------------------------------------------------------------------
 (10) _Data_EEPROM_Write_Byte                              5     2      3     569
                                              0 COMRAM     4     1      3
 ---------------------------------------------------------------------------------
 (10) _Data_EEPROM_Read_Byte                               4     1      3    1025
                                              0 COMRAM     4     1      3
 ---------------------------------------------------------------------------------
 (8) _INT2_ISR                                             0     0      0    4108
                                NULL *
        _INT0_ResetIneterruptHandler *
      _INT1_CountUpIneterruptHandler *
    _INT2_CountDownIneterruptHandler *
 ---------------------------------------------------------------------------------
 (8) _INT1_ISR                                             0     0      0    4108
                                NULL *
        _INT0_ResetIneterruptHandler *
      _INT1_CountUpIneterruptHandler *
    _INT2_CountDownIneterruptHandler *
 ---------------------------------------------------------------------------------
 (8) _INT0_ISR                                             0     0      0    4108
                                NULL *
        _INT0_ResetIneterruptHandler *
      _INT1_CountUpIneterruptHandler *
    _INT2_CountDownIneterruptHandler *
 ---------------------------------------------------------------------------------
 (9) _INT2_CountDownIneterruptHandler                      1     1      0    2054
                       _led_turn_off
                        _led_turn_on
 ---------------------------------------------------------------------------------
 (9) _INT1_CountUpIneterruptHandler                        1     1      0    2054
                       _led_turn_off
                        _led_turn_on
 ---------------------------------------------------------------------------------
 (10) _led_turn_on                                         4     3      1     886
                                              7 COMRAM     4     3      1
             i2_gpio_pin_write_logic
 ---------------------------------------------------------------------------------
 (10) _led_turn_off                                        4     3      1    1156
                                              7 COMRAM     4     3      1
             i2_gpio_pin_write_logic
 ---------------------------------------------------------------------------------
 (11) i2_gpio_pin_write_logic                              8     6      2     376
                                              0 COMRAM     7     5      2
 ---------------------------------------------------------------------------------
 (9) _INT0_ResetIneterruptHandler                          0     0      0       0
 ---------------------------------------------------------------------------------
 (9) NULL(Fake)                                            0     0      0       0
 ---------------------------------------------------------------------------------
 Estimated maximum stack depth 11
 ---------------------------------------------------------------------------------

 Call Graph Graphs:

 _main (ROOT)
   _application_initialize
     _ecu_layer_initialize
       _gpio_pin_initialize
         _gpio_pin_direction_initialize
         _gpio_pin_write_logic
       _keypad_initialize
         _gpio_pin_direction_initialize
         _gpio_pin_initialize
       _led_initialize
         _gpio_pin_initialize
       _seven_segment_initialize
         _gpio_pin_initialize
     _mcal_layer_initialize
       _Interrupt_INTx_Init
         _Interrupt_INTx_Clear_Flag
         _Interrupt_INTx_Disable
         _Interrupt_INTx_Edge_Init
         _Interrupt_INTx_Enable
         _Interrupt_INTx_Pin_Init
           _gpio_pin_initialize
         _Interrupt_INTx_SetInterruptHandler
           _INT0_SetInterruptHandler
           _INT1_SetInterruptHandler
           _INT2_SetInterruptHandler
       _Interrupt_RBx_Init
         _Interrupt_RBx_Disable
         _Interrupt_RBx_Enable
         _Interrupt_RBx_Pin_Init
           _gpio_pin_initialize
         _Interrupt_RBx_Priority_Init
       _Timer0_Init
         _Timer0_Mode_Select
         _Timer0_Prescaler_Config
         _Timer0_Register_Size_Config
       _gpio_pin_initialize
   _get_rtc_time
     _Get_DS1307_RTC_Time
       _Read_Bytes_From_DS1307_RTC
         _I2C_ReStart
         _I2C_Read_Byte
         _I2C_Send_ACK
         _I2C_Send_NACK
         _I2C_Start
         _I2C_Stop
         _I2C_Write_Byte
     _InitI2C
   _set_alarm
     _hours_display
       _gpio_pin_write_logic
       _seven_segment_write_number
         ___awdiv (ARG)
         ___awmod (ARG)
         _gpio_pin_write_logic (ARG)
     _keypad_get_value
       _gpio_pin_read_logic
       _gpio_pin_write_logic
     _minutes_display
       _gpio_pin_write_logic
       _seven_segment_write_number
     _seconds_display
       _gpio_pin_write_logic
       _seven_segment_write_number
   _seven_seg_display
     ___awdiv
     ___awmod
     _gpio_pin_write_logic
     _seven_segment_write_number

 _InterruptManagerHigh (ROOT)
   _INT0_ISR
     NULL(Fake) *
     _INT0_ResetIneterruptHandler *
     _INT1_CountUpIneterruptHandler *
       _led_turn_off
         i2_gpio_pin_write_logic
       _led_turn_on
         i2_gpio_pin_write_logic
     _INT2_CountDownIneterruptHandler *
       _led_turn_off
       _led_turn_on
   _INT1_ISR
     NULL(Fake) *
     _INT0_ResetIneterruptHandler *
     _INT1_CountUpIneterruptHandler *
     _INT2_CountDownIneterruptHandler *
   _INT2_ISR
     NULL(Fake) *
     _INT0_ResetIneterruptHandler *
     _INT1_CountUpIneterruptHandler *
     _INT2_CountDownIneterruptHandler *
   _RB4_ISR
     NULL(Fake) *
     _RB0_PauseIneterruptHandler *
       _Data_EEPROM_Read_Byte
       _Data_EEPROM_Write_Byte
     _RB1_ClockIneterruptHandler *
       _led_turn_off
       _led_turn_on
   _RB5_ISR
     NULL(Fake) *
     _RB0_PauseIneterruptHandler *
     _RB1_ClockIneterruptHandler *
   _RB6_ISR
     NULL(Fake) *
     _RB0_PauseIneterruptHandler *
     _RB1_ClockIneterruptHandler *
   _RB7_ISR
     NULL(Fake) *
     _RB0_PauseIneterruptHandler *
     _RB1_ClockIneterruptHandler *
   _TMR0_ISR
     NULL(Fake) *
     _TIMER0_IneterruptHandler *
       _gpio_pin_toggle_logic
       _led_toggle
         _gpio_pin_toggle_logic

 Address spaces:
Name               Size   Autos  Total    Cost      Usage
BIGRAM             F7F      0       0      45        0.0%
EEDATA             400      0       0       0        0.0%
BITBANK14          100      0       0      32        0.0%
BANK14             100      0       0      33        0.0%
BITBANK13          100      0       0      30        0.0%
BANK13             100      0       0      31        0.0%
BITBANK12          100      0       0      28        0.0%
BANK12             100      0       0      29        0.0%
BITBANK11          100      0       0      26        0.0%
BANK11             100      0       0      27        0.0%
BITBANK10          100      0       0      24        0.0%
BANK10             100      0       0      25        0.0%
BITBANK9           100      0       0      22        0.0%
BANK9              100      0       0      23        0.0%
BITBANK8           100      0       0      20        0.0%
BANK8              100      0       0      21        0.0%
BITBANK7           100      0       0      18        0.0%
BANK7              100      0       0      19        0.0%
BITBANK6           100      0       0      16        0.0%
BANK6              100      0       0      17        0.0%
BITBANK5           100      0       0      14        0.0%
BANK5              100      0       0      15        0.0%
BITBANK4           100      0       0      12        0.0%
BANK4              100      0       0      13        0.0%
BITBANK3           100      0       0      10        0.0%
BANK3              100      0       0      11        0.0%
BITBANK2           100      0       0       8        0.0%
BANK2              100      0       0       9        0.0%
BITBANK1           100      0       0       6        0.0%
BANK1              100      0       0       7        0.0%
BITBANK15           80      0       0      34        0.0%
BANK15              80      0       0      35        0.0%
BITBANK0            80      0       0       4        0.0%
BANK0               80      E      59       5       69.5%
BITCOMRAM           7E      0       0       0        0.0%
COMRAM              7E     15      6C       1       85.7%
BITBIGSFRlhlll      1A      0       0      39        0.0%
BITBIGSFRlhlhh      18      0       0      37        0.0%
BITBIGSFRh           D      0       0      36        0.0%
BITBIGSFRlhllh       B      0       0      38        0.0%
BITBIGSFRlllhh       7      0       0      40        0.0%
BITBIGSFRlllhl       7      0       0      41        0.0%
BITBIGSFRllllh       4      0       0      42        0.0%
BITBIGSFRlllll       4      0       0      43        0.0%
BIGSFR               0      0       0     200        0.0%
BITSFR               0      0       0     200        0.0%
SFR                  0      0       0     200        0.0%
STACK                0      0       0       2        0.0%
NULL                 0      0       0       0        0.0%
ABS                  0      0      C5      44        0.0%
DATA                 0      0      C5       3        0.0%
CODE                 0      0       0       0        0.0%


Microchip Technology PIC18 Macro Assembler V2.46 build 20240104201356 
Symbol Table                                                                                   Fri Oct 18 01:38:08 2024

                                             l9 2C44                                              l16 2394  
                                            l61 28D8                                              l56 28D6  
                                            l75 1D7A                                              l67 1D78  
                                            l84 2636                                              l88 2694  
                          ??_Interrupt_RBx_Init 006B                                    ___awdiv@sign 00D0  
                                 ?_get_rtc_time 0056                                             l211 1946  
                                           l230 1A60                                             l144 261A  
                                           l217 1948                                             l402 1B76  
                                           l243 21D2                                             l236 1A62  
                                           l500 3138                                             l413 253E  
                                           l501 313A                                             l415 254E  
                                           l511 2F9E                                             l424 27A0  
                                           l416 2558                                             l504 30EC  
                                           l257 2A18                                             l505 30F4  
                                           l426 27AC                                             l418 25A0  
                                           l506 30F6                                             l610 24A0  
                                           l427 27B2                                             l460 2812  
                                           l429 27F6                                             l605 2B42  
                                           l462 281E                                             l454 3054  
                                           l470 30D2                                             l622 2E2A  
                                           l463 2824                                             l615 24A0  
                                           l480 307E                                             l465 2868  
                                           l449 182C                                             l385 2A7E  
                                           l475 30A8                                             l491 227A  
                                           l803 3270                                             l581 230C  
                                           l494 3110                                             l806 1478  
                                           l495 3116                                             l663 2EB6  
                                           l911 3258                                             l496 3118  
                                           l920 3236                                             l922 3244  
                                           l914 3222                                             l499 3132  
                                           l579 2296                                             l923 3246  
                                           l827 170C                                             l932 31E4  
                                           l940 31DC                                             l916 3230  
                                           l941 31DE                                             l917 3232  
                                           l950 31F8                                             l934 31F2  
                                           l926 320E                                             l935 31F4  
                                           l871 2BEE                                             l952 3206  
                                           l928 321C                                             l944 3142  
                                           l880 2E70                                             l953 320A  
                                           l929 321E                                             l938 31CE  
                                           l946 3150                                             l874 2AE0  
                                           l786 1F10                                             l947 3158  
                                           l796 1FC4                                             l877 2946  
                                           _PEN 7E2A                                             _SEN 7E28  
                    ??_INT0_SetInterruptHandler 006A                            keypad_initialize@pad 00D3  
                        ??_InterruptManagerHigh 0062                       _RB5_InterruptHandler_HIGH 0015  
                                           _ptr 006B                                    ___awmod@sign 0069  
                            I2C_Write_Byte@Byte 0068                             led_initialize@F3067 0030  
                                           tosl 0FFD                                             wreg 0FE8  
                   ?_seven_segment_write_number 00D3                                    ?_led_turn_on 005D  
                               __end_of_RB4_ISR 2D96                                 __end_of_RB5_ISR 2D42  
                               __end_of_RB6_ISR 2CEE                                 __end_of_RB7_ISR 2C9A  
                                          l1001 241A                                            l1012 210C  
                                          l1016 212A                                            l1256 1E40  
                                          l1269 207C                                            l5000 182E  
                                          l5010 1912                                            l5002 183E  
                                          l5012 1916                                            l5004 1860  
                                          l5020 29C4                                            l5100 2814  
                                          l5014 1942                                            l5006 1868  
                                          l5022 29E4                                            l5110 2866  
                                          l5008 18C0                                            l5024 29EC  
                                          l5120 171E                                            l5200 2544  
                                          l5040 30CC                                            l5032 30AA  
                                          l6000 131A                                            l5026 2A12  
                                          l5018 29B2                                            l5130 1764  
                                          l5122 1728                                            l5210 259E  
                                          l5042 30D0                                            l5034 30AA  
                                          l5050 3092                                            l2642 3248  
                                          l6010 1364                                            l6002 1322  
                                          l5028 2A16                                            l5108 282A  
                                          l5132 176E                                            l5124 1742  
                                          l5036 30BC                                            l5052 309A  
                                          l5060 3056                                            l5220 312A  
                                          l5300 31E0                                            l2644 324C  
                                          l6020 13B2                                            l6012 1370  
                                          l6004 132E                                            l5142 17AE  
                                          l5134 1788                                            l5126 1748  
                                          l5118 170E                                            l5038 30C4  
                                          l5054 30A2                                            l5046 3080  
                                          l5070 307C                                            l5062 3056  
                                          l5222 3134                                            l5230 30F0  
                                          l5302 31CA                                            l6030 1416  
                                          l6022 13D4                                            l6014 1392  
                                          l6006 1350                                            l5400 28BE  
                                          l5144 17C8                                            l5136 178E  
                                          l5128 1762                                            l5208 2562  
                                          l5056 30A6                                            l5048 3080  
                                          l5064 3068                                            l5240 2F96  
                                          l5304 313E                                            l6040 1464  
                                          l6032 1422                                            l6024 13E0  
                                          l6016 139E                                            l6008 135C  
                                          l5402 28C2                                            l5410 262E  
                                          l5074 2786                                            l5146 17CE  
                                          l5138 17A8                                            l5154 17EE  
                                          l5170 3052                                            l5066 3070  
                                          l5218 311A                                            l5250 3112  
                                          l5242 2F9C                                            l5234 2F72  
                                          l5226 30D4                                            l5306 31F6  
                                          l6042 146C                                            l6034 142A  
                                          l6026 13E8                                            l6018 13A6  
                                          l5404 28D2                                            l5420 268C  
                                          l5412 263A                                            l5340 2C3E  
                                          l5076 2796                                            l5148 17E8  
                                          l5156 182A                                            l5164 302A  
                                          l5068 3078                                            l5180 2208  
                                          l5236 2F84                                            l5228 30E4  
                                          l5500 1B08                                            l5260 2B0C  
                                          l5308 3208                                            l6036 1436  
                                          l6028 13F4                          ??_Interrupt_RBx_Enable 0069  
                                          l5414 2670                                            l5422 2692  
                                          l5342 2C42                                            l5334 2BF0  
                                          l5078 27A2                                            l5086 27B8  
                                          l5166 303C                                            l5182 2222  
                                          l5174 21D4                                            l5246 30F8  
                                          l5238 2F8C                                            l5502 1B16  
                                          l5510 1B74                                            l5270 2444  
                                          l5262 2B28                                            l5254 2AE2  
                                          l5350 2330                                            l6038 1458  
                                          l5416 2682                                            l5408 261C  
                                          l5336 2C02                                            l5096 27F8  
                                          l5088 27F4                                            l5168 3044  
                                          l5176 21E6                                            l5248 3108  
                                          l5504 1B2C                                            l5280 2482  
                                          l5272 244A                                            l5264 2B40  
                                          l5256 2AF2                                            l5520 22B0  
                                          l5352 2338                                            l5360 212C  
                                          l5418 2684                                            l5338 2C0A  
                                          l5098 2808                                            l5178 21EE  
                                          l5186 223C                                            l5506 1B30  
                                          l5282 249A                                            l5274 2462  
                                          l5266 241C                                            l5258 2B0A  
                                          l5290 2E10                                            l5530 22F2  
                                          l5522 22CE                                            l5514 227C  
                                          l5354 238E                                            l5346 230E  
                                          l5370 21CC                                            l5362 213C  
                                          l5610 1D50                                            l6250 1F20  
                                          l5380 288C                                            l5196 2524  
                                          l5188 2278                                            l5508 1B68  
                                          l5276 2464                                            l5268 242C  
                                          l5292 2E28                                            l5284 2DE2  
                                          l5532 2300                                            l5524 22DC  
                                          l5540 230A                                            l5516 228C  
                                          l5356 2392                                            l5348 2320  
                                          l5372 21D0                                            l5364 214C  
                                          l5612 1D52                                            l5604 1D0C  
                                          l5700 28DA                                            l6260 1F6C  
                                          l6252 1F28                                            l6244 1F08  
                                          l5390 289E                                            l5630 25C0  
                                          l5622 25A2                                            l5198 2534  
                                          l5470 2A64                                            l5462 2A1A  
                                          l5278 247C                                            l5286 2DF2  
                                          l5534 2302                                            l5526 22EE  
                                          l5518 2298                                            l5294 3220  
                                          l5550 23B4                                            l5366 216E  
                                          l5614 1D62                                            l5606 1D1C  
                                          l5710 2916                                            l5702 28E6  
                                          l6262 1F7E                                            l6254 1F3A  
                                          l6246 1F08                                            l5392 28AE  
                                          l5376 286A                                            l5640 25F2  
                                          l5632 25CA                                            l5624 25A2  
                                          l5472 2A70                                            l5464 2A2C  
                                          l5480 1A76                                            l5288 2E0A  
                                          l5536 2304                                            l5528 22F0  
                                          l5296 3234                                            l5560 23E2  
                                          l5552 23BC                                            l5544 239A  
                                          l5368 2176                                            l5616 1D64  
                                          l5608 1D2E                                            l5712 2926  
                                          l5704 28F6                                            l5800 1E0A  
                                          l6264 1F8E                                            l6256 1F4C  
                                          l6248 1F0C                                            l5386 2890  
                                          l5378 2884                                            l5642 25FC  
                                          l5634 25D4                                            l5626 25AC  
                                          l5474 2A7C                                            l5466 2A34  
                                          l5490 1AAA                                            l5482 1A7E  
                                          l5538 2306                                            l5650 2E72  
                                          l5298 320C                                            l5562 23E6  
                                          l5554 23C0                                            l5618 1D74  
                                          l5570 1C82                                            l5714 2932  
                                          l5706 2902                                            l5810 1E30  
                                          l5802 1E12                                            l6258 1F5C  
                                          l6266 1FA0                                            l5388 289A  
                                          l5644 2606                                            l5636 25DE  
                                          l5628 25B6                                            l5468 2A58  
                                          l5492 1AC0                                            l5484 1A86  
                                          l5660 2EA2                                            l5652 2E7A  
                                          l5564 23F6                                            l5556 23C6  
                                          l5548 239E                                            l5572 1CA4  
                                          l5716 293A                                            l5708 290A  
                                          l5812 1E38                                            l5804 1E14  
                                          l5820 1FE0                                            l6268 1FB2  
                                          l5398 28B2                                            l5646 2610  
                                          l5638 25E8                                            l5494 1ACE  
                                          l5486 1A90                                            l5478 1A64  
                                          l5662 2EAC                                            l5654 2E84  
                                          l5566 23FC                                            l5558 23D4  
                                          l5750 20B2                                            l5742 207E  
                                          l5670 2BB6                                            l5590 1CD2  
                                          l5582 1CC0                                            l5574 1CB4  
                                          l5806 1E1A                                            l5830 2014  
                                          l5822 1FE8                                            l5496 1AE4  
                                          l5488 1A9C                                            l5656 2E8E  
                                          l5648 2E72                                            l5920 3268  
                                          l5568 2412                                            l5760 20EE  
                                          l5752 20C6                                            l5744 2092  
                                          l5672 2BBE                                            l5664 2B9A  
                                          l5592 1CD6                                            l5576 1CBC  
                                          l5680 2A80                                            l5808 1E20  
                                          l5840 2050                                            l5832 201C  
                                          l5824 1FEC                                            l5816 1FCC  
                                          l6490 27D6                                            l5498 1AF2  
                                          l5658 2E98                                            l5922 326C  
                                          l5762 20F2                                            l5754 20D4  
                                          l5746 2096                                            l5930 2E44  
                                          l5674 2BCA                                            l5666 2B9A  
                                          l5594 1CE6                                            l5690 2AB0  
                                          l5682 2A80                                            l5842 2056  
                                          l5834 2024                                            l5826 1FFA  
                                          l5818 1FD0                                            l4980 197C  
                                          l6492 2848                                            l6484 225A  
                                          l5764 2110                                            l5756 20E2  
                                          l5748 20AE                                            l5932 2E54  
                                          l5924 2E2C                                            l5676 2BDA  
                                          l5668 2BAA                                            l5596 1CF4  
                                          l5588 1CC4                                            l5692 2ABC  
                                          l5684 2A8C                                            l5940 15E4  
                                          l5780 1D9C                                            l5772 1D7C  
                                          l5836 2032                                            l5844 205C  
                                          l5828 2002                                            l6494 1A46  
                                          l4990 1A5C                                            l4982 1984  
                                          l6486 2580                                            l5918 3268  
                                          l5766 2124                                            l5758 20EA  
                                          l5934 2E64                                            l5926 2E30  
                                          l5678 2BE6                                            l5598 1D06  
                                          l5694 2ACC                                            l5686 2A9C  
                                          l5950 161C                                            l5942 15F4  
                                          l5790 1DD0                                            l5782 1DAA  
                                          l5774 1D82                                            l5846 206C  
                                          l5838 2048                                            l4984 19DC  
                                          l4976 194A                                            l6488 180C  
                                          l5768 2128                                            l5928 2E36  
                                          l5696 2AD8                                            l5688 2AA8  
                                          l5960 165A                                            l5952 1624  
                                          l5944 1600                                            l5936 15D6  
                                          l5792 1DD8                                            l5784 1DB2  
                                          l5776 1D90                                            l5848 2074  
                                          l4986 1A2E                                            l4978 195A  
                                          l5698 28DA                                            l5970 168A  
                                          l5962 165C                                            l5954 1630  
                                          l5946 1602                                            l5938 15D6  
                                          l5794 1DE0                                            l5786 1DB6  
                                          l5778 1D98                                            l4988 1A32  
                                          l5980 16C8                                            l5972 1698  
                                          l5964 166E                                            l5956 163E  
                                          l5948 1614                                            l5796 1DEE  
                                          l5788 1DBE                                            l5990 16FC  
                                          l5982 16D0                                            l5974 16A8  
                                          l5966 1676                                            l5958 164E  
                                          l5798 1DF4                                            l5992 1708  
                                          l5984 16D8                                            l5976 16B4  
                                          l5968 167E                                            l5986 16E4  
                                          l5978 16B6                                            l5994 12EC  
                                          l5988 16F0                                            l5996 12EC  
                                          l5998 130E                                            _LATA 0F89  
                                          _LATB 0F8A                                            _LATC 0F8B  
                                          _LATD 0F8C                                            _LATE 0F8D  
                                          u5000 228C                                            u5001 2288  
                                          u5010 23B4                                            u5011 23B0  
                                          u4300 195A                                            u5020 2412  
                                          u5100 20E2                                            u4301 1956  
                                          u5021 240E                                            u5101 20DE  
                                          u4310 197C                                            u5030 1CA4  
                                          u5110 1D90                                            u4311 1978  
                                          u5031 1CA0                                            u5111 1D8C  
                                          u4400 29E4                                            u5040 1CB4  
                                          u5120 1DAA                                            u5200 2032  
                                          u4401 29E0                                            u5041 1CB0  
                                          u5121 1DA6                                            u5201 202E  
                                          u4410 30BC                                            u5050 1CE6  
                                          u5130 1DD0                                            u5210 2048  
                                          u4411 30B8                                            u5051 1CE2  
                                          u5131 1DCC                                            u5211 2044  
                                          u4340 183E                                            u4324 19A2  
                                          u4500 17A8                                            u4420 3092  
                                          u5060 1D2E                                            u5140 1DEE  
                                          u5220 206C                                            u6020 1F20  
                                          u4341 183A                                            u4325 199E  
                                          u4501 17A4                                            u4421 308E  
                                          u5061 1D2A                                            u5141 1DEA  
                                          u5221 2068                                            u6021 1F1C  
                                          u4350 1860                                            u4334 19FA  
                                          u4510 17C8                                            u4430 3068  
                                          u5070 1D62                                            u5150 1E0A  
                                          u6030 1F3A                                            u4351 185C  
                                          u4335 19F6                                            u4511 17C4  
                                          u4431 3064                                            u5071 1D5E  
                                          u5151 1E06                                            u6031 1F36  
                                          u4440 2796                                            u4520 17E8  
                                          u4600 2AF2                                            u5080 1D74  
                                          u5160 1E30                                            u6040 1F5C  
                                          u4441 2792                                            u4521 17E4  
                                          u4601 2AEE                                            u5081 1D70  
                                          u5161 1E2C                                            u6041 1F58  
                                          u4450 2808                                            u4530 303C  
                                          u4610 2B0A                                            u5090 20D4  
                                          u5170 1FE0                                            u6050 1F6C  
                                          u4451 2804                                            u4531 3038  
                                          u4611 2B06                                            u5091 20D0  
                                          u5171 1FDC                                            u6107 131C  
                                          u6051 1F68                                            u4380 192C  
                                          u4364 1886                                            u4460 171E  
                                          u4540 21E6                                            u4620 2B40  
                                          u4700 2E28                                            u5500 16C8  
                                          u5180 1FFA                                            u6060 1F8E  
                                          u4381 1926                                            u4365 1882  
                                          u4461 171A                                            u4541 21E2  
                                          u4621 2B3C                                            u4701 2E24  
                                          u5501 16C4                                            u5181 1FF6  
                                          u6117 135E                                            u6061 1F8A  
                                          u4374 18DE                                            u4390 29C4  
                                          u4470 1742                                            u4550 2534  
                                          u4630 242C                                            u4710 3230  
                                          u5190 2014                                            u6070 1FB2  
                                          u4375 18DA                                            u4391 29C0  
                                          u4471 173E                                            u4551 2530  
                                          u4631 2428                                            u4711 322C  
                                          u6207 1CFC                                            u5191 2010  
                                          u6127 13A0                                            u6071 1FAE  
                                          u4480 1762                                            u4560 312A  
                                          u4640 2444                                            u4720 3244  
                                          u4481 175E                                            u4561 3126  
                                          u4641 2440                                            u4721 3240  
                                          u6217 2BB8                                            u6137 13E2  
                                          u4386 192E                                            u4490 1788  
                                          u4570 30E4                                            u4650 2462  
                                          u4730 321C                                            u5450 15F4  
                                          u4491 1784                                            u4571 30E0  
                                          u4651 245E                                            u4731 3218  
                                          u6227 2BE8                                            u5451 15F0  
                                          u6147 1424                                            u4900 28AE  
                                          u4820 2C02                                            u4580 2F84  
                                          u4660 247C                                            u4740 31F2  
                                          u5460 1614                                            _RCEN 7E2B  
                                          u4901 28AA                                            u4821 2BFE  
                                          u4581 2F80                                            u4661 2478  
                                          u4741 31EE                                            u5461 1610  
                                          u6157 1466                                            u4910 28D2  
                                          u4590 3108                                            u4670 249A  
                                          u4750 31DC                                            u4830 2320  
                                          u5470 164E                                            u4911 28CE  
                                          u4591 3104                                            u4671 2496  
                                          u4751 31D8                                            u4831 231C  
                                          u6167 2904                                            u5471 164A  
                                          u4920 262E                                            u4680 2DF2  
                                          u4760 3150                                            u4840 2330  
                                          u5480 166E                                            u4921 262A  
                                          u4681 2DEE                                            u4761 314C  
                                          u4841 232C                                            u6177 2934  
                                          u5481 166A                                            u4690 2E0A  
                                          u4770 3206                                            u4850 213C  
                                          u5490 16A8                                            u4691 2E06  
                                          u4771 3202                                            u4851 2138  
                                          u6187 2AAA                                            u5491 16A4  
                                          u4860 214C                                            u4861 2148  
                                          u6197 2ADA                                            u4870 216E  
                                          u4935 267E                                            u4871 216A  
                                          u4937 2682                                            u4890 2884  
                                          i2l91 26AE                                            u4891 2880  
                                          u4980 2A2C                                            u4884 21BE  
                                          u4981 2A28                                            u4885 21BA  
                                          u4990 1A76                                            i2l95 270C  
                                          u4991 1A72                                            i2l98 2726  
                                          _RSEN 7E29                           __end_of_hours_display 2BF0  
                 __end_of_mcal_layer_initialize 2EB8                                            _Temp 0021  
                      _RB4_InterruptHandler_LOW 0017                                            _main 1F08  
                   ?_RB0_PauseIneterruptHandler 0056                                            _time 0035  
                      _RB7_InterruptHandler_LOW 000B                                            fsr1h 0FE2  
                                          fsr2h 0FDA                                            indf1 0FE7  
                                          indf2 0FDF                                            fsr1l 0FE1  
                                          fsr2l 0FD9                                            btemp 006D  
                        __end_of_led_initialize 2696                    keypad_get_value@rows_counter 00D6  
                              __end_of_I2C_Stop 3220                       ?_INT2_SetInterruptHandler 0068  
                                          prodh 0FF4                                            prodl 0FF3  
                                          start 000E                  Interrupt_INTx_Edge_Init@retVal 00CB  
                  Interrupt_RBx_Pin_Init@retVal 00D4                                   ?_led_turn_off 005D  
                                  ___param_bank 0000                                 __end_of_InitI2C 325A  
                        ?_gpio_pin_toggle_logic 0056                   Interrupt_INTx_Pin_Init@retVal 00D4  
                          _gpio_pin_write_logic 194A                                  ??_get_rtc_time 00D2  
                        keypad_get_value@retVal 00D3                                __end_of_INT0_ISR 302A  
                              __end_of_INT1_ISR 2FFC                                __end_of_INT2_ISR 2FCE  
                                _paused_minutes 003B                                  _paused_seconds 003A  
                     ?_Interrupt_INTx_Edge_Init 0068                                           ?_main 0056  
                      ??_application_initialize 006B                                           _ACKEN 7E2C  
                                         _ACKDT 7E2D                         ??_Interrupt_RBx_Disable 0069  
                               __end_of___awdiv 1E42                                           _EEADR 0FA9  
                               __end_of___awmod 207E                 gpio_pin_read_logic@logic_status 0069  
                      ??_Data_EEPROM_Write_Byte 0059                                 ___awdiv@divisor 00CD  
                                         i2l102 2784                                           i2l105 295C  
                                         i2l109 29B0                                           i2l161 2EE0  
                                         i2l250 2522                                           i2l163 2EEE  
                                         i2l236 1C80                                           i2l340 3028  
                                         i2l164 2EFC                                           i2l344 2FFA  
                                         i2l169 2F3A                                           i2l348 2FCC  
                                         i2l356 2D94                                           i2l364 2D40  
                                         i2l372 2CEC                                           i2l380 2C98  
                                         i2l626 2F70                                           i2l558 12CC  
                                         i2l833 14D6                                           i2l850 15D4  
                                         i2l853 3266                                           i2l862 3194  
                                         i2l865 31B2                                           i2l859 1F06  
                                         i2l868 3176                                 ___awdiv@counter 00CF  
                                         _TMR0H 0FD7                               ??_minutes_display 006B  
                                         _TMR0L 0FD6                                           _PORTA 0F80  
                                         _PORTB 0F81                                           _PORTC 0F82  
                                         _PORTD 0F83                                           _PORTE 0F84  
                                         _TRISA 0F92                                           _TRISB 0F93  
                                         _TRISC 0F94                                           _TRISD 0F95  
                                         _TRISE 0F96                                           _SSPIF 7CF3  
                   gpio_pin_toggle_logic@config 0056              __end_of_Read_Bytes_From_DS1307_RTC 241C  
                    _Read_Bytes_From_DS1307_RTC 2396                               _seven_seg_display 12E8  
                      __end_of_keypad_get_value 1D7C                               Timer0_Init@retVal 00CD  
                              __end_of_TMR0_ISR 2F72                               Timer0_Init@timer0 006A  
                            ?_seven_seg_display 00D6                       ?_TIMER0_IneterruptHandler 0056  
                          led_initialize@retVal 00D5                                           _hours 003D  
                                  _I2C_Send_ACK 31E0                                           _timer 00A6  
                             __end_of_I2C_Start 3234                        _INT1_SetInterruptHandler 3080  
            __end_of_RB1_ClockIneterruptHandler 3178                      _RB1_ClockIneterruptHandler 315A  
                                         pclath 0FFA                                           pclatu 0FFB  
                                         tablat 0FF5                               ??_seconds_display 006B  
                                         ttemp5 006E                                           ttemp6 0071  
                                         ttemp7 0075                                           status 0FD8  
                 Interrupt_RBx_Pin_Init@int_obj 00D3                             ??_seven_seg_display 006B  
                                         wtemp8 006E                  seven_segment_initialize@retVal 00D4  
                               ?_led_initialize 00D3                          _Interrupt_INTx_Disable 2786  
                       _Timer0_Prescaler_Config 2AE2                                  ??_led_turn_off 005E  
           __end_of_Interrupt_RBx_Priority_Init 30F8                     _Interrupt_RBx_Priority_Init 30D4  
                  ?_INT0_ResetIneterruptHandler 0056       Interrupt_INTx_SetInterruptHandler@int_obj 00CB  
                ?_gpio_pin_direction_initialize 0068                 Interrupt_INTx_Clear_Flag@retVal 00CB  
                               __initialization 2B44                             keypad_get_value@pad 00D0  
                                  __end_of_main 1FCC                           ?_gpio_pin_write_logic 0068  
                   __end_of_Get_DS1307_RTC_Time 212C                                   _lat_registers 008A  
                INT1_SetInterruptHandler@retVal 006A                         keypad_get_value@counter 00D5  
                                        ??_main 006B                       __end_of_seven_seg_display 147A  
                                 __activetblptr 0003                                led_turn_on@F3072 002F  
                                     ??_RB4_ISR 0061                                       ??_RB5_ISR 0061  
                                     ??_RB6_ISR 0061                                       ??_RB7_ISR 0061  
                                        _EEADRH 0FAA                                          _EEDATA 0FA8  
                                        _EECON2 0FA7                                ___awdiv@dividend 00CB  
                                        i2l4200 148C                                          i2l4210 14BA  
                                        i2l4202 149E                                          i2l4220 14FC  
                                        i2l4212 14BC                                          i2l4204 14A2  
                                        i2l4230 1542                                          i2l4222 150C  
                                        i2l4214 14CE                                          i2l4206 14A4  
                                        i2l4240 1574                                          i2l4224 151C  
                                        i2l4232 154A                                          i2l4208 14B6  
                                        i2l4216 14DA                                          i2l4250 15A4  
                                        i2l4234 155A                                          i2l4226 1530  
                                        i2l4218 14EC                                          i2l4242 157A  
                  Interrupt_INTx_Enable@int_obj 0068                                          i2l4260 15D0  
                                        i2l4252 15A6                                          i2l4244 158C  
                                        i2l4236 155C                                          i2l4228 1540  
                                        i2l4500 2F58                                          i2l4270 1E66  
                                        i2l4262 1E42                                          i2l4254 15B8  
                                        i2l4246 158E                                          i2l4238 1564  
                                        i2l5320 1C02                                          i2l5312 1B78  
                                        i2l4280 1EB6                                          i2l4272 1E76  
                                        i2l4264 1E42                                          i2l4256 15BC  
                                        i2l4248 15A0                                          i2l6200 11DA  
                                        i2l5322 1C52                                          i2l5314 1B88  
                                        i2l2586 325A                                          i2l4290 1EF6  
                                        i2l4274 1E86                                          i2l4266 1E52  
                                        i2l4282 1EBE                                          i2l3490 24B2  
                                        i2l4258 15BE                                          i2l6210 121A  
                                        i2l6202 11E0                                          i2l6130 104C  
                                        i2l5324 1C56                                          i2l5316 1BA8  
                                        i2l3900 2ED2                                          i2l4284 1ECE  
                                        i2l4276 1E96                                          i2l4268 1E56  
                                        i2l3492 24D2                                          i2l4196 147A  
                                        i2l6220 124E                                          i2l6212 121E  
                                        i2l6204 11EE                                          i2l6140 1088  
                                        i2l6132 105A                                          i2l6124 102C  
                                        i2l5326 1C80                                          i2l5318 1BAC  
                                        i2l5430 26B2                                          i2l3910 2EFA  
                                        i2l3902 2ED4                                          i2l4286 1ED6  
                                        i2l4278 1EA6                                          i2l3494 24D6  
                                        i2l4198 148A                                          i2l6230 1284  
                                        i2l6222 125E                                          i2l6206 11FC  
                                        i2l6214 1224                                          i2l6150 10C6  
                                        i2l6142 108C                                          i2l6134 1068  
                                        i2l6126 103A                                          i2l5432 26E8  
                                        i2l5440 270A                                          i2l3920 2F1C  
                                        i2l3904 2ED6                                          i2l4288 1EE6  
                                        i2l3496 2522                                          i2l3488 24A2  
                                        i2l6240 12BA                                          i2l6232 1292  
                                        i2l6224 1262                                          i2l6216 1232  
                                        i2l6208 120A                                          i2l6160 10FA  
                                        i2l6152 10CA                                          i2l6144 109A  
                                        i2l6136 106C                                          i2l6128 1048  
                                        i2l5450 2760                                          i2l5434 26F8  
                                        i2l5426 2696                                          i2l3930 2F28  
                                        i2l3922 2F20                                          i2l3914 2EFE  
                                        i2l3906 2EDA                                          i2l6242 12C8  
                                        i2l6234 12A2                                          i2l6218 1240  
                                        i2l6226 1268                                          i2l6170 1130  
                                        i2l6162 110A                                          i2l6146 10A8  
                                        i2l6154 10D0                                          i2l6138 107A  
                                        i2l5452 2770                                          i2l5444 270E  
                                        i2l5436 26FA                                          i2l5428 26A6  
                                        i2l3932 2F2A                                          i2l3924 2F22  
                                        i2l3916 2F0E                                          i2l3908 2EDE  
                                        i2l4492 2F3C                                          i2l6236 12A6  
                                        i2l6228 1276                                          i2l6180 1166  
                                        i2l6172 113E                                          i2l6164 110E  
                                        i2l6156 10DE                                          i2l6148 10B6  
                                        i2l5454 2772                                          i2l5446 271E  
                                        i2l5438 2706                                          i2l3934 2F34  
                                        i2l3926 2F24                                          i2l3918 2F16  
                                        i2l3870 2948                                          i2l4494 2F3E  
                                        i2l6238 12AC                                          i2l6182 1174  
                                        i2l6190 119C                                          i2l6174 114E  
                                        i2l6158 10EC                                          i2l6166 1114  
                                        i2l5456 277E                                          i2l5448 272A  
                                        i2l5720 317C                                          i2l3928 2F26  
                                        i2l3936 2F38                                          i2l3880 29A8  
                                        i2l3872 2958                                          i2l4496 2F42  
                                        i2l6192 11AA                                          i2l6184 1182  
                                        i2l6176 1152                                          i2l6168 1122  
                                        i2l5458 2782                                          i2l5730 31A2  
                                        i2l5722 3184                                          i2l3890 2EC0  
                                        i2l3882 29B0                                          i2l3874 2960  
                                        i2l4498 2F46                                          i2l6194 11B8  
                                        i2l6186 1192                                          i2l6178 1158  
                                        i2l5732 31AA                                          i2l5724 318C  
                                        i2l3892 2EC6                                          i2l5740 316E  
                                        i2l5900 2CB2                                          i2l3876 2996  
                                        i2l6196 11C6                                          i2l6188 1196  
                                        i2l5726 3196                                          i2l5718 3178  
                                        i2l3894 2ECA                                          i2l3886 2EB8  
                                        i2l5734 315A                                          i2l5902 2CC2  
                                        i2l3878 29A6                                          i2l6198 11D6  
                                        i2l5728 319A                                          i2l3896 2ECE  
                                        i2l3888 2EB8                                          i2l5736 315E  
                                        i2l5904 2CD4                                          i2l5912 2C5E  
                                        i2l3898 2ED0                                          i2l5738 3166  
                                        i2l5914 2C6E                                          i2l5906 2C48  
                                        i2l5852 2FFC                                          i2l5860 2FD0  
                                        i2l5916 2C80                                          i2l5908 2C4A  
                                        i2l5854 2FFE                                          i2l5862 2FE2  
                                        i2l5870 2D44                                          i2l6496 1C6A  
                                        i2l5856 3010                                          i2l5864 2FA0  
                                        i2l5880 2D7C                                          i2l5872 2D46  
                                        i2l5858 2FCE                                          i2l5866 2FA2  
                                        i2l5890 2D16                                          i2l5882 2CF0  
                                        i2l5868 2FB4                                          i2l5876 2D5A  
                                        i2l5892 2D28                                          i2l5884 2CF2  
                                        i2l5878 2D6A                                          i2l5894 2C9C  
                                        i2l5888 2D06                                          i2l5896 2C9E  
                                        _SSPADD 0FC8                                          _TRISC3 7CA3  
                                        _TRISC4 7CA4                                          _SSPBUF 0FC9  
                    ?_Interrupt_INTx_Clear_Flag 0068                                       ??_InitI2C 0068  
                      ??_Interrupt_RBx_Pin_Init 006B                                   ??_Timer0_Init 00CB  
                 ??_INT0_ResetIneterruptHandler 0056                         keypad_initialize@retVal 00D4  
                  ?_Timer0_Register_Size_Config 0068                                   _I2C_Read_Byte 31F6  
                                     ??___awdiv 0068                                       ??___awmod 0068  
                                        _keypad 009E                                          _buzzer 004B  
                                        clear_0 2B8A                           led_initialize@pin_obj 00D6  
                              ___awdiv@quotient 00D1               Timer0_Register_Size_Config@timer0 0068  
                               ___awmod@divisor 00CD                                          isa$std 0001  
                                 _I2C_Send_NACK 31CA                                 ___awmod@counter 0068  
                 __end_of_Interrupt_INTx_Enable 25A2                                    __pdataCOMRAM 0040  
                                     ?_I2C_Stop 0056                                    __mediumconst 0000  
                                        tblptrh 0FF7                                          tblptrl 0FF6  
                                        tblptru 0FF8        INT2_SetInterruptHandler@InterruptHandler 0068  
      INT1_SetInterruptHandler@InterruptHandler 0068        INT0_SetInterruptHandler@InterruptHandler 0068  
               seven_segment_initialize@segment 00D3                       ??_Timer0_Prescaler_Config 0069  
                          __end_of_get_rtc_time 2E72                                      __accesstop 0080  
                       __end_of__initialization 2B90                   __end_of_Data_EEPROM_Read_Byte 2F3C  
                                     ?_INT0_ISR 0056                                       ?_INT1_ISR 0056  
                                     ?_INT2_ISR 0056                                   ___rparam_used 0001  
             __end_of_Interrupt_INTx_Clear_Flag 286A             Read_Bytes_From_DS1307_RTC@NoOfBytes 00CC  
                             led_initialize@led 00D3                         _Interrupt_INTx_Pin_Init 302A  
                                ?_I2C_Read_Byte 0056                               RB5_ISR@RB5_Source 0061  
                        ??_gpio_pin_write_logic 00CB                                  __pcstackCOMRAM 0056  
                                  __pidataBANK0 2D96                                       ?_TMR0_ISR 0056  
                 ??_Timer0_Register_Size_Config 0069                    Interrupt_INTx_Disable@retVal 00CB  
                           __end_of_Timer0_Init 230E                                  ?_I2C_Send_NACK 0056  
                                    ??_I2C_Stop 0068                            __end_of_led_turn_off 2786  
Data_EEPROM_Write_Byte@General_Interrupt_Status 0059                __end_of_INT2_SetInterruptHandler 3080  
                   __end_of_Interrupt_INTx_Init 2A80                                  _count_down_int 00B9  
       __end_of_INT2_CountDownIneterruptHandler 31B4               ??_INT2_CountDownIneterruptHandler 0061  
              ?_INT2_CountDownIneterruptHandler 0056                 _INT2_CountDownIneterruptHandler 3196  
                         _INT0_InterruptHandler 001F                                      ??_INT0_ISR 0061  
                                    ??_INT1_ISR 0061                                      ??_INT2_ISR 0061  
                        _application_initialize 3268                                      __pnvCOMRAM 006B  
                        _Data_EEPROM_Write_Byte 2EB8                __end_of_Interrupt_INTx_Edge_Init 182E  
                       ??_gpio_pin_toggle_logic 0057                gpio_pin_write_logic@logic_status 0069  
            i2gpio_pin_write_logic@logic_status 0057                                 _minutes_display 2A80  
                                    ??_TMR0_ISR 005E                               led_turn_off@F3077 002E  
                                 led_toggle@led 005B                                   _stopwatch_led 004F  
                                       _ACKSTAT 7E2E                __end_of_TIMER0_IneterruptHandler 15D6  
                               led_toggle@F3082 002D                                   ??_I2C_ReStart 0068  
    __end_of_Interrupt_INTx_SetInterruptHandler 227C            ??_Interrupt_INTx_SetInterruptHandler 00CC  
           ?_Interrupt_INTx_SetInterruptHandler 00CB              _Interrupt_INTx_SetInterruptHandler 21D4  
                             RB7_ISR@RB7_Source 0061                      ??_INT1_SetInterruptHandler 006A  
                                       _RB4_ISR 2D42                                         _RB5_ISR 2CEE  
                                       _RB6_ISR 2C9A                                         _RB7_ISR 2C46  
                 __end_of_Interrupt_RBx_Disable 313C                                 _seconds_display 28DA  
                     _RB6_InterruptHandler_HIGH 0011                     ?_Read_Bytes_From_DS1307_RTC 00CB  
                      _seven_segment_initialize 2BF0                               led_turn_on@retVal 005F  
             seven_segment_write_number@segment 00D3                               ?_keypad_get_value 00D0  
               ??_INT1_CountUpIneterruptHandler 0061                                         _SSPCON1 0FC6  
                              ??_led_initialize 00D4                                         _SSPSTAT 0FC7  
                            ??_keypad_get_value 00D2                                      _btn_values 1001  
                       ?_Interrupt_INTx_Disable 0068                                      _led_toggle 2948  
                   ?_RB1_ClockIneterruptHandler 0056                                  _tris_registers 0094  
                      _RB6_InterruptHandler_LOW 000F                                _pause_resume_int 00B3  
                                       _InitI2C 3248                       ??_Interrupt_INTx_Pin_Init 006B  
                         _mcal_layer_initialize 2E72                       ?_INT0_SetInterruptHandler 0068  
                                     _I2C_Start 3220                                 ??_I2C_Read_Byte 0068  
                                       __Hparam 0000                                     _Timer0_Init 227C  
                                       __Lparam 0000                             _gpio_pin_initialize 29B2  
                               ??_I2C_Send_NACK 0068                             _gpio_pin_read_logic 212C  
                                       ___awdiv 1D7C                                         ___awmod 1FCC  
              keypad_initialize@columns_counter 00D6                                    __psmallconst 1000  
                                       __pcinit 2B44                                         __ramtop 1000  
                INT0_SetInterruptHandler@retVal 006A               Interrupt_RBx_Priority_Init@retVal 0069  
                                       __ptext0 1F08                                         __ptext1 12E8  
                                       __ptext2 1FCC                                         __ptext3 1D7C  
                                       __ptext4 15D6                                         __ptext5 28DA  
                                       __ptext6 2A80                                         __ptext7 1C82  
                                       __ptext8 212C                                         __ptext9 2B9A  
                                     _T0CONbits 0FD5                 ??_gpio_pin_direction_initialize 00CB  
            Interrupt_RBx_Priority_Init@int_obj 0068                          _Interrupt_RBx_Pin_Init 2F72  
                              ___awmod@dividend 00CB                                      _buzzer_led 004C  
                                       _minutes 003E                                         _seconds 003F  
                           __end_of_I2C_ReStart 3248                            ?_gpio_pin_initialize 00D0  
                          ?_gpio_pin_read_logic 0068                  __end_of_Interrupt_INTx_Disable 27F8  
                      ??i2_gpio_pin_write_logic 0058                                      _pause_flag 002C  
                                __pintcode_body 1012                            end_of_initialization 2B90  
                      _INT2_SetInterruptHandler 3056             gpio_pin_direction_initialize@config 0068  
                             __end_of_set_alarm 170E                                         int_func 1012  
                       __end_of_minutes_display 2AE2             gpio_pin_direction_initialize@retVal 0069  
                   ??_Interrupt_INTx_Clear_Flag 0069                                      ?_I2C_Start 0056  
                           led_turn_off@pin_obj 0060                                         postdec1 0FE5  
                                       postdec2 0FDD                        _Interrupt_INTx_Edge_Init 170E  
                                       postinc0 0FEE                                         postinc1 0FE6  
                                       postinc2 0FDE                        Interrupt_RBx_Init@retVal 00D6  
                       __end_of_seconds_display 2948                                    _get_rtc_time 2E2C  
                         _INT1_InterruptHandler 001D                                       _PORTBbits 0F81  
                             led_toggle@pin_obj 005D                    keypad_get_value@column_logic 00D4  
                      _TIMER0_IneterruptHandler 147A                           ??_gpio_pin_initialize 00D1  
                         ??_gpio_pin_read_logic 00CB                   Timer0_Prescaler_Config@timer0 0068  
             Read_Bytes_From_DS1307_RTC@Address 00CE                                     ?_led_toggle 005B  
                        ?_mcal_layer_initialize 0056                                   _hours_display 2B9A  
         __end_of_INT1_CountUpIneterruptHandler 3196                   _INT1_CountUpIneterruptHandler 3178  
                    __end_of_Timer0_Mode_Select 24A2                                    _led_turn_off 270E  
                     Interrupt_RBx_Init@int_obj 00D5                           keypad_get_value@value 00D1  
                  Interrupt_RBx_Disable@int_obj 0068                                  _I2C_Write_Byte 313C  
                   Data_EEPROM_Write_Byte@bData 0058                                   __pidataCOMRAM 31B4  
                                _timer0_preload 0007                                     _I2C_ReStart 3234  
                 Interrupt_INTx_Disable@int_obj 0068                       _Interrupt_INTx_Clear_Flag 27F8  
                         _Interrupt_INTx_Enable 2524                             start_initialization 2B44  
                                 ??_led_turn_on 005E        Interrupt_INTx_SetInterruptHandler@retVal 00CE  
                  ??_seven_segment_write_number 006B           __end_of_gpio_pin_direction_initialize 194A  
                 _gpio_pin_direction_initialize 182E                         ?_application_initialize 0056  
                       ?_Data_EEPROM_Write_Byte 0056                                  ?_hours_display 0056  
                                  _count_up_int 00BF                                   _minutes_input 0003  
                                 _alarm_minutes 0029                                   _alarm_seconds 0028  
                              ?_minutes_display 0056                                     ??_I2C_Start 0068  
           __end_of_INT0_ResetIneterruptHandler 3268                     _INT0_ResetIneterruptHandler 325A  
                               led_turn_off@led 005D                    ??_RB0_PauseIneterruptHandler 005A  
                                 _seconds_input 0001                           _Data_EEPROM_Read_Byte 2EFE  
                 __end_of_gpio_pin_toggle_logic 2524                          __end_of_I2C_Write_Byte 315A  
                                   __pdataBANK0 0080                      ??_seven_segment_initialize 006B  
                              ?_seconds_display 0056                     Read_Bytes_From_DS1307_RTC@i 00CF  
                  __end_of_ecu_layer_initialize 261C                                       _pRTCArray 0031  
                                      ?_RB4_ISR 0056                                        ?_RB5_ISR 0056  
                    Data_EEPROM_Read_Byte@bData 0058                                        ?_RB6_ISR 0056  
                                      ?_RB7_ISR 0056                                     __pbssCOMRAM 0001  
              __end_of_INT0_SetInterruptHandler 30D4                                   __pcstackBANK0 00CB  
                __end_of_application_initialize 3272                        ?_Timer0_Prescaler_Config 0068  
                __end_of_Data_EEPROM_Write_Byte 2EFE                                   ?_I2C_Send_ACK 0056  
                    seven_seg_display@__minutes 00D6                      seven_seg_display@__seconds 00D7  
                                _clock_mode_int 00AD                      Interrupt_RBx_Enable@retVal 0069  
                                   _alarm_hours 002A                             __end_of_led_turn_on 270E  
                         _INT2_InterruptHandler 001B                                        ?_InitI2C 0056  
                         _TMR0_InterruptHandler 0009                                    ?_Timer0_Init 006A  
                  __end_of_InterruptManagerHigh 12E8                    ?_Interrupt_RBx_Priority_Init 0068  
                 keypad_initialize@rows_counter 00D5             __end_of_Timer0_Register_Size_Config 2E2C  
                   _Timer0_Register_Size_Config 2DE2                  ?_INT1_CountUpIneterruptHandler 0056  
                               ?_I2C_Write_Byte 0056                                       __pintcode 0008  
                    __end_of_Interrupt_RBx_Init 1B78                          i2_gpio_pin_write_logic 1B78  
                                      ?___awdiv 00CB                                        ?___awmod 00CB  
                                     _clock_led 004D                    __end_of_Interrupt_RBx_Enable 311A  
                       ?_Interrupt_RBx_Pin_Init 00D3                                    _keypad_value 0039  
                        ?_Interrupt_INTx_Enable 0068                       gpio_pin_initialize@config 00D0  
                                   __smallconst 1000                       _RB4_InterruptHandler_HIGH 0019  
                    ??_INT2_SetInterruptHandler 006A                       gpio_pin_initialize@retVal 00D2  
                                      _I2C_Stop 320C                       _RB7_InterruptHandler_HIGH 000D  
                                ??_I2C_Send_ACK 0068                           _Interrupt_RBx_Disable 311A  
                                   _clock_hours 0027                                 ??_hours_display 006B  
               Interrupt_INTx_Edge_Init@int_obj 0068                        seven_seg_display@__hours 00D8  
                    ??_Interrupt_INTx_Edge_Init 0069                        _RB5_InterruptHandler_LOW 0013  
                                      _INT0_ISR 2FFC                                        _INT1_ISR 2FCE  
                                      _INT2_ISR 2FA0                          ?_Data_EEPROM_Read_Byte 0056  
                             RB4_ISR@RB4_Source 0061                       ?_INT1_SetInterruptHandler 0068  
                                      _RB4_flag 0045                                        _RB5_flag 0044  
                                      _RB6_flag 0043                                        _RB7_flag 0042  
                                      i2u310_40 151C                                        i2u310_41 1518  
                                      i2u311_40 1540                                        i2u303_40 148A  
                                      i2u311_41 153C                                        i2u303_41 1486  
                                      i2u312_40 155A                                        i2u304_40 149E  
                                      i2u312_41 1556                                        i2u304_41 149A  
                                     _set_alarm 15D6                                        i2u313_40 1574  
                                      i2u305_40 14B6                                        i2u313_41 1570  
                                      i2u305_41 14B2                                        i2u314_40 158C  
                                      i2u306_40 14CE                                        i2u314_41 1588  
                                      i2u306_41 14CA                                        i2u315_40 15A0  
                                      i2u307_40 14EC                                        i2u315_41 159C  
                                      i2u307_41 14E8                                        i2u316_40 15B8  
                                      i2u308_40 14FC                                        i2u316_41 15B4  
                                      i2u308_41 14F8                                        i2u237_40 24B2  
                                      i2u317_40 15D0                                        i2u309_40 150C  
                                      i2u237_41 24AE                                        i2u317_41 15CC  
                                      i2u309_41 1508                                        i2u318_40 1E52  
                                      i2u238_40 24D2                                        i2u318_41 1E4E  
                                      i2u238_41 24CE                                        i2u319_40 1ECE  
                                      i2u319_41 1ECA                                        i2u239_44 24F4  
                                      i2u239_45 24F0                                        i2u600_40 12BA  
                                      i2u600_41 12B6                              led_turn_off@retVal 005F  
                                      i2u601_40 12C8                                        i2u601_41 12C4  
                                      i2u530_40 2D6A                                        i2u530_41 2D66  
                                      i2u290_45 2EF8                                        i2u290_46 2EFA  
                                      i2u523_40 3010                                        i2u291_40 2F0E  
                                      i2u531_40 2D7C                                        i2u523_41 300C  
                                      i2u291_41 2F0A                                        i2u531_41 2D78  
                                      i2u356_40 2F58                             _Get_DS1307_RTC_Time 207E  
                                      i2u356_41 2F54                                        i2u524_48 3016  
                                      i2u525_40 2FE2                                        i2u532_48 2D82  
                                      i2u533_40 2D02                                        i2u540_48 2CDA  
                                      i2u541_40 2C5A                                        i2u524_49 3028  
                                      i2u525_41 2FDE                                        i2u532_49 2D94  
                                      i2u533_41 2CFE                                        i2u540_49 2CEC  
                                      i2u541_41 2C56                                       _reset_int 00C5  
                                      i2u534_40 2D16                                        i2u542_40 2C6E  
                                      i2u357_48 2F5E                                        i2u534_41 2D12  
                                      i2u542_41 2C6A                                        i2u357_49 2F70  
                            led_turn_on@pin_obj 0060                                        i2u526_48 2FE8  
                                      i2u527_40 2FB4                                        i2u535_40 2D28  
                                      i2u543_40 2C80                                        i2u287_40 2958  
                                      i2u526_49 2FFA                                        i2u527_41 2FB0  
                                      i2u535_41 2D24                                        i2u543_41 2C7C  
                                      i2u287_41 2954                                        i2u480_44 1BCA  
                                      i2u480_45 1BC6                                        i2u288_45 29A4  
                                      i2u288_47 29A6                                        i2u528_48 2FBA  
                                      i2u289_40 2EEE                                        i2u529_40 2D56  
                                      i2u536_48 2D2E                                        i2u537_40 2CAE  
                                      i2u544_48 2C86                                        i2u528_49 2FCC  
                                      i2u289_41 2EEA                                        i2u529_41 2D52  
                                      i2u536_49 2D40                                        i2u537_41 2CAA  
                                      i2u544_49 2C98                                        i2u481_44 1C20  
                                      i2u481_45 1C1C                                        i2u538_40 2CC2  
                                      i2u570_40 10B6                                        i2u562_40 103A  
                         __end_of_I2C_Read_Byte 320C                                        i2u538_41 2CBE  
                                      i2u570_41 10B2                                        i2u562_41 1036  
                                      i2u539_40 2CD4                                        i2u571_40 10C6  
                                      i2u563_40 1048                                        i2u539_41 2CD0  
                                      i2u571_41 10C2                                        i2u563_41 1044  
                                      i2u580_40 1166                                        i2u572_40 10DE  
                                      i2u564_40 105A                                        i2u580_41 1162  
                                      i2u572_41 10DA                                        i2u564_41 1056  
                                      i2u581_40 1174                                        i2u573_40 10EC  
                                      i2u565_40 1068                                        i2u581_41 1170  
                                      i2u573_41 10E8                                        i2u565_41 1064  
                                      i2u478_40 1B88                                        i2u494_40 26A6  
                                      i2u590_40 120A                                        i2u582_40 1182  
                                      i2u574_40 10FA                                        i2u566_40 107A  
                                      i2u478_41 1B84                                        i2u494_41 26A2  
                                      i2u590_41 1206                                        i2u582_41 117E  
                                      i2u574_41 10F6                                        i2u566_41 1076  
                                      i2u479_40 1BA8                                        i2u591_40 121A  
                                      i2u583_40 1192                                        i2u575_40 110A  
                                      i2u567_40 1088                                        i2u479_41 1BA4  
                                      i2u591_41 1216                                        i2u583_41 118E  
                                      i2u575_41 1106                                        i2u567_41 1084  
                                      i2u495_45 26F6                                        i2u495_47 26F8  
                                      i2u496_40 271E                                        i2u592_40 1232  
                                      i2u584_40 11AA                                        i2u576_40 1122  
                                      i2u568_40 109A                                        i2u496_41 271A  
                                      i2u592_41 122E                                        i2u584_41 11A6  
                                      i2u576_41 111E                                        i2u568_41 1096  
                                      i2u593_40 1240                                        i2u585_40 11B8  
                                      i2u577_40 1130                                        i2u569_40 10A8  
                                      i2u593_41 123C                                        i2u585_41 11B4  
                                      i2u577_41 112C                                        i2u569_41 10A4  
                                      i2u497_45 276E                                        i2u497_47 2770  
                                      i2u594_40 124E                                        i2u586_40 11C6  
                                      i2u578_40 113E                                        i2u594_41 124A  
                                      i2u586_41 11C2                                        i2u578_41 113A  
                                      i2u595_40 125E                                        i2u587_40 11D6  
                                      i2u579_40 114E                                        i2u595_41 125A  
                                      i2u587_41 11D2                                        i2u579_41 114A  
                                      i2u596_40 1276                                        i2u588_40 11EE  
                                      i2u596_41 1272                                        i2u588_41 11EA  
                                      i2u597_40 1284                                        i2u589_40 11FC  
                                      i2u597_41 1280                                        i2u589_41 11F8  
                                      i2u598_40 1292                                        i2u598_41 128E  
                                      i2u599_40 12A2                  Interrupt_INTx_Pin_Init@int_obj 00D3  
                                      i2u599_41 129E                 Read_Bytes_From_DS1307_RTC@pData 00CB  
                 ??_Interrupt_RBx_Priority_Init 0069                                        _TMR0_ISR 2F3C  
                    ??_TIMER0_IneterruptHandler 005E                  __end_of_Interrupt_RBx_Pin_Init 2FA0  
                                     _timer_led 004E                                    _seg_enable_1 0055  
                                  _seg_enable_2 0054                                    _seg_enable_3 0053  
                                  _seg_enable_4 0052                                    _seg_enable_5 0051  
                                  _seg_enable_6 0050                           __end_of_I2C_Send_NACK 31E0  
               __end_of_Timer0_Prescaler_Config 2B44              __end_of_seven_segment_write_number 2396  
                    _seven_segment_write_number 230E                            ?_Get_DS1307_RTC_Time 0069  
                                   _led_turn_on 2696                                    _paused_hours 003C  
               keypad_get_value@columns_counter 00D7                         ??_mcal_layer_initialize 006B  
                                   _INTCON2bits 0FF1                                     _INTCON3bits 0FF0  
                                     copy_data0 2B58                                       copy_data1 2B78  
                      ?_Interrupt_INTx_Pin_Init 00D3                        _INT0_SetInterruptHandler 30AA  
                                  ??_led_toggle 005C                               _keypad_initialize 286A  
            __end_of_RB0_PauseIneterruptHandler 1F08                      _RB0_PauseIneterruptHandler 1E42  
                            ?_keypad_initialize 00D3                            _ecu_layer_initialize 25A2  
                                    _EECON1bits 0FA6                                  led_turn_on@led 005D  
                                      __Hrparam 0000                     Interrupt_INTx_Enable@retVal 00CB  
                                    ?_set_alarm 0056                                        __Lrparam 0000  
                           ??_keypad_initialize 006B                __end_of_seven_segment_initialize 2C46  
                             RB6_ISR@RB6_Source 0061                       Data_EEPROM_Read_Byte@bADD 0056  
                                  ?_I2C_ReStart 0056                      Interrupt_INTx_Init@int_obj 00D5  
                            _Timer0_Mode_Select 241C                     __end_of_gpio_pin_initialize 2A1A  
                            __end_of_btn_values 1011                                   _seven_segment 0046  
                            __end_of_led_toggle 29B2                     __end_of_gpio_pin_read_logic 21D4  
                                 _clock_minutes 0026                                   _clock_seconds 0025  
                         ??_Get_DS1307_RTC_Time 00D1                          ?_Interrupt_RBx_Disable 0068  
                           ?_Timer0_Mode_Select 0068                            _InterruptManagerHigh 0008  
                     __end_of_keypad_initialize 28DA                                        __ptext10 230E  
                                      __ptext11 2E2C                                        __ptext20 31F6  
                                      __ptext12 3248                                        __ptext21 3234  
                                      __ptext13 207E                                        __ptext30 2F72  
                                      __ptext22 3268                                        __ptext14 2396  
                                      __ptext31 30F8                                        __ptext23 2E72  
                                      __ptext15 313C                                        __ptext40 170E  
                                      __ptext32 311A                                        __ptext24 227C  
                                      __ptext16 320C                                        __ptext41 2786  
                                      __ptext33 2A1A                                        __ptext25 2DE2  
                                      __ptext17 3220                                        __ptext42 27F8  
                                      __ptext34 21D4                                        __ptext26 2AE2  
                                      __ptext18 31CA                                        __ptext51 2F3C  
                                      __ptext43 25A2                                        __ptext35 3056  
                                      __ptext27 241C                                        __ptext19 31E0  
                                      __ptext60 315A                                        __ptext52 147A  
                                      __ptext44 2BF0                                        __ptext36 3080  
                                      __ptext28 1A64                                        __ptext61 2EB8  
                                      __ptext53 2948                                        __ptext45 261C  
                                      __ptext37 30AA                                        __ptext29 30D4  
                                      __ptext70 270E                                        __ptext62 2EFE  
                                      __ptext54 24A2                                        __ptext46 286A  
                                      __ptext38 302A                                        __ptext71 1B78  
                                      __ptext63 2FA0                                        __ptext55 2C46  
                                      __ptext47 29B2                                        __ptext39 2524  
                                      __ptext64 2FCE                                        __ptext56 2C9A  
                                      __ptext48 194A                                        __ptext65 2FFC  
                                      __ptext57 2CEE                                        __ptext49 182E  
                                      __ptext66 3178                                        __ptext58 2D42  
                                      __ptext67 325A                                        __ptext59 1E42  
                                      __ptext68 3196                                        __ptext69 2696  
              Interrupt_INTx_Clear_Flag@int_obj 0068                                        _counter1 0024  
                                      _counter2 0023                                        _counter3 0022  
                        _pause_resume_btn_state 002B                            _Interrupt_RBx_Enable 30F8  
                         ?_ecu_layer_initialize 0056                                     _mode_status 0040  
                   Data_EEPROM_Read_Byte@retVal 0059                                _keypad_get_value 1C82  
                          ??_Timer0_Mode_Select 0069                                        isa$xinst 0000  
                          __end_of_I2C_Send_ACK 31F6                                        int$flags 006D  
                  i2gpio_pin_write_logic@config 0056                     Interrupt_RBx_Enable@int_obj 0068  
                INT2_SetInterruptHandler@retVal 006A                                     _hours_input 0005  
                     gpio_pin_read_logic@config 0068                seven_segment_write_number@retVal 00D5  
                     gpio_pin_read_logic@retVal 006A                        ??_Interrupt_INTx_Disable 0069  
              seven_segment_write_number@number 00D4                             _Interrupt_INTx_Init 2A1A  
                                    _INTCONbits 0FF2                        Timer0_Mode_Select@timer0 0068  
               __end_of_Interrupt_INTx_Pin_Init 3056                           ?_InterruptManagerHigh 0056  
                  ??_Read_Bytes_From_DS1307_RTC 0069                    __end_of_gpio_pin_write_logic 1A64  
                     Interrupt_INTx_Init@retVal 00D6                                        intlevel2 0000  
                         ?_Interrupt_RBx_Enable 0068                    ??_RB1_ClockIneterruptHandler 0061  
                              ??_I2C_Write_Byte 0068                            ?_Interrupt_INTx_Init 00D5  
                       ?i2_gpio_pin_write_logic 0056                                     ??_set_alarm 006B  
                         _gpio_pin_toggle_logic 24A2                         ??_Interrupt_INTx_Enable 0069  
                    gpio_pin_write_logic@config 0068                      gpio_pin_write_logic@retVal 006A  
                                   _resume_flag 0041                                  _port_registers 0080  
                            _Interrupt_RBx_Init 1A64                __end_of_INT1_SetInterruptHandler 30AA  
                    Data_EEPROM_Write_Byte@bADD 0056                         ??_Data_EEPROM_Read_Byte 0059  
                     ?_seven_segment_initialize 00D3                     Interrupt_RBx_Disable@retVal 0069  
                        ??_ecu_layer_initialize 006B                             ?_Interrupt_RBx_Init 00D5  
                         ??_Interrupt_INTx_Init 006B                  __end_ofi2_gpio_pin_write_logic 1C82  
                                _led_initialize 261C  
